
Szyfrator_NET.elf:     file format elf32-littlenios2
Szyfrator_NET.elf
architecture: nios2, flags 0x00000112:
EXEC_P, HAS_SYMS, D_PAGED
start address 0x000801b8

Program Header:
    LOAD off    0x00001000 vaddr 0x00080000 paddr 0x00080000 align 2**12
         filesz 0x00000020 memsz 0x00000020 flags r-x
    LOAD off    0x00001020 vaddr 0x00080020 paddr 0x00080020 align 2**12
         filesz 0x0001ba84 memsz 0x0001ba84 flags r-x
    LOAD off    0x0001caa4 vaddr 0x0009baa4 paddr 0x0009d614 align 2**12
         filesz 0x00001b70 memsz 0x00001b70 flags rw-
    LOAD off    0x0001f184 vaddr 0x0009f184 paddr 0x0009f184 align 2**12
         filesz 0x00000000 memsz 0x000032b8 flags rw-
    LOAD off    0x0001f000 vaddr 0x00100000 paddr 0x000a243c align 2**12
         filesz 0x00000080 memsz 0x00000080 flags rw-
    LOAD off    0x00020000 vaddr 0x00101000 paddr 0x000a24bc align 2**12
         filesz 0x000000c0 memsz 0x000000c0 flags rw-

Sections:
Idx Name          Size      VMA       LMA       File off  Algn
  0 .entry        00000020  00080000  00080000  00001000  2**5
                  CONTENTS, ALLOC, LOAD, READONLY, CODE
  1 .exceptions   00000198  00080020  00080020  00001020  2**2
                  CONTENTS, ALLOC, LOAD, READONLY, CODE
  2 .text         00018f88  000801b8  000801b8  000011b8  2**2
                  CONTENTS, ALLOC, LOAD, READONLY, CODE
  3 .rodata       00002964  00099140  00099140  0001a140  2**2
                  CONTENTS, ALLOC, LOAD, READONLY, DATA
  4 .rwdata       00001b70  0009baa4  0009d614  0001caa4  2**2
                  CONTENTS, ALLOC, LOAD, DATA, SMALL_DATA
  5 .bss          000032b8  0009f184  0009f184  0001f184  2**2
                  ALLOC, SMALL_DATA
  6 .descriptor_memory1 00000080  00100000  000a243c  0001f000  2**0
                  CONTENTS, ALLOC, LOAD, DATA
  7 .descriptor_memory 00000080  00101000  000a24bc  00020000  2**0
                  CONTENTS, ALLOC, LOAD, DATA
  8 .descriptor_memory0 00000040  00101080  000a253c  00020080  2**0
                  CONTENTS, ALLOC, LOAD, DATA
  9 .comment      00000023  00000000  00000000  000200c0  2**0
                  CONTENTS, READONLY
 10 .debug_aranges 00001330  00000000  00000000  000200e8  2**3
                  CONTENTS, READONLY, DEBUGGING
 11 .debug_info   000398a2  00000000  00000000  00021418  2**0
                  CONTENTS, READONLY, DEBUGGING
 12 .debug_abbrev 0000d8f6  00000000  00000000  0005acba  2**0
                  CONTENTS, READONLY, DEBUGGING
 13 .debug_line   000102d9  00000000  00000000  000685b0  2**0
                  CONTENTS, READONLY, DEBUGGING
 14 .debug_frame  00002a34  00000000  00000000  0007888c  2**2
                  CONTENTS, READONLY, DEBUGGING
 15 .debug_str    00005b30  00000000  00000000  0007b2c0  2**0
                  CONTENTS, READONLY, DEBUGGING
 16 .debug_loc    00019081  00000000  00000000  00080df0  2**0
                  CONTENTS, READONLY, DEBUGGING
 17 .debug_alt_sim_info 00000050  00000000  00000000  00099e74  2**2
                  CONTENTS, READONLY, DEBUGGING
 18 .debug_ranges 00000da0  00000000  00000000  00099ec8  2**3
                  CONTENTS, READONLY, DEBUGGING
 19 .thread_model 00000003  00000000  00000000  0009fbac  2**0
                  CONTENTS, READONLY
 20 .cpu          00000005  00000000  00000000  0009fbaf  2**0
                  CONTENTS, READONLY
 21 .qsys         00000001  00000000  00000000  0009fbb4  2**0
                  CONTENTS, READONLY
 22 .simulation_enabled 00000001  00000000  00000000  0009fbb5  2**0
                  CONTENTS, READONLY
 23 .sysid_hash   00000004  00000000  00000000  0009fbb6  2**0
                  CONTENTS, READONLY
 24 .sysid_base   00000004  00000000  00000000  0009fbba  2**0
                  CONTENTS, READONLY
 25 .sysid_time   00000004  00000000  00000000  0009fbbe  2**0
                  CONTENTS, READONLY
 26 .stderr_dev   00000009  00000000  00000000  0009fbc2  2**0
                  CONTENTS, READONLY
 27 .stdin_dev    00000009  00000000  00000000  0009fbcb  2**0
                  CONTENTS, READONLY
 28 .stdout_dev   00000009  00000000  00000000  0009fbd4  2**0
                  CONTENTS, READONLY
 29 .sopc_system_name 00000005  00000000  00000000  0009fbdd  2**0
                  CONTENTS, READONLY
 30 .jdi          00006171  00000000  00000000  0009fbe2  2**0
                  CONTENTS, READONLY
 31 .sopcinfo     000a482f  00000000  00000000  000a5d53  2**0
                  CONTENTS, READONLY
SYMBOL TABLE:
00080000 l    d  .entry	00000000 .entry
00080020 l    d  .exceptions	00000000 .exceptions
000801b8 l    d  .text	00000000 .text
00099140 l    d  .rodata	00000000 .rodata
0009baa4 l    d  .rwdata	00000000 .rwdata
0009f184 l    d  .bss	00000000 .bss
00100000 l    d  .descriptor_memory1	00000000 .descriptor_memory1
00101000 l    d  .descriptor_memory	00000000 .descriptor_memory
00101080 l    d  .descriptor_memory0	00000000 .descriptor_memory0
00000000 l    d  .comment	00000000 .comment
00000000 l    d  .debug_aranges	00000000 .debug_aranges
00000000 l    d  .debug_info	00000000 .debug_info
00000000 l    d  .debug_abbrev	00000000 .debug_abbrev
00000000 l    d  .debug_line	00000000 .debug_line
00000000 l    d  .debug_frame	00000000 .debug_frame
00000000 l    d  .debug_str	00000000 .debug_str
00000000 l    d  .debug_loc	00000000 .debug_loc
00000000 l    d  .debug_alt_sim_info	00000000 .debug_alt_sim_info
00000000 l    d  .debug_ranges	00000000 .debug_ranges
00000000 l    df *ABS*	00000000 ../../Desktop/Repozytorium/SzyfratorCopy/Szyfrator_v2/software/Sztfrator_NET_BSP/obj/HAL/src/crt0.o
000801f0 l       .text	00000000 alt_after_alt_main
00000000 l    df *ABS*	00000000 alt_exception_entry.o
00080094 l       .exceptions	00000000 alt_exception_unknown
00000000 l    df *ABS*	00000000 alt_irq_handler.c
00000000 l    df *ABS*	00000000 Net_szyfr.c
00000000 l    df *ABS*	00000000 lib2-divmod.c
000818dc l     F .text	00000074 udivmodsi4
00000000 l    df *ABS*	00000000 printf.c
00000000 l    df *ABS*	00000000 putchar.c
00000000 l    df *ABS*	00000000 puts.c
00000000 l    df *ABS*	00000000 scanf.c
00000000 l    df *ABS*	00000000 strlen.c
00000000 l    df *ABS*	00000000 vfprintf.c
00081c28 l     F .text	00000034 __sprint_r
0009979a l     O .rodata	00000010 blanks.3515
000997aa l     O .rodata	00000010 zeroes.3516
00000000 l    df *ABS*	00000000 vfscanf.c
000997c2 l     O .rodata	00000022 basefix.3427
00000000 l    df *ABS*	00000000 wsetup.c
00000000 l    df *ABS*	00000000 ctype_.c
000998e5 l     O .rodata	00000180 _ctype_b
00000000 l    df *ABS*	00000000 dtoa.c
00085324 l     F .text	00000208 quorem
00000000 l    df *ABS*	00000000 fflush.c
00000000 l    df *ABS*	00000000 findfp.c
00086d60 l     F .text	00000008 __fp_lock
00086d68 l     F .text	00000008 __fp_unlock
00000000 l    df *ABS*	00000000 fread.c
00000000 l    df *ABS*	00000000 mallocr.c
00000000 l    df *ABS*	00000000 fvwrite.c
00000000 l    df *ABS*	00000000 fwalk.c
00000000 l    df *ABS*	00000000 impure.c
0009baa4 l     O .rwdata	00000400 impure_data
00000000 l    df *ABS*	00000000 iswspace.c
00000000 l    df *ABS*	00000000 locale.c
00099a8c l     O .rodata	00000030 lconv
00000000 l    df *ABS*	00000000 makebuf.c
00000000 l    df *ABS*	00000000 mallocr.c
00000000 l    df *ABS*	00000000 mbrtowc.c
00000000 l    df *ABS*	00000000 mbtowc_r.c
00000000 l    df *ABS*	00000000 memchr.c
00000000 l    df *ABS*	00000000 memcpy.c
00000000 l    df *ABS*	00000000 memmove.c
00000000 l    df *ABS*	00000000 memset.c
00000000 l    df *ABS*	00000000 mprec.c
00099bd4 l     O .rodata	0000000c p05.2435
00000000 l    df *ABS*	00000000 putc.c
00000000 l    df *ABS*	00000000 mallocr.c
00000000 l    df *ABS*	00000000 refill.c
0008a360 l     F .text	0000001c lflush
00000000 l    df *ABS*	00000000 s_isinfd.c
00000000 l    df *ABS*	00000000 s_isnand.c
00000000 l    df *ABS*	00000000 sbrkr.c
00000000 l    df *ABS*	00000000 sccl.c
00000000 l    df *ABS*	00000000 sf_nan.c
00000000 l    df *ABS*	00000000 sprintf.c
00000000 l    df *ABS*	00000000 stdio.c
00000000 l    df *ABS*	00000000 strcmp.c
00000000 l    df *ABS*	00000000 strtod.c
0009c2b8 l     O .rwdata	00000014 fpi.2015
00099bf0 l     O .rodata	00000028 tinytens
0009c2cc l     O .rwdata	00000014 fpinan.2051
00000000 l    df *ABS*	00000000 strtol.c
00000000 l    df *ABS*	00000000 strtoll_r.c
00000000 l    df *ABS*	00000000 strtoul.c
00000000 l    df *ABS*	00000000 strtoull_r.c
00000000 l    df *ABS*	00000000 ungetc.c
00000000 l    df *ABS*	00000000 wbuf.c
00000000 l    df *ABS*	00000000 writer.c
00000000 l    df *ABS*	00000000 mallocr.c
00000000 l    df *ABS*	00000000 closer.c
00000000 l    df *ABS*	00000000 fclose.c
00000000 l    df *ABS*	00000000 fstatr.c
00000000 l    df *ABS*	00000000 gdtoa-gethex.c
0008d270 l     F .text	00000110 rshift
00000000 l    df *ABS*	00000000 gdtoa-hexnan.c
00000000 l    df *ABS*	00000000 int_errno.c
00000000 l    df *ABS*	00000000 isattyr.c
00000000 l    df *ABS*	00000000 lseekr.c
00000000 l    df *ABS*	00000000 readr.c
00000000 l    df *ABS*	00000000 libgcc2.c
00000000 l    df *ABS*	00000000 libgcc2.c
00000000 l    df *ABS*	00000000 libgcc2.c
00000000 l    df *ABS*	00000000 libgcc2.c
00000000 l    df *ABS*	00000000 fp-bit.c
00000000 l    df *ABS*	00000000 fp-bit.c
00000000 l    df *ABS*	00000000 fp-bit.c
00000000 l    df *ABS*	00000000 fp-bit.c
0008ec54 l     F .text	00000354 _fpadd_parts
00000000 l    df *ABS*	00000000 fp-bit.c
00000000 l    df *ABS*	00000000 fp-bit.c
00000000 l    df *ABS*	00000000 fp-bit.c
00000000 l    df *ABS*	00000000 fp-bit.c
00000000 l    df *ABS*	00000000 fp-bit.c
00000000 l    df *ABS*	00000000 fp-bit.c
00000000 l    df *ABS*	00000000 fp-bit.c
00000000 l    df *ABS*	00000000 fp-bit.c
00000000 l    df *ABS*	00000000 fp-bit.c
00000000 l    df *ABS*	00000000 fp-bit.c
00000000 l    df *ABS*	00000000 fp-bit.c
00000000 l    df *ABS*	00000000 fp-bit.c
00000000 l    df *ABS*	00000000 fp-bit.c
00000000 l    df *ABS*	00000000 libgcc2.c
00000000 l    df *ABS*	00000000 libgcc2.c
00000000 l    df *ABS*	00000000 fp-bit.c
00000000 l    df *ABS*	00000000 fp-bit.c
00000000 l    df *ABS*	00000000 fp-bit.c
00000000 l    df *ABS*	00000000 fp-bit.c
00000000 l    df *ABS*	00000000 fp-bit.c
00000000 l    df *ABS*	00000000 fp-bit.c
00000000 l    df *ABS*	00000000 libgcc2.c
00000000 l    df *ABS*	00000000 libgcc2.c
00000000 l    df *ABS*	00000000 fp-bit.c
00000000 l    df *ABS*	00000000 alt_close.c
00090258 l     F .text	00000050 alt_get_errno
00000000 l    df *ABS*	00000000 alt_dev.c
00090370 l     F .text	0000002c alt_dev_null_write
00000000 l    df *ABS*	00000000 alt_errno.c
00000000 l    df *ABS*	00000000 alt_fstat.c
0009039c l     F .text	00000050 alt_get_errno
00000000 l    df *ABS*	00000000 alt_getchar.c
00000000 l    df *ABS*	00000000 alt_isatty.c
000904d4 l     F .text	00000050 alt_get_errno
00000000 l    df *ABS*	00000000 alt_load.c
000905c4 l     F .text	0000006c alt_load_section
00000000 l    df *ABS*	00000000 alt_lseek.c
000906b0 l     F .text	00000050 alt_get_errno
00000000 l    df *ABS*	00000000 alt_main.c
00000000 l    df *ABS*	00000000 alt_malloc_lock.c
00000000 l    df *ABS*	00000000 alt_printf.c
00000000 l    df *ABS*	00000000 alt_putchar.c
00000000 l    df *ABS*	00000000 alt_read.c
00090b10 l     F .text	00000050 alt_get_errno
00000000 l    df *ABS*	00000000 alt_release_fd.c
00000000 l    df *ABS*	00000000 alt_sbrk.c
0009d5f8 l     O .rwdata	00000004 heap_end
00000000 l    df *ABS*	00000000 alt_write.c
00090d60 l     F .text	00000050 alt_get_errno
00000000 l    df *ABS*	00000000 alt_sys_init.c
00090e9c l     F .text	00000038 alt_dev_reg
0009c488 l     O .rwdata	00001060 jtag_uart
0009d4e8 l     O .rwdata	00000030 sgdma_rx
0009d518 l     O .rwdata	00000030 sgdma_rx1
0009d548 l     O .rwdata	00000030 sgdma_tx
0009d578 l     O .rwdata	00000030 sgdma_tx1
00000000 l    df *ABS*	00000000 altera_avalon_jtag_uart_fd.c
00000000 l    df *ABS*	00000000 altera_avalon_jtag_uart_init.c
000911dc l     F .text	00000204 altera_avalon_jtag_uart_irq
000913e0 l     F .text	000000a4 altera_avalon_jtag_uart_timeout
00000000 l    df *ABS*	00000000 altera_avalon_jtag_uart_ioctl.c
00000000 l    df *ABS*	00000000 altera_avalon_jtag_uart_read.c
00000000 l    df *ABS*	00000000 altera_avalon_jtag_uart_write.c
00000000 l    df *ABS*	00000000 altera_avalon_sgdma.c
00091a1c l     F .text	00000050 alt_get_errno
000925c0 l     F .text	000000b8 alt_avalon_sgdma_irq
00000000 l    df *ABS*	00000000 altera_avalon_tse.c
0009f1f7 l     O .bss	00000001 tse_system_count.3776
0009f1f6 l     O .bss	00000001 is_init.3858
00000000 l    df *ABS*	00000000 altera_avalon_tse_system_info.c
00000000 l    df *ABS*	00000000 perf_print_formatted_report.c
00000000 l    df *ABS*	00000000 alt_alarm_start.c
00000000 l    df *ABS*	00000000 alt_dcache_flush_all.c
00000000 l    df *ABS*	00000000 alt_dev_llist_insert.c
00097a9c l     F .text	00000050 alt_get_errno
00000000 l    df *ABS*	00000000 alt_do_ctors.c
00000000 l    df *ABS*	00000000 alt_do_dtors.c
00000000 l    df *ABS*	00000000 alt_find_dev.c
00000000 l    df *ABS*	00000000 alt_icache_flush_all.c
00000000 l    df *ABS*	00000000 alt_iic.c
00000000 l    df *ABS*	00000000 alt_iic_isr_register.c
00000000 l    df *ABS*	00000000 alt_io_redirect.c
00097fcc l     F .text	000000c0 alt_open_fd
00000000 l    df *ABS*	00000000 alt_irq_vars.c
00000000 l    df *ABS*	00000000 alt_open.c
00098104 l     F .text	00000050 alt_get_errno
00098154 l     F .text	000000cc alt_file_locked
00000000 l    df *ABS*	00000000 alt_remap_uncached.c
00000000 l    df *ABS*	00000000 alt_tick.c
00000000 l    df *ABS*	00000000 alt_usleep.c
00000000 l    df *ABS*	00000000 altera_nios2_qsys_irq.c
00000000 l    df *ABS*	00000000 altera_avalon_performance_counter.c
00000000 l    df *ABS*	00000000 alt_busy_sleep.c
00000000 l    df *ABS*	00000000 alt_dcache_flush.c
00000000 l    df *ABS*	00000000 alt_find_file.c
00000000 l    df *ABS*	00000000 alt_get_fd.c
00000000 l    df *ABS*	00000000 alt_icache_flush.c
00000000 l    df *ABS*	00000000 atexit.c
00000000 l    df *ABS*	00000000 exit.c
00000000 l    df *ABS*	00000000 getc.c
00000000 l    df *ABS*	00000000 malloc.c
00000000 l    df *ABS*	00000000 memcmp.c
00000000 l    df *ABS*	00000000 rget.c
00000000 l    df *ABS*	00000000 strcpy.c
00000000 l    df *ABS*	00000000 __atexit.c
00000000 l    df *ABS*	00000000 __call_atexit.c
00000000 l    df *ABS*	00000000 libgcc2.c
00000000 l    df *ABS*	00000000 alt_exit.c
00000000 l    df *ABS*	00000000 
00081a7c g     F .text	0000001c putchar
00089a44 g     F .text	00000074 _mprec_log10
00093984 g     F .text	000000d8 alt_tse_get_mac_info
00089b34 g     F .text	00000084 __any_on
0008dddc g     F .text	00000064 _isatty_r
00099abc g     O .rodata	00000028 __mprec_tinytens
000907d0 g     F .text	00000078 alt_main
00098d30 g     F .text	00000094 strcpy
000900e8 g     F .text	00000044 __ashldi3
00081a98 g     F .text	00000084 _puts_r
00080608 g     F .text	000002d8 rx_ethernet_isr
000a21ac g     O .bss	00000100 alt_irq
0009f604 g     O .bss	00000400 rx_frame1
0008de40 g     F .text	0000006c _lseek_r
0009755c g     F .text	000000f0 marvell_cfg_rgmii
0009d614 g       *ABS*	00000000 __flash_rwdata_start
00081460 g     F .text	00000150 przeprowadzenie_szyfrowania_sram
0008f4f4 g     F .text	0000005c __eqdf2
00094b6c g     F .text	00000210 alt_tse_phy_print_profile
000a243c g       *ABS*	00000000 __alt_heap_start
000972fc g     F .text	00000098 marvell_phy_cfg
00081110 g     F .text	000000f4 paczka_deszyfrowanie
00081a38 g     F .text	0000003c printf
00091b90 g     F .text	00000110 alt_avalon_sgdma_do_sync_transfer
0008a89c g     F .text	0000005c __sseek
00086df0 g     F .text	0000010c __sinit
000986f8 g     F .text	00000024 alt_get_cpu_freq
0008cdd4 g     F .text	0000013c __swbuf_r
00087d2c g     F .text	0000009c _setlocale_r
00080a6c g     F .text	0000008c init_3desdecrypt
00086d7c g     F .text	00000064 __sfmoreglue
0008cdb8 g     F .text	0000001c ungetc
00090868 g     F .text	00000020 __malloc_unlock
0008a9a4 g     F .text	00001458 _strtod_r
00093bc8 g     F .text	00000a74 getPHYSpeed
0009227c g     F .text	00000344 alt_avalon_sgdma_construct_descriptor_burst
00088a0c g     F .text	00000128 memmove
000976c4 g     F .text	0000027c perf_print_formatted_report
00086de0 g     F .text	00000010 _cleanup
00100060 g     O .descriptor_memory1	00000020 rx_descriptor_end1
00088c10 g     F .text	000000a8 _Balloc
00081204 g     F .text	0000025c przygotowanie_danych
00096570 g     F .text	000001bc alt_tse_phy_set_adv_1000
0009d604 g     O .rwdata	00000001 max_mac_system
00092c3c g     F .text	000009fc alt_tse_system_add_sys
0008f5ac g     F .text	00000064 __gtdf2
00000000  w      *UND*	00000000 __errno
00080af8 g     F .text	00000064 ciph_3des
00080000 g     F .entry	0000001c __reset
0009d5c0 g     O .rwdata	00000004 key31
00091dec g     F .text	00000074 alt_avalon_sgdma_construct_stream_to_mem_desc_burst
00080020 g       *ABS*	00000000 __flash_exceptions_start
0009f184 g     O .bss	00000004 p2
0008d208 g     F .text	00000068 _fstat_r
000a1a2c g     O .bss	00000240 tse_mac_device
0009f188 g     O .bss	00000004 p7
0009f1e4 g     O .bss	00000004 errno
00098d1c g     F .text	00000014 __srget
0008511c g     F .text	00000024 __svfscanf
00096e44 g     F .text	000004b8 alt_tse_phy_set_common_speed
0009d5b8 g     O .rwdata	00000004 key21
000a216c g     O .bss	00000020 pmac_groups
0008fc80 g     F .text	0000002c __make_fp
0009f1ec g     O .bss	00000004 alt_argv
000a55a8 g       *ABS*	00000000 _gp
00098550 g     F .text	00000030 usleep
00092748 g     F .text	00000060 tse_mac_initTransInfo2
0008101c g     F .text	000000f4 paczka_szyfrowanie
0009c308 g     O .rwdata	00000180 alt_fd_list
0009d5a8 g     O .rwdata	00000004 triple
00098b34 g     F .text	00000070 _getc_r
00098ba4 g     F .text	00000088 getc
00081a74 g     F .text	00000008 _putchar_r
00097c44 g     F .text	00000090 alt_find_dev
00088914 g     F .text	000000f8 memcpy
000929b4 g     F .text	00000054 tse_mac_setMIImode
0008db50 g     F .text	0000028c __hexnan
0009463c g     F .text	00000048 alt_tse_phy_rd_mdio_addr
00086d70 g     F .text	0000000c _cleanup_r
0008f72c g     F .text	000000d4 __floatsidf
000927a8 g     F .text	000000e0 tse_mac_sTxWrite
0009808c g     F .text	00000078 alt_io_redirect
0008f674 g     F .text	0000005c __ltdf2
00099140 g       *ABS*	00000000 __DTOR_END__
00081b1c g     F .text	00000014 puts
00080c68 g     F .text	000000a8 weryfikacja_szyfrowania
00088798 g     F .text	00000040 mbrtowc
000850d0 g     F .text	0000004c _vfscanf_r
000899a0 g     F .text	000000a4 __ratio
00091edc g     F .text	00000088 alt_avalon_sgdma_construct_mem_to_stream_desc_burst
000915e0 g     F .text	00000218 altera_avalon_jtag_uart_read
00098c2c g     F .text	00000014 malloc
00081a0c g     F .text	0000002c _printf_r
000819fc g     F .text	00000008 __udivsi3
00090524 g     F .text	000000a0 isatty
00093638 g     F .text	00000164 alt_tse_sys_enable_mdio_sharing
00087cf4 g     F .text	00000038 iswspace
00099b0c g     O .rodata	000000c8 __mprec_tens
000817ac g     F .text	00000130 wprowadzenie_kluczy
00093904 g     F .text	00000080 alt_tse_get_mac_info_index
00087dc8 g     F .text	0000000c __locale_charset
0008df78 g     F .text	00000084 __fixunsdfsi
0009fa04 g     O .bss	00001000 dane
00098a5c g     F .text	0000008c alt_icache_flush
0009f1e0 g     O .bss	00000004 __malloc_top_pad
00100020 g     O .descriptor_memory1	00000020 tx_descriptor_end1
00098698 g     F .text	0000003c perf_get_num_starts
0008c774 g     F .text	00000024 strtoul
0009d5d4 g     O .rwdata	00000004 __mb_cur_max
00087dd4 g     F .text	0000000c _localeconv_r
0008c798 g     F .text	00000394 _strtoull_r
00089010 g     F .text	0000003c __i2b
000876b0 g     F .text	000004e4 __sfvwrite_r
00092008 g     F .text	00000058 alt_avalon_sgdma_stop
000946dc g     F .text	0000012c alt_tse_phy_wr_mdio_reg
0008a5cc g     F .text	00000064 _sbrk_r
00094d7c g     F .text	0000069c alt_tse_mac_group_init
0008deac g     F .text	0000006c _read_r
00098870 g     F .text	00000024 alt_dcache_flush
0009bea4 g     O .rwdata	0000000c __lc_ctype
0009d5f0 g     O .rwdata	00000004 alt_max_fd
0008fed0 g     F .text	00000104 __unpack_d
0008d0b8 g     F .text	0000013c _fclose_r
00086d30 g     F .text	00000030 fflush
0009f1dc g     O .bss	00000004 __malloc_max_sbrked_mem
00080000 g       *ABS*	00000000 __alt_mem_main_memory
0008efa8 g     F .text	00000054 __adddf3
001010a0 g     O .descriptor_memory0	00000020 read_descriptor_end
00089714 g     F .text	00000148 __b2d
0008e5c4 g     F .text	0000058c __umoddi3
00090700 g     F .text	000000d0 lseek
0009f18c g     O .bss	00000004 p5
000948d4 g     F .text	00000298 alt_tse_phy_add_profile_default
00095fd8 g     F .text	00000598 alt_tse_phy_get_cap
0009d5cc g     O .rwdata	00000004 _global_impure_ptr
00089d64 g     F .text	000005fc _realloc_r
000a243c g       *ABS*	00000000 __bss_end
00097edc g     F .text	000000f0 alt_iic_isr_register
00090498 g     F .text	0000003c alt_getchar
00091a6c g     F .text	00000124 alt_avalon_sgdma_do_async_transfer
0009844c g     F .text	00000104 alt_tick
00101060 g     O .descriptor_memory	00000020 rx_descriptor_end
000a206c g     O .bss	00000100 __hexdig
0008dffc g     F .text	000005c8 __udivdi3
00095e78 g     F .text	00000160 alt_tse_phy_check_link
00099ae4 g     O .rodata	00000028 __mprec_bigtens
00088df4 g     F .text	00000104 __s2b
0008f934 g     F .text	0000011c __floatunsidf
00097478 g     F .text	000000e4 marvell_cfg_sgmii
00095cb4 g     F .text	000001c4 alt_tse_phy_restart_an
000894b4 g     F .text	00000058 __mcmp
0009d5c8 g     O .rwdata	00000004 __ctype_ptr
00087008 g     F .text	00000018 __fp_lock_all
00097e90 g     F .text	0000004c alt_ic_irq_enabled
000a218c g     O .bss	00000020 pphy_profiles
000983b4 g     F .text	00000098 alt_alarm_stop
0008c19c g     F .text	00000024 strtol
00101000 g       *ABS*	00000000 __alt_mem_descriptor_memory
0009f1f8 g     O .bss	00000004 alt_irq_active
000a1c6c g     O .bss	00000400 tx_frame
000800ec g     F .exceptions	000000cc alt_irq_handler
000808e0 g     F .text	00000100 rx_ethernet_isr1
0009c2e0 g     O .rwdata	00000028 alt_dev_null
00095b9c g     F .text	00000118 alt_tse_phy_init
0008fafc g     F .text	000000c8 __unpack_f
00092060 g     F .text	00000064 alt_avalon_sgdma_check_descriptor_status
00097a80 g     F .text	0000001c alt_dcache_flush_all
00088ef8 g     F .text	00000068 __hi0bits
0009d5c4 g     O .rwdata	00000004 key32
0008f800 g     F .text	000000d4 __fixdfsi
00101040 g     O .descriptor_memory	00000020 rx_descriptor
0008bdfc g     F .text	0000001c strtod
0009f190 g     O .bss	00000004 p1
0009d614 g       *ABS*	00000000 __ram_rwdata_end
0009d5e8 g     O .rwdata	00000008 alt_dev_list
00090db0 g     F .text	000000ec write
0009219c g     F .text	00000080 alt_avalon_sgdma_enable_desc_poll
00089bb8 g     F .text	000000bc _putc_r
0008eba4 g     F .text	0000005c __gtsf2
0009baa4 g       *ABS*	00000000 __ram_rodata_end
000903ec g     F .text	000000ac fstat
000900a4 g     F .text	00000044 __lshrdi3
0009d5b0 g     O .rwdata	00000004 key11
0008f6d0 g     F .text	0000005c __ledf2
0009764c g     F .text	00000078 DP83848C_link_status_read
0008922c g     F .text	0000012c __pow5mult
0009f1d4 g     O .bss	00000004 __nlocale_changed
00081a04 g     F .text	00000008 __umodsi3
00100000 g       *ABS*	00000000 __alt_mem_descriptor_memory1
00081b70 g     F .text	0000002c _scanf_r
00091e60 g     F .text	0000007c alt_avalon_sgdma_construct_mem_to_stream_desc
00091f64 g     F .text	00000050 alt_avalon_sgdma_register_callback
000a243c g       *ABS*	00000000 end
0009d5ac g     O .rwdata	00000004 triple1
0009012c g     F .text	0000012c __pack_f
0009f194 g     O .bss	00000004 p8
00080c14 g     F .text	00000054 deciph_3des_read
00092a58 g     F .text	000001e4 alt_tse_phy_add_profile
0009111c g     F .text	000000c0 altera_avalon_jtag_uart_init
00099140 g       *ABS*	00000000 __CTOR_LIST__
000cb000 g       *ABS*	00000000 __alt_stack_pointer
0009221c g     F .text	00000060 alt_avalon_sgdma_disable_desc_poll
0008fa50 g     F .text	000000ac __clzsi2
000917f8 g     F .text	00000224 altera_avalon_jtag_uart_write
00091ca0 g     F .text	00000070 alt_avalon_sgdma_construct_mem_to_mem_desc
0009f198 g     O .bss	00000004 p6
0009f19c g     O .bss	00000004 result1
00086ff8 g     F .text	00000004 __sfp_lock_acquire
0008881c g     F .text	000000f8 memchr
00081c5c g     F .text	00001df8 ___vfprintf_internal_r
0009f1a0 g     O .bss	00000004 result2
0008a6fc g     F .text	00000058 _sprintf_r
00091d90 g     F .text	0000005c alt_avalon_sgdma_construct_stream_to_mem_desc
000873e0 g     F .text	000002d0 _free_r
00090888 g     F .text	00000244 alt_printf
00100000 g     O .descriptor_memory1	00000020 tx_descriptor1
00098cd0 g     F .text	0000004c __srget_r
00098ef4 g     F .text	000001a0 __call_exitprocs
0009f1a4 g     O .bss	00000004 sgdma_read_3des
0009f1d0 g     O .bss	00000004 __mlocale_changed
0009d5d8 g     O .rwdata	00000004 __malloc_sbrk_base
000801b8 g     F .text	0000003c _start
0009f1fc g     O .bss	00000004 _alt_tick_rate
0008c1c0 g     F .text	00000330 _strtoll_r
0009f1a8 g     O .bss	00000004 sgdma_tx_dev
000920c4 g     F .text	00000050 alt_avalon_sgdma_open
00099094 g     F .text	00000070 __floatundidf
00089358 g     F .text	0000015c __lshift
0009f200 g     O .bss	00000004 _alt_nticks
0009f1ac g     O .bss	00000004 text_length
00094808 g     F .text	000000cc alt_tse_phy_rd_mdio_reg
00090b60 g     F .text	000000f0 read
00090f08 g     F .text	000000b0 alt_sys_init
00098dc4 g     F .text	00000130 __register_exitproc
0009f1f4 g     O .bss	00000001 phy_profile_count
00093890 g     F .text	00000074 alt_tse_get_mac_group_index
00098374 g     F .text	00000040 alt_remap_uncached
0008904c g     F .text	000001e0 __multiply
00091484 g     F .text	00000068 altera_avalon_jtag_uart_close
0009baa4 g       *ABS*	00000000 __ram_rwdata_start
00099140 g       *ABS*	00000000 __ram_rodata_start
000a1a04 g     O .bss	00000028 __malloc_current_mallinfo
0008eb50 g     F .text	00000054 __eqsf2
0008985c g     F .text	00000144 __d2b
000a0a04 g     O .bss	00001000 wyniki
00094684 g     F .text	00000058 alt_tse_phy_wr_mdio_addr
00090fb8 g     F .text	00000060 altera_avalon_jtag_uart_read_fd
0008c4f0 g     F .text	00000284 _strtoul_r
000989a8 g     F .text	000000b4 alt_get_fd
0009871c g     F .text	00000154 alt_busy_sleep
0008ffd4 g     F .text	000000d0 __fpcmp_parts_d
0008d054 g     F .text	00000064 _close_r
00096b1c g     F .text	00000328 alt_tse_phy_get_common_speed
000985a0 g     F .text	000000ac perf_get_section_time
00098c54 g     F .text	0000007c memcmp
00091078 g     F .text	00000050 altera_avalon_jtag_uart_close_fd
000a243c g       *ABS*	00000000 __alt_stack_base
000910c8 g     F .text	00000054 altera_avalon_jtag_uart_ioctl_fd
0009f1f5 g     O .bss	00000001 mac_group_count
000851b0 g     F .text	00000174 __swsetup_r
0008f340 g     F .text	000001b4 __divdf3
00086efc g     F .text	000000fc __sfp
00089ab8 g     F .text	0000007c __copybits
0009864c g     F .text	0000004c perf_get_total_time
0009beb0 g     O .rwdata	00000408 __malloc_av_
00087004 g     F .text	00000004 __sinit_lock_release
000815b0 g     F .text	00000144 przeprowadzenie_deszyfrowania_sram
0008f05c g     F .text	000002e4 __muldf3
0008a7c0 g     F .text	00000054 __sread
00087264 g     F .text	00000040 fread
00095418 g     F .text	0000041c alt_tse_mac_get_phy
00098894 g     F .text	00000114 alt_find_file
00097aec g     F .text	000000a0 alt_dev_llist_insert
00090848 g     F .text	00000020 __malloc_lock
00090cb0 g     F .text	000000b0 sbrk
00091fb4 g     F .text	00000054 alt_avalon_sgdma_start
00086b48 g     F .text	000001e8 _fflush_r
00093b3c g     F .text	0000008c alt_tse_mac_set_duplex
0008cf98 g     F .text	000000bc _calloc_r
0009f184 g       *ABS*	00000000 __bss_start
00088b34 g     F .text	000000dc memset
000801f4 g     F .text	00000414 main
0009f1f0 g     O .bss	00000004 alt_envp
0009f1d8 g     O .bss	00000004 __malloc_max_total_mem
00091018 g     F .text	00000060 altera_avalon_jtag_uart_write_fd
0008cf10 g     F .text	0000001c __swbuf
0008ec00 g     F .text	00000054 __ltsf2
00087038 g     F .text	0000022c _fread_r
0009d5fc g     O .rwdata	00000008 alt_sgdma_list
00080dbc g     F .text	00000260 test_wydajnosc
0008a8f8 g     F .text	00000008 __sclose
000cb000 g       *ABS*	00000000 __alt_heap_limit
0008d1f4 g     F .text	00000014 fclose
0009f1b0 g     O .bss	00000004 sgdma_tx_dev1
0008bf38 g     F .text	00000264 _strtol_r
0008f8d4 g     F .text	00000060 __truncdfsf2
000a22ac g     O .bss	00000190 _atexit0
0008552c g     F .text	0000161c _dtoa_r
00087fb0 g     F .text	00000784 _malloc_r
0009292c g     F .text	00000088 tse_mac_SwReset
0009d5f4 g     O .rwdata	00000004 alt_errno
00101000 g     O .descriptor_memory	00000020 tx_descriptor
0009f204 g     O .bss	00000400 rx_frame
0008cb2c g     F .text	000000f0 __submore
00087b94 g     F .text	000000a8 _fwalk
000887d8 g     F .text	00000044 _mbtowc_r
00089c74 g     F .text	000000f0 putc
00081950 g     F .text	00000050 __divsi3
000937dc g     F .text	00000048 alt_tse_mac_set_common_speed
00099c34 g     O .rodata	00000014 __thenan_df
000872a4 g     F .text	0000013c _malloc_trim_r
00099140 g       *ABS*	00000000 __CTOR_END__
0008a900 g     F .text	000000a4 strcmp
00099140 g       *ABS*	00000000 __flash_rodata_start
00099140 g       *ABS*	00000000 __DTOR_LIST__
00101080 g     O .descriptor_memory0	00000020 read_descriptor
0008f550 g     F .text	0000005c __nedf2
00090ed4 g     F .text	00000034 alt_irq_init
0009379c g     F .text	00000040 alt_tse_mac_get_common_speed
00090c50 g     F .text	00000060 alt_release_fd
0008a754 g     F .text	0000006c sprintf
0009f1b4 g     O .bss	00000004 p10
00099c48 g     O .rodata	00000100 __clz_tab
0009f1cc g     O .bss	00000004 _PathLocale
0008be18 g     F .text	00000120 strtof
00098ae8 g     F .text	00000014 atexit
0008cf2c g     F .text	0000006c _write_r
00087de0 g     F .text	0000001c setlocale
00081b30 g     F .text	00000040 scanf
0008a6f4 g     F .text	00000008 nanf
0009d5d0 g     O .rwdata	00000004 _impure_ptr
0009f1e8 g     O .bss	00000004 alt_argc
00088734 g     F .text	00000064 _mbrtowc_r
00097be8 g     F .text	0000005c _do_dtors
0008a37c g     F .text	000001ec __srefill_r
00080020 g       .exceptions	00000000 alt_irq_entry
000896b4 g     F .text	00000060 __ulp
0008a568 g     F .text	00000038 __isinfd
00087020 g     F .text	00000018 __fp_unlock_all
0009d5e0 g     O .rwdata	00000008 alt_fs_list
000816f4 g     F .text	000000b8 test_wydajnosci_sram
00080020 g       *ABS*	00000000 __ram_exceptions_start
00087dfc g     F .text	0000000c localeconv
0009f1b8 g     O .bss	00000004 p3
00096974 g     F .text	000001a8 alt_tse_phy_set_adv_10
00097d04 g     F .text	00000050 alt_ic_isr_register
0008d380 g     F .text	00000090 __hexdig_init
0009d614 g       *ABS*	00000000 _edata
000a243c g       *ABS*	00000000 _end
0009f1bc g     O .bss	00000004 p9
00095834 g     F .text	00000240 alt_tse_mac_associate_phy
0009f1c0 g     O .bss	00000004 sgdma_rx_dev1
000801b8 g       *ABS*	00000000 __ram_exceptions_end
00085140 g     F .text	00000070 vfscanf
000914ec g     F .text	000000f4 altera_avalon_jtag_uart_ioctl
0009d5bc g     O .rwdata	00000004 key22
00097df0 g     F .text	000000a0 alt_ic_irq_disable
00100040 g     O .descriptor_memory1	00000020 rx_descriptor1
00101020 g     O .descriptor_memory	00000020 tx_descriptor_end
00092114 g     F .text	00000088 alt_avalon_sgdma_construct_descriptor
0008a814 g     F .text	00000088 __swrite
0009d5dc g     O .rwdata	00000004 __malloc_trim_threshold
000986d4 g     F .text	00000024 alt_get_performance_counter_base
00098580 g     F .text	00000020 altera_nios2_qsys_irq_init
00098afc g     F .text	00000038 exit
00087c3c g     F .text	000000b8 _fwalk_reent
0008950c g     F .text	000001a8 __mdiff
0009d5b4 g     O .rwdata	00000004 key12
000819a0 g     F .text	0000005c __modsi3
00080b5c g     F .text	00000064 deciph_3des
00092a08 g     F .text	00000050 tse_mac_setGMIImode
00097394 g     F .text	000000e4 marvell_cfg_gmii
000cb000 g       *ABS*	00000000 __alt_data_end
00080020 g     F .exceptions	00000000 alt_exception
00086ffc g     F .text	00000004 __sfp_lock_release
00095a74 g     F .text	00000128 alt_tse_phy_cfg_pcs
0008a630 g     F .text	000000c4 __sccl
000997e4 g     O .rodata	00000101 _ctype_
0009f1c4 g     O .bss	00000004 sgdma_rx_dev
0008fbc4 g     F .text	000000bc __fpcmp_parts_f
00099104 g     F .text	0000003c _exit
0008a5a0 g     F .text	0000002c __isnand
00097940 g     F .text	00000140 alt_alarm_start
0008df18 g     F .text	00000060 __muldi3
00087e08 g     F .text	000001a8 __smakebuf_r
00080d10 g     F .text	000000ac weryfikacja_deszyfrowania
00081b9c g     F .text	0000008c strlen
00098220 g     F .text	00000154 open
0008f610 g     F .text	00000064 __gedf2
00090acc g     F .text	00000044 alt_putchar
0008d410 g     F .text	00000740 __gethex
00092888 g     F .text	000000a4 tse_mac_aRxRead
00097cd4 g     F .text	00000030 alt_icache_flush_all
0009f1c8 g     O .bss	00000004 p4
0009d608 g     O .rwdata	00000004 alt_priority_mask
00097d54 g     F .text	0000009c alt_ic_irq_enable
00083a54 g     F .text	00000024 __vfprintf_internal
00093a5c g     F .text	000000e0 alt_tse_mac_set_speed
00091d10 g     F .text	00000080 alt_avalon_sgdma_construct_mem_to_mem_desc_burst
0008effc g     F .text	00000060 __subdf3
00088f60 g     F .text	000000b0 __lo0bits
00083a78 g     F .text	00001658 __svfscanf_r
0009d60c g     O .rwdata	00000008 alt_alarm_list
0008cc1c g     F .text	0000019c _ungetc_r
00097b8c g     F .text	0000005c _do_ctors
0009672c g     F .text	00000248 alt_tse_phy_set_adv_100
000809e0 g     F .text	0000008c init_3des
000902a8 g     F .text	000000c8 close
00080bc0 g     F .text	00000054 ciph_3des_read
00090630 g     F .text	00000080 alt_load
0008fcac g     F .text	00000224 __pack_d
00093824 g     F .text	0000006c alt_tse_get_system_index
00092678 g     F .text	000000a4 alt_avalon_sgdma_init
00098c40 g     F .text	00000014 free
00087000 g     F .text	00000004 __sinit_lock_acquire
00088ce0 g     F .text	00000114 __multadd
00088cb8 g     F .text	00000028 _Bfree
0009271c g     F .text	0000002c no_printf



Disassembly of section .entry:

00080000 <__reset>:
   80000:	00840014 	movui	r2,4096
   80004:	1001483a 	initi	r2
   80008:	10bff804 	addi	r2,r2,-32
   8000c:	00bffd16 	blt	zero,r2,80004 <__reset+0x4>
   80010:	00400234 	movhi	at,8
   80014:	08406e14 	ori	at,at,440
   80018:	0800683a 	jmp	at
   8001c:	00000000 	call	0 <__alt_mem_main_memory-0x80000>

Disassembly of section .exceptions:

00080020 <alt_exception>:
   80020:	deffed04 	addi	sp,sp,-76
   80024:	dfc00015 	stw	ra,0(sp)
   80028:	d8400215 	stw	at,8(sp)
   8002c:	d8800315 	stw	r2,12(sp)
   80030:	d8c00415 	stw	r3,16(sp)
   80034:	d9000515 	stw	r4,20(sp)
   80038:	d9400615 	stw	r5,24(sp)
   8003c:	d9800715 	stw	r6,28(sp)
   80040:	d9c00815 	stw	r7,32(sp)
   80044:	000b307a 	rdctl	r5,estatus
   80048:	da000915 	stw	r8,36(sp)
   8004c:	da400a15 	stw	r9,40(sp)
   80050:	da800b15 	stw	r10,44(sp)
   80054:	dac00c15 	stw	r11,48(sp)
   80058:	db000d15 	stw	r12,52(sp)
   8005c:	db400e15 	stw	r13,56(sp)
   80060:	db800f15 	stw	r14,60(sp)
   80064:	dbc01015 	stw	r15,64(sp)
   80068:	d9401115 	stw	r5,68(sp)
   8006c:	ebffff04 	addi	r15,ea,-4
   80070:	dbc01215 	stw	r15,72(sp)
   80074:	0009313a 	rdctl	r4,ipending
   80078:	2880004c 	andi	r2,r5,1
   8007c:	10000326 	beq	r2,zero,8008c <alt_exception+0x6c>
   80080:	20000226 	beq	r4,zero,8008c <alt_exception+0x6c>
   80084:	00800ec0 	call	800ec <alt_irq_handler>
   80088:	00000306 	br	80098 <alt_exception_unknown+0x4>
   8008c:	df401215 	stw	ea,72(sp)
   80090:	e8bfff17 	ldw	r2,-4(ea)

00080094 <alt_exception_unknown>:
   80094:	003da03a 	break	0
   80098:	d9401117 	ldw	r5,68(sp)
   8009c:	df401217 	ldw	ea,72(sp)
   800a0:	dfc00017 	ldw	ra,0(sp)
   800a4:	2801707a 	wrctl	estatus,r5
   800a8:	d8400217 	ldw	at,8(sp)
   800ac:	d8800317 	ldw	r2,12(sp)
   800b0:	d8c00417 	ldw	r3,16(sp)
   800b4:	d9000517 	ldw	r4,20(sp)
   800b8:	d9400617 	ldw	r5,24(sp)
   800bc:	d9800717 	ldw	r6,28(sp)
   800c0:	d9c00817 	ldw	r7,32(sp)
   800c4:	da000917 	ldw	r8,36(sp)
   800c8:	da400a17 	ldw	r9,40(sp)
   800cc:	da800b17 	ldw	r10,44(sp)
   800d0:	dac00c17 	ldw	r11,48(sp)
   800d4:	db000d17 	ldw	r12,52(sp)
   800d8:	db400e17 	ldw	r13,56(sp)
   800dc:	db800f17 	ldw	r14,60(sp)
   800e0:	dbc01017 	ldw	r15,64(sp)
   800e4:	dec01304 	addi	sp,sp,76
   800e8:	ef80083a 	eret

000800ec <alt_irq_handler>:
   800ec:	defff904 	addi	sp,sp,-28
   800f0:	dfc00615 	stw	ra,24(sp)
   800f4:	df000515 	stw	fp,20(sp)
   800f8:	df000504 	addi	fp,sp,20
   800fc:	0001883a 	nop
   80100:	0005313a 	rdctl	r2,ipending
   80104:	e0bffe15 	stw	r2,-8(fp)
   80108:	e0bffe17 	ldw	r2,-8(fp)
   8010c:	e0bffb15 	stw	r2,-20(fp)
   80110:	e03ffd15 	stw	zero,-12(fp)
   80114:	00800044 	movi	r2,1
   80118:	e0bffc15 	stw	r2,-16(fp)
   8011c:	e0fffb17 	ldw	r3,-20(fp)
   80120:	e0bffc17 	ldw	r2,-16(fp)
   80124:	1884703a 	and	r2,r3,r2
   80128:	10001726 	beq	r2,zero,80188 <alt_irq_handler+0x9c>
   8012c:	00c002b4 	movhi	r3,10
   80130:	18c86b04 	addi	r3,r3,8620
   80134:	e0bffd17 	ldw	r2,-12(fp)
   80138:	100490fa 	slli	r2,r2,3
   8013c:	1885883a 	add	r2,r3,r2
   80140:	10c00017 	ldw	r3,0(r2)
   80144:	010002b4 	movhi	r4,10
   80148:	21086b04 	addi	r4,r4,8620
   8014c:	e0bffd17 	ldw	r2,-12(fp)
   80150:	100490fa 	slli	r2,r2,3
   80154:	2085883a 	add	r2,r4,r2
   80158:	10800104 	addi	r2,r2,4
   8015c:	10800017 	ldw	r2,0(r2)
   80160:	1009883a 	mov	r4,r2
   80164:	183ee83a 	callr	r3
   80168:	0001883a 	nop
   8016c:	0005313a 	rdctl	r2,ipending
   80170:	e0bfff15 	stw	r2,-4(fp)
   80174:	e0bfff17 	ldw	r2,-4(fp)
   80178:	e0bffb15 	stw	r2,-20(fp)
   8017c:	e0bffb17 	ldw	r2,-20(fp)
   80180:	103fe31e 	bne	r2,zero,80110 <alt_irq_handler+0x24>
   80184:	00000706 	br	801a4 <alt_irq_handler+0xb8>
   80188:	e0bffc17 	ldw	r2,-16(fp)
   8018c:	1085883a 	add	r2,r2,r2
   80190:	e0bffc15 	stw	r2,-16(fp)
   80194:	e0bffd17 	ldw	r2,-12(fp)
   80198:	10800044 	addi	r2,r2,1
   8019c:	e0bffd15 	stw	r2,-12(fp)
   801a0:	003fde06 	br	8011c <alt_irq_handler+0x30>
   801a4:	e037883a 	mov	sp,fp
   801a8:	dfc00117 	ldw	ra,4(sp)
   801ac:	df000017 	ldw	fp,0(sp)
   801b0:	dec00204 	addi	sp,sp,8
   801b4:	f800283a 	ret

Disassembly of section .text:

000801b8 <_start>:
   801b8:	06c00334 	movhi	sp,12
   801bc:	deec0014 	ori	sp,sp,45056
   801c0:	068002b4 	movhi	gp,10
   801c4:	d6956a14 	ori	gp,gp,21928
   801c8:	00800274 	movhi	r2,9
   801cc:	10bc6114 	ori	r2,r2,61828
   801d0:	00c002b4 	movhi	r3,10
   801d4:	18c90f14 	ori	r3,r3,9276
   801d8:	10c00326 	beq	r2,r3,801e8 <_start+0x30>
   801dc:	10000015 	stw	zero,0(r2)
   801e0:	10800104 	addi	r2,r2,4
   801e4:	10fffd36 	bltu	r2,r3,801dc <_start+0x24>
   801e8:	00906300 	call	90630 <alt_load>
   801ec:	00907d00 	call	907d0 <alt_main>

000801f0 <alt_after_alt_main>:
   801f0:	003fff06 	br	801f0 <alt_after_alt_main>

000801f4 <main>:
   801f4:	defff704 	addi	sp,sp,-36
   801f8:	dfc00815 	stw	ra,32(sp)
   801fc:	df000715 	stw	fp,28(sp)
   80200:	df000704 	addi	fp,sp,28
   80204:	e13ffd15 	stw	r4,-12(fp)
   80208:	e17ffe15 	stw	r5,-8(fp)
   8020c:	e1bfff15 	stw	r6,-4(fp)
   80210:	010002b4 	movhi	r4,10
   80214:	21245004 	addi	r4,r4,-28352
   80218:	0081b1c0 	call	81b1c <puts>
   8021c:	010002b4 	movhi	r4,10
   80220:	21245804 	addi	r4,r4,-28320
   80224:	00920c40 	call	920c4 <alt_avalon_sgdma_open>
   80228:	d0a70015 	stw	r2,-25600(gp)
   8022c:	d0a70017 	ldw	r2,-25600(gp)
   80230:	1000051e 	bne	r2,zero,80248 <main+0x54>
   80234:	010002b4 	movhi	r4,10
   80238:	21245c04 	addi	r4,r4,-28304
   8023c:	00908880 	call	90888 <alt_printf>
   80240:	00bfffc4 	movi	r2,-1
   80244:	0000eb06 	br	805f4 <main+0x400>
   80248:	010002b4 	movhi	r4,10
   8024c:	21246e04 	addi	r4,r4,-28232
   80250:	00908880 	call	90888 <alt_printf>
   80254:	010002b4 	movhi	r4,10
   80258:	21247c04 	addi	r4,r4,-28176
   8025c:	00920c40 	call	920c4 <alt_avalon_sgdma_open>
   80260:	d0a70715 	stw	r2,-25572(gp)
   80264:	d0a70717 	ldw	r2,-25572(gp)
   80268:	1000051e 	bne	r2,zero,80280 <main+0x8c>
   8026c:	010002b4 	movhi	r4,10
   80270:	21248004 	addi	r4,r4,-28160
   80274:	00908880 	call	90888 <alt_printf>
   80278:	00bfffc4 	movi	r2,-1
   8027c:	0000dd06 	br	805f4 <main+0x400>
   80280:	010002b4 	movhi	r4,10
   80284:	21249204 	addi	r4,r4,-28088
   80288:	00908880 	call	90888 <alt_printf>
   8028c:	010002b4 	movhi	r4,10
   80290:	21249f04 	addi	r4,r4,-28036
   80294:	0081b1c0 	call	81b1c <puts>
   80298:	d0a70717 	ldw	r2,-25572(gp)
   8029c:	1009883a 	mov	r4,r2
   802a0:	01400234 	movhi	r5,8
   802a4:	29418204 	addi	r5,r5,1544
   802a8:	01800504 	movi	r6,20
   802ac:	000f883a 	mov	r7,zero
   802b0:	0091f640 	call	91f64 <alt_avalon_sgdma_register_callback>
   802b4:	d8000015 	stw	zero,0(sp)
   802b8:	01000434 	movhi	r4,16
   802bc:	21041004 	addi	r4,r4,4160
   802c0:	01400434 	movhi	r5,16
   802c4:	29441804 	addi	r5,r5,4192
   802c8:	018002b4 	movhi	r6,10
   802cc:	31bc8104 	addi	r6,r6,-3580
   802d0:	000f883a 	mov	r7,zero
   802d4:	0091d900 	call	91d90 <alt_avalon_sgdma_construct_stream_to_mem_desc>
   802d8:	d0a70717 	ldw	r2,-25572(gp)
   802dc:	1009883a 	mov	r4,r2
   802e0:	01400434 	movhi	r5,16
   802e4:	29441004 	addi	r5,r5,4160
   802e8:	0091a6c0 	call	91a6c <alt_avalon_sgdma_do_async_transfer>
   802ec:	d0a70617 	ldw	r2,-25576(gp)
   802f0:	1009883a 	mov	r4,r2
   802f4:	01400434 	movhi	r5,16
   802f8:	29401004 	addi	r5,r5,64
   802fc:	0091a6c0 	call	91a6c <alt_avalon_sgdma_do_async_transfer>
   80300:	010002b4 	movhi	r4,10
   80304:	2124a404 	addi	r4,r4,-28016
   80308:	00920c40 	call	920c4 <alt_avalon_sgdma_open>
   8030c:	d0a70215 	stw	r2,-25592(gp)
   80310:	d0a70217 	ldw	r2,-25592(gp)
   80314:	1000051e 	bne	r2,zero,8032c <main+0x138>
   80318:	010002b4 	movhi	r4,10
   8031c:	2124a804 	addi	r4,r4,-28000
   80320:	00908880 	call	90888 <alt_printf>
   80324:	00bfffc4 	movi	r2,-1
   80328:	0000b206 	br	805f4 <main+0x400>
   8032c:	010002b4 	movhi	r4,10
   80330:	2124ba04 	addi	r4,r4,-27928
   80334:	00908880 	call	90888 <alt_printf>
   80338:	010002b4 	movhi	r4,10
   8033c:	2124c804 	addi	r4,r4,-27872
   80340:	00920c40 	call	920c4 <alt_avalon_sgdma_open>
   80344:	d0a70615 	stw	r2,-25576(gp)
   80348:	d0a70617 	ldw	r2,-25576(gp)
   8034c:	1000051e 	bne	r2,zero,80364 <main+0x170>
   80350:	010002b4 	movhi	r4,10
   80354:	2124cc04 	addi	r4,r4,-27856
   80358:	00908880 	call	90888 <alt_printf>
   8035c:	00bfffc4 	movi	r2,-1
   80360:	0000a406 	br	805f4 <main+0x400>
   80364:	010002b4 	movhi	r4,10
   80368:	2124de04 	addi	r4,r4,-27784
   8036c:	00908880 	call	90888 <alt_printf>
   80370:	010002b4 	movhi	r4,10
   80374:	21249f04 	addi	r4,r4,-28036
   80378:	0081b1c0 	call	81b1c <puts>
   8037c:	d0a70617 	ldw	r2,-25576(gp)
   80380:	1009883a 	mov	r4,r2
   80384:	01400234 	movhi	r5,8
   80388:	29423804 	addi	r5,r5,2272
   8038c:	01800504 	movi	r6,20
   80390:	000f883a 	mov	r7,zero
   80394:	0091f640 	call	91f64 <alt_avalon_sgdma_register_callback>
   80398:	d8000015 	stw	zero,0(sp)
   8039c:	01000434 	movhi	r4,16
   803a0:	21001004 	addi	r4,r4,64
   803a4:	01400434 	movhi	r5,16
   803a8:	29401804 	addi	r5,r5,96
   803ac:	018002b4 	movhi	r6,10
   803b0:	31bd8104 	addi	r6,r6,-2556
   803b4:	000f883a 	mov	r7,zero
   803b8:	0091d900 	call	91d90 <alt_avalon_sgdma_construct_stream_to_mem_desc>
   803bc:	d0a70617 	ldw	r2,-25576(gp)
   803c0:	1009883a 	mov	r4,r2
   803c4:	01400434 	movhi	r5,16
   803c8:	29401004 	addi	r5,r5,64
   803cc:	0091a6c0 	call	91a6c <alt_avalon_sgdma_do_async_transfer>
   803d0:	010002b4 	movhi	r4,10
   803d4:	2124eb04 	addi	r4,r4,-27732
   803d8:	0081b1c0 	call	81b1c <puts>
   803dc:	00800434 	movhi	r2,16
   803e0:	108d0004 	addi	r2,r2,13312
   803e4:	e0bffa15 	stw	r2,-24(fp)
   803e8:	00800434 	movhi	r2,16
   803ec:	108c0004 	addi	r2,r2,12288
   803f0:	e0bffb15 	stw	r2,-20(fp)
   803f4:	e0bffa17 	ldw	r2,-24(fp)
   803f8:	10800304 	addi	r2,r2,12
   803fc:	00c45bb4 	movhi	r3,4462
   80400:	18d80044 	addi	r3,r3,24577
   80404:	10c00015 	stw	r3,0(r2)
   80408:	e0bffa17 	ldw	r2,-24(fp)
   8040c:	10800404 	addi	r2,r2,16
   80410:	00c3c084 	movi	r3,3842
   80414:	10c00015 	stw	r3,0(r2)
   80418:	e0bffb17 	ldw	r2,-20(fp)
   8041c:	10800304 	addi	r2,r2,12
   80420:	00c45bb4 	movhi	r3,4462
   80424:	18d80044 	addi	r3,r3,24577
   80428:	10c00015 	stw	r3,0(r2)
   8042c:	e0bffb17 	ldw	r2,-20(fp)
   80430:	10800404 	addi	r2,r2,16
   80434:	00c3c044 	movi	r3,3841
   80438:	10c00015 	stw	r3,0(r2)
   8043c:	010002b4 	movhi	r4,10
   80440:	2124f104 	addi	r4,r4,-27708
   80444:	0081b1c0 	call	81b1c <puts>
   80448:	e0bffa17 	ldw	r2,-24(fp)
   8044c:	10800f04 	addi	r2,r2,60
   80450:	00c00404 	movi	r3,16
   80454:	10c00015 	stw	r3,0(r2)
   80458:	e0bffa17 	ldw	r2,-24(fp)
   8045c:	10801004 	addi	r2,r2,64
   80460:	00c00444 	movi	r3,17
   80464:	10c00015 	stw	r3,0(r2)
   80468:	e0bffa17 	ldw	r2,-24(fp)
   8046c:	10809404 	addi	r2,r2,592
   80470:	00d00004 	movi	r3,16384
   80474:	10c00015 	stw	r3,0(r2)
   80478:	e0bffa17 	ldw	r2,-24(fp)
   8047c:	10809004 	addi	r2,r2,576
   80480:	e0fffa17 	ldw	r3,-24(fp)
   80484:	18c09004 	addi	r3,r3,576
   80488:	18c00017 	ldw	r3,0(r3)
   8048c:	18c01814 	ori	r3,r3,96
   80490:	10c00015 	stw	r3,0(r2)
   80494:	e0bffa17 	ldw	r2,-24(fp)
   80498:	10809404 	addi	r2,r2,592
   8049c:	e0fffa17 	ldw	r3,-24(fp)
   804a0:	18c09404 	addi	r3,r3,592
   804a4:	18c00017 	ldw	r3,0(r3)
   804a8:	18c02094 	ori	r3,r3,130
   804ac:	10c00015 	stw	r3,0(r2)
   804b0:	e0bffa17 	ldw	r2,-24(fp)
   804b4:	10808004 	addi	r2,r2,512
   804b8:	e0fffa17 	ldw	r3,-24(fp)
   804bc:	18c08004 	addi	r3,r3,512
   804c0:	18c00017 	ldw	r3,0(r3)
   804c4:	18e00014 	ori	r3,r3,32768
   804c8:	10c00015 	stw	r3,0(r2)
   804cc:	0001883a 	nop
   804d0:	e0bffa17 	ldw	r2,-24(fp)
   804d4:	10808004 	addi	r2,r2,512
   804d8:	10800017 	ldw	r2,0(r2)
   804dc:	10a0000c 	andi	r2,r2,32768
   804e0:	103ffb1e 	bne	r2,zero,804d0 <main+0x2dc>
   804e4:	010002b4 	movhi	r4,10
   804e8:	2124f704 	addi	r4,r4,-27684
   804ec:	0081a380 	call	81a38 <printf>
   804f0:	e0bffa17 	ldw	r2,-24(fp)
   804f4:	10800204 	addi	r2,r2,8
   804f8:	e0fffa17 	ldw	r3,-24(fp)
   804fc:	18c00204 	addi	r3,r3,8
   80500:	19000017 	ldw	r4,0(r3)
   80504:	00c10034 	movhi	r3,1024
   80508:	18c07cc4 	addi	r3,r3,499
   8050c:	20c6b03a 	or	r3,r4,r3
   80510:	10c00015 	stw	r3,0(r2)
   80514:	010002b4 	movhi	r4,10
   80518:	2124fd04 	addi	r4,r4,-27660
   8051c:	00908880 	call	90888 <alt_printf>
   80520:	d0270115 	stw	zero,-25596(gp)
   80524:	00002806 	br	805c8 <main+0x3d4>
   80528:	e0bffc07 	ldb	r2,-16(fp)
   8052c:	10800218 	cmpnei	r2,r2,8
   80530:	1000111e 	bne	r2,zero,80578 <main+0x384>
   80534:	d0a70117 	ldw	r2,-25596(gp)
   80538:	10000f26 	beq	r2,zero,80578 <main+0x384>
   8053c:	e0bffc07 	ldb	r2,-16(fp)
   80540:	010002b4 	movhi	r4,10
   80544:	2124ff04 	addi	r4,r4,-27652
   80548:	100b883a 	mov	r5,r2
   8054c:	00908880 	call	90888 <alt_printf>
   80550:	d0a70117 	ldw	r2,-25596(gp)
   80554:	10bfffc4 	addi	r2,r2,-1
   80558:	d0a70115 	stw	r2,-25596(gp)
   8055c:	d0a70117 	ldw	r2,-25596(gp)
   80560:	10800404 	addi	r2,r2,16
   80564:	00c002b4 	movhi	r3,10
   80568:	18c71b04 	addi	r3,r3,7276
   8056c:	1885883a 	add	r2,r3,r2
   80570:	10000005 	stb	zero,0(r2)
   80574:	00001406 	br	805c8 <main+0x3d4>
   80578:	d0a70117 	ldw	r2,-25596(gp)
   8057c:	10800b68 	cmpgeui	r2,r2,45
   80580:	1000111e 	bne	r2,zero,805c8 <main+0x3d4>
   80584:	e03ffc45 	stb	zero,-15(fp)
   80588:	d0a70117 	ldw	r2,-25596(gp)
   8058c:	10800404 	addi	r2,r2,16
   80590:	e0fffc03 	ldbu	r3,-16(fp)
   80594:	010002b4 	movhi	r4,10
   80598:	21071b04 	addi	r4,r4,7276
   8059c:	2085883a 	add	r2,r4,r2
   805a0:	10c00005 	stb	r3,0(r2)
   805a4:	d0a70117 	ldw	r2,-25596(gp)
   805a8:	10800044 	addi	r2,r2,1
   805ac:	d0a70115 	stw	r2,-25596(gp)
   805b0:	d0a70117 	ldw	r2,-25596(gp)
   805b4:	10800404 	addi	r2,r2,16
   805b8:	00c002b4 	movhi	r3,10
   805bc:	18c71b04 	addi	r3,r3,7276
   805c0:	1885883a 	add	r2,r3,r2
   805c4:	10000005 	stb	zero,0(r2)
   805c8:	00904980 	call	90498 <alt_getchar>
   805cc:	e0bffc05 	stb	r2,-16(fp)
   805d0:	e0bffc07 	ldb	r2,-16(fp)
   805d4:	10800298 	cmpnei	r2,r2,10
   805d8:	103fd31e 	bne	r2,zero,80528 <main+0x334>
   805dc:	010002b4 	movhi	r4,10
   805e0:	21250004 	addi	r4,r4,-27648
   805e4:	00908880 	call	90888 <alt_printf>
   805e8:	d0270115 	stw	zero,-25596(gp)
   805ec:	0001883a 	nop
   805f0:	003ff506 	br	805c8 <main+0x3d4>
   805f4:	e037883a 	mov	sp,fp
   805f8:	dfc00117 	ldw	ra,4(sp)
   805fc:	df000017 	ldw	fp,0(sp)
   80600:	dec00204 	addi	sp,sp,8
   80604:	f800283a 	ret

00080608 <rx_ethernet_isr>:
   80608:	defff704 	addi	sp,sp,-36
   8060c:	dfc00815 	stw	ra,32(sp)
   80610:	df000715 	stw	fp,28(sp)
   80614:	df000704 	addi	fp,sp,28
   80618:	e13fff15 	stw	r4,-4(fp)
   8061c:	0001883a 	nop
   80620:	01000434 	movhi	r4,16
   80624:	21041004 	addi	r4,r4,4160
   80628:	00920600 	call	92060 <alt_avalon_sgdma_check_descriptor_status>
   8062c:	103ffc1e 	bne	r2,zero,80620 <rx_ethernet_isr+0x18>
   80630:	e03ffd15 	stw	zero,-12(fp)
   80634:	00000706 	br	80654 <rx_ethernet_isr+0x4c>
   80638:	010002b4 	movhi	r4,10
   8063c:	2124ff04 	addi	r4,r4,-27652
   80640:	01400204 	movi	r5,8
   80644:	00908880 	call	90888 <alt_printf>
   80648:	e0bffd17 	ldw	r2,-12(fp)
   8064c:	10800044 	addi	r2,r2,1
   80650:	e0bffd15 	stw	r2,-12(fp)
   80654:	e0fffd17 	ldw	r3,-12(fp)
   80658:	d0a70117 	ldw	r2,-25596(gp)
   8065c:	10800184 	addi	r2,r2,6
   80660:	18bff536 	bltu	r3,r2,80638 <rx_ethernet_isr+0x30>
   80664:	e03ffd15 	stw	zero,-12(fp)
   80668:	01000434 	movhi	r4,16
   8066c:	210d0004 	addi	r4,r4,13312
   80670:	009379c0 	call	9379c <alt_tse_mac_get_common_speed>
   80674:	e0bffe15 	stw	r2,-8(fp)
   80678:	010002b4 	movhi	r4,10
   8067c:	21250204 	addi	r4,r4,-27640
   80680:	e17ffe17 	ldw	r5,-8(fp)
   80684:	0081a380 	call	81a38 <printf>
   80688:	01000284 	movi	r4,10
   8068c:	0081a7c0 	call	81a7c <putchar>
   80690:	01000284 	movi	r4,10
   80694:	0081a7c0 	call	81a7c <putchar>
   80698:	010002b4 	movhi	r4,10
   8069c:	21250704 	addi	r4,r4,-27620
   806a0:	0081b1c0 	call	81b1c <puts>
   806a4:	00001706 	br	80704 <rx_ethernet_isr+0xfc>
   806a8:	00c002b4 	movhi	r3,10
   806ac:	18fc8104 	addi	r3,r3,-3580
   806b0:	e0bffd17 	ldw	r2,-12(fp)
   806b4:	1885883a 	add	r2,r3,r2
   806b8:	10800003 	ldbu	r2,0(r2)
   806bc:	10803fcc 	andi	r2,r2,255
   806c0:	010002b4 	movhi	r4,10
   806c4:	21250b04 	addi	r4,r4,-27604
   806c8:	100b883a 	mov	r5,r2
   806cc:	00908880 	call	90888 <alt_printf>
   806d0:	e0bffd17 	ldw	r2,-12(fp)
   806d4:	10800044 	addi	r2,r2,1
   806d8:	e0bffd15 	stw	r2,-12(fp)
   806dc:	00c002b4 	movhi	r3,10
   806e0:	18fc8104 	addi	r3,r3,-3580
   806e4:	e0bffd17 	ldw	r2,-12(fp)
   806e8:	1885883a 	add	r2,r3,r2
   806ec:	10800003 	ldbu	r2,0(r2)
   806f0:	10803fcc 	andi	r2,r2,255
   806f4:	10800298 	cmpnei	r2,r2,10
   806f8:	1000021e 	bne	r2,zero,80704 <rx_ethernet_isr+0xfc>
   806fc:	00810004 	movi	r2,1024
   80700:	e0bffd15 	stw	r2,-12(fp)
   80704:	e0bffd17 	ldw	r2,-12(fp)
   80708:	10805590 	cmplti	r2,r2,342
   8070c:	103fe61e 	bne	r2,zero,806a8 <rx_ethernet_isr+0xa0>
   80710:	e03ffd15 	stw	zero,-12(fp)
   80714:	00000906 	br	8073c <rx_ethernet_isr+0x134>
   80718:	00c002b4 	movhi	r3,10
   8071c:	18c71b04 	addi	r3,r3,7276
   80720:	e0bffd17 	ldw	r2,-12(fp)
   80724:	1885883a 	add	r2,r3,r2
   80728:	00ffffc4 	movi	r3,-1
   8072c:	10c00005 	stb	r3,0(r2)
   80730:	e0bffd17 	ldw	r2,-12(fp)
   80734:	10800044 	addi	r2,r2,1
   80738:	e0bffd15 	stw	r2,-12(fp)
   8073c:	e0bffd17 	ldw	r2,-12(fp)
   80740:	10800190 	cmplti	r2,r2,6
   80744:	103ff41e 	bne	r2,zero,80718 <rx_ethernet_isr+0x110>
   80748:	008002b4 	movhi	r2,10
   8074c:	10871b04 	addi	r2,r2,7276
   80750:	00c00044 	movi	r3,1
   80754:	10c00185 	stb	r3,6(r2)
   80758:	008002b4 	movhi	r2,10
   8075c:	10871b04 	addi	r2,r2,7276
   80760:	00c01804 	movi	r3,96
   80764:	10c001c5 	stb	r3,7(r2)
   80768:	008002b4 	movhi	r2,10
   8076c:	10871b04 	addi	r2,r2,7276
   80770:	00c01b84 	movi	r3,110
   80774:	10c00205 	stb	r3,8(r2)
   80778:	008002b4 	movhi	r2,10
   8077c:	10871b04 	addi	r2,r2,7276
   80780:	00c00444 	movi	r3,17
   80784:	10c00245 	stb	r3,9(r2)
   80788:	008002b4 	movhi	r2,10
   8078c:	10871b04 	addi	r2,r2,7276
   80790:	00c00084 	movi	r3,2
   80794:	10c00285 	stb	r3,10(r2)
   80798:	008002b4 	movhi	r2,10
   8079c:	10871b04 	addi	r2,r2,7276
   807a0:	00c003c4 	movi	r3,15
   807a4:	10c002c5 	stb	r3,11(r2)
   807a8:	008002b4 	movhi	r2,10
   807ac:	10871b04 	addi	r2,r2,7276
   807b0:	00c00204 	movi	r3,8
   807b4:	10c00305 	stb	r3,12(r2)
   807b8:	008002b4 	movhi	r2,10
   807bc:	10871b04 	addi	r2,r2,7276
   807c0:	10000345 	stb	zero,13(r2)
   807c4:	00800384 	movi	r2,14
   807c8:	e0bffd15 	stw	r2,-12(fp)
   807cc:	00000e06 	br	80808 <rx_ethernet_isr+0x200>
   807d0:	e0bffd17 	ldw	r2,-12(fp)
   807d4:	10800044 	addi	r2,r2,1
   807d8:	00c002b4 	movhi	r3,10
   807dc:	18fc8104 	addi	r3,r3,-3580
   807e0:	1885883a 	add	r2,r3,r2
   807e4:	10c00003 	ldbu	r3,0(r2)
   807e8:	010002b4 	movhi	r4,10
   807ec:	21071b04 	addi	r4,r4,7276
   807f0:	e0bffd17 	ldw	r2,-12(fp)
   807f4:	2085883a 	add	r2,r4,r2
   807f8:	10c00005 	stb	r3,0(r2)
   807fc:	e0bffd17 	ldw	r2,-12(fp)
   80800:	10800044 	addi	r2,r2,1
   80804:	e0bffd15 	stw	r2,-12(fp)
   80808:	e0bffd17 	ldw	r2,-12(fp)
   8080c:	10801610 	cmplti	r2,r2,88
   80810:	103fef1e 	bne	r2,zero,807d0 <rx_ethernet_isr+0x1c8>
   80814:	008002b4 	movhi	r2,10
   80818:	10871b04 	addi	r2,r2,7276
   8081c:	10001605 	stb	zero,88(r2)
   80820:	d8000015 	stw	zero,0(sp)
   80824:	00800044 	movi	r2,1
   80828:	d8800115 	stw	r2,4(sp)
   8082c:	00800044 	movi	r2,1
   80830:	d8800215 	stw	r2,8(sp)
   80834:	d8000315 	stw	zero,12(sp)
   80838:	01000434 	movhi	r4,16
   8083c:	21040004 	addi	r4,r4,4096
   80840:	01400434 	movhi	r5,16
   80844:	29440804 	addi	r5,r5,4128
   80848:	018002b4 	movhi	r6,10
   8084c:	31871b04 	addi	r6,r6,7276
   80850:	01c01704 	movi	r7,92
   80854:	0091e600 	call	91e60 <alt_avalon_sgdma_construct_mem_to_stream_desc>
   80858:	d0a70017 	ldw	r2,-25600(gp)
   8085c:	1009883a 	mov	r4,r2
   80860:	01400434 	movhi	r5,16
   80864:	29440004 	addi	r5,r5,4096
   80868:	0091a6c0 	call	91a6c <alt_avalon_sgdma_do_async_transfer>
   8086c:	0001883a 	nop
   80870:	01000434 	movhi	r4,16
   80874:	21040004 	addi	r4,r4,4096
   80878:	00920600 	call	92060 <alt_avalon_sgdma_check_descriptor_status>
   8087c:	103ffc1e 	bne	r2,zero,80870 <rx_ethernet_isr+0x268>
   80880:	d8000015 	stw	zero,0(sp)
   80884:	01000434 	movhi	r4,16
   80888:	21041004 	addi	r4,r4,4160
   8088c:	01400434 	movhi	r5,16
   80890:	29441804 	addi	r5,r5,4192
   80894:	018002b4 	movhi	r6,10
   80898:	31bc8104 	addi	r6,r6,-3580
   8089c:	000f883a 	mov	r7,zero
   808a0:	0091d900 	call	91d90 <alt_avalon_sgdma_construct_stream_to_mem_desc>
   808a4:	d0a70717 	ldw	r2,-25572(gp)
   808a8:	1009883a 	mov	r4,r2
   808ac:	01400434 	movhi	r5,16
   808b0:	29441004 	addi	r5,r5,4160
   808b4:	0091a6c0 	call	91a6c <alt_avalon_sgdma_do_async_transfer>
   808b8:	01000284 	movi	r4,10
   808bc:	0081a7c0 	call	81a7c <putchar>
   808c0:	010002b4 	movhi	r4,10
   808c4:	21250c04 	addi	r4,r4,-27600
   808c8:	0081b1c0 	call	81b1c <puts>
   808cc:	e037883a 	mov	sp,fp
   808d0:	dfc00117 	ldw	ra,4(sp)
   808d4:	df000017 	ldw	fp,0(sp)
   808d8:	dec00204 	addi	sp,sp,8
   808dc:	f800283a 	ret

000808e0 <rx_ethernet_isr1>:
   808e0:	defffb04 	addi	sp,sp,-20
   808e4:	dfc00415 	stw	ra,16(sp)
   808e8:	df000315 	stw	fp,12(sp)
   808ec:	df000304 	addi	fp,sp,12
   808f0:	e13fff15 	stw	r4,-4(fp)
   808f4:	0001883a 	nop
   808f8:	01000434 	movhi	r4,16
   808fc:	21001004 	addi	r4,r4,64
   80900:	00920600 	call	92060 <alt_avalon_sgdma_check_descriptor_status>
   80904:	103ffc1e 	bne	r2,zero,808f8 <rx_ethernet_isr1+0x18>
   80908:	e03ffe15 	stw	zero,-8(fp)
   8090c:	00000706 	br	8092c <rx_ethernet_isr1+0x4c>
   80910:	010002b4 	movhi	r4,10
   80914:	2124ff04 	addi	r4,r4,-27652
   80918:	01400204 	movi	r5,8
   8091c:	00908880 	call	90888 <alt_printf>
   80920:	e0bffe17 	ldw	r2,-8(fp)
   80924:	10800044 	addi	r2,r2,1
   80928:	e0bffe15 	stw	r2,-8(fp)
   8092c:	e0fffe17 	ldw	r3,-8(fp)
   80930:	d0a70117 	ldw	r2,-25596(gp)
   80934:	10800184 	addi	r2,r2,6
   80938:	18bff536 	bltu	r3,r2,80910 <rx_ethernet_isr1+0x30>
   8093c:	e03ffe15 	stw	zero,-8(fp)
   80940:	00000d06 	br	80978 <rx_ethernet_isr1+0x98>
   80944:	00c002b4 	movhi	r3,10
   80948:	18fd8104 	addi	r3,r3,-2556
   8094c:	e0bffe17 	ldw	r2,-8(fp)
   80950:	1885883a 	add	r2,r3,r2
   80954:	10800003 	ldbu	r2,0(r2)
   80958:	10803fcc 	andi	r2,r2,255
   8095c:	010002b4 	movhi	r4,10
   80960:	2124ff04 	addi	r4,r4,-27652
   80964:	100b883a 	mov	r5,r2
   80968:	00908880 	call	90888 <alt_printf>
   8096c:	e0bffe17 	ldw	r2,-8(fp)
   80970:	10800044 	addi	r2,r2,1
   80974:	e0bffe15 	stw	r2,-8(fp)
   80978:	00c002b4 	movhi	r3,10
   8097c:	18fd8104 	addi	r3,r3,-2556
   80980:	e0bffe17 	ldw	r2,-8(fp)
   80984:	1885883a 	add	r2,r3,r2
   80988:	10800003 	ldbu	r2,0(r2)
   8098c:	10803fcc 	andi	r2,r2,255
   80990:	103fec1e 	bne	r2,zero,80944 <rx_ethernet_isr1+0x64>
   80994:	d8000015 	stw	zero,0(sp)
   80998:	01000434 	movhi	r4,16
   8099c:	21001004 	addi	r4,r4,64
   809a0:	01400434 	movhi	r5,16
   809a4:	29401804 	addi	r5,r5,96
   809a8:	018002b4 	movhi	r6,10
   809ac:	31bd8104 	addi	r6,r6,-2556
   809b0:	000f883a 	mov	r7,zero
   809b4:	0091d900 	call	91d90 <alt_avalon_sgdma_construct_stream_to_mem_desc>
   809b8:	d0a70617 	ldw	r2,-25576(gp)
   809bc:	1009883a 	mov	r4,r2
   809c0:	01400434 	movhi	r5,16
   809c4:	29401004 	addi	r5,r5,64
   809c8:	0091a6c0 	call	91a6c <alt_avalon_sgdma_do_async_transfer>
   809cc:	e037883a 	mov	sp,fp
   809d0:	dfc00117 	ldw	ra,4(sp)
   809d4:	df000017 	ldw	fp,0(sp)
   809d8:	dec00204 	addi	sp,sp,8
   809dc:	f800283a 	ret

000809e0 <init_3des>:
   809e0:	defffb04 	addi	sp,sp,-20
   809e4:	df000415 	stw	fp,16(sp)
   809e8:	df000404 	addi	fp,sp,16
   809ec:	e13ffc15 	stw	r4,-16(fp)
   809f0:	e17ffd15 	stw	r5,-12(fp)
   809f4:	e1bffe15 	stw	r6,-8(fp)
   809f8:	e1ffff15 	stw	r7,-4(fp)
   809fc:	e0fffc17 	ldw	r3,-16(fp)
   80a00:	00800434 	movhi	r2,16
   80a04:	108f2004 	addi	r2,r2,15488
   80a08:	10c00035 	stwio	r3,0(r2)
   80a0c:	e0fffd17 	ldw	r3,-12(fp)
   80a10:	00800434 	movhi	r2,16
   80a14:	108f2104 	addi	r2,r2,15492
   80a18:	10c00035 	stwio	r3,0(r2)
   80a1c:	e0fffe17 	ldw	r3,-8(fp)
   80a20:	00800434 	movhi	r2,16
   80a24:	108f2204 	addi	r2,r2,15496
   80a28:	10c00035 	stwio	r3,0(r2)
   80a2c:	e0ffff17 	ldw	r3,-4(fp)
   80a30:	00800434 	movhi	r2,16
   80a34:	108f2304 	addi	r2,r2,15500
   80a38:	10c00035 	stwio	r3,0(r2)
   80a3c:	e0c00117 	ldw	r3,4(fp)
   80a40:	00800434 	movhi	r2,16
   80a44:	108f2404 	addi	r2,r2,15504
   80a48:	10c00035 	stwio	r3,0(r2)
   80a4c:	e0c00217 	ldw	r3,8(fp)
   80a50:	00800434 	movhi	r2,16
   80a54:	108f2504 	addi	r2,r2,15508
   80a58:	10c00035 	stwio	r3,0(r2)
   80a5c:	e037883a 	mov	sp,fp
   80a60:	df000017 	ldw	fp,0(sp)
   80a64:	dec00104 	addi	sp,sp,4
   80a68:	f800283a 	ret

00080a6c <init_3desdecrypt>:
   80a6c:	defffb04 	addi	sp,sp,-20
   80a70:	df000415 	stw	fp,16(sp)
   80a74:	df000404 	addi	fp,sp,16
   80a78:	e13ffc15 	stw	r4,-16(fp)
   80a7c:	e17ffd15 	stw	r5,-12(fp)
   80a80:	e1bffe15 	stw	r6,-8(fp)
   80a84:	e1ffff15 	stw	r7,-4(fp)
   80a88:	e0fffc17 	ldw	r3,-16(fp)
   80a8c:	00800434 	movhi	r2,16
   80a90:	108f0004 	addi	r2,r2,15360
   80a94:	10c00035 	stwio	r3,0(r2)
   80a98:	e0fffd17 	ldw	r3,-12(fp)
   80a9c:	00800434 	movhi	r2,16
   80aa0:	108f0104 	addi	r2,r2,15364
   80aa4:	10c00035 	stwio	r3,0(r2)
   80aa8:	e0fffe17 	ldw	r3,-8(fp)
   80aac:	00800434 	movhi	r2,16
   80ab0:	108f0204 	addi	r2,r2,15368
   80ab4:	10c00035 	stwio	r3,0(r2)
   80ab8:	e0ffff17 	ldw	r3,-4(fp)
   80abc:	00800434 	movhi	r2,16
   80ac0:	108f0304 	addi	r2,r2,15372
   80ac4:	10c00035 	stwio	r3,0(r2)
   80ac8:	e0c00117 	ldw	r3,4(fp)
   80acc:	00800434 	movhi	r2,16
   80ad0:	108f0404 	addi	r2,r2,15376
   80ad4:	10c00035 	stwio	r3,0(r2)
   80ad8:	e0c00217 	ldw	r3,8(fp)
   80adc:	00800434 	movhi	r2,16
   80ae0:	108f0504 	addi	r2,r2,15380
   80ae4:	10c00035 	stwio	r3,0(r2)
   80ae8:	e037883a 	mov	sp,fp
   80aec:	df000017 	ldw	fp,0(sp)
   80af0:	dec00104 	addi	sp,sp,4
   80af4:	f800283a 	ret

00080af8 <ciph_3des>:
   80af8:	defffd04 	addi	sp,sp,-12
   80afc:	df000215 	stw	fp,8(sp)
   80b00:	df000204 	addi	fp,sp,8
   80b04:	e13ffe15 	stw	r4,-8(fp)
   80b08:	e17fff15 	stw	r5,-4(fp)
   80b0c:	e0fffe17 	ldw	r3,-8(fp)
   80b10:	00800434 	movhi	r2,16
   80b14:	108f2604 	addi	r2,r2,15512
   80b18:	10c00035 	stwio	r3,0(r2)
   80b1c:	e0ffff17 	ldw	r3,-4(fp)
   80b20:	00800434 	movhi	r2,16
   80b24:	108f2704 	addi	r2,r2,15516
   80b28:	10c00035 	stwio	r3,0(r2)
   80b2c:	00ffffc4 	movi	r3,-1
   80b30:	00800434 	movhi	r2,16
   80b34:	108f2904 	addi	r2,r2,15524
   80b38:	10c00035 	stwio	r3,0(r2)
   80b3c:	0007883a 	mov	r3,zero
   80b40:	00800434 	movhi	r2,16
   80b44:	108f2904 	addi	r2,r2,15524
   80b48:	10c00035 	stwio	r3,0(r2)
   80b4c:	e037883a 	mov	sp,fp
   80b50:	df000017 	ldw	fp,0(sp)
   80b54:	dec00104 	addi	sp,sp,4
   80b58:	f800283a 	ret

00080b5c <deciph_3des>:
   80b5c:	defffd04 	addi	sp,sp,-12
   80b60:	df000215 	stw	fp,8(sp)
   80b64:	df000204 	addi	fp,sp,8
   80b68:	e13ffe15 	stw	r4,-8(fp)
   80b6c:	e17fff15 	stw	r5,-4(fp)
   80b70:	e0fffe17 	ldw	r3,-8(fp)
   80b74:	00800434 	movhi	r2,16
   80b78:	108f0604 	addi	r2,r2,15384
   80b7c:	10c00035 	stwio	r3,0(r2)
   80b80:	e0ffff17 	ldw	r3,-4(fp)
   80b84:	00800434 	movhi	r2,16
   80b88:	108f0704 	addi	r2,r2,15388
   80b8c:	10c00035 	stwio	r3,0(r2)
   80b90:	00ffffc4 	movi	r3,-1
   80b94:	00800434 	movhi	r2,16
   80b98:	108f0904 	addi	r2,r2,15396
   80b9c:	10c00035 	stwio	r3,0(r2)
   80ba0:	0007883a 	mov	r3,zero
   80ba4:	00800434 	movhi	r2,16
   80ba8:	108f0904 	addi	r2,r2,15396
   80bac:	10c00035 	stwio	r3,0(r2)
   80bb0:	e037883a 	mov	sp,fp
   80bb4:	df000017 	ldw	fp,0(sp)
   80bb8:	dec00104 	addi	sp,sp,4
   80bbc:	f800283a 	ret

00080bc0 <ciph_3des_read>:
   80bc0:	defffd04 	addi	sp,sp,-12
   80bc4:	df000215 	stw	fp,8(sp)
   80bc8:	df000204 	addi	fp,sp,8
   80bcc:	e13ffe15 	stw	r4,-8(fp)
   80bd0:	e17fff15 	stw	r5,-4(fp)
   80bd4:	00800434 	movhi	r2,16
   80bd8:	108f3004 	addi	r2,r2,15552
   80bdc:	10800037 	ldwio	r2,0(r2)
   80be0:	1007883a 	mov	r3,r2
   80be4:	e0bffe17 	ldw	r2,-8(fp)
   80be8:	10c00015 	stw	r3,0(r2)
   80bec:	00800434 	movhi	r2,16
   80bf0:	108f3104 	addi	r2,r2,15556
   80bf4:	10800037 	ldwio	r2,0(r2)
   80bf8:	1007883a 	mov	r3,r2
   80bfc:	e0bfff17 	ldw	r2,-4(fp)
   80c00:	10c00015 	stw	r3,0(r2)
   80c04:	e037883a 	mov	sp,fp
   80c08:	df000017 	ldw	fp,0(sp)
   80c0c:	dec00104 	addi	sp,sp,4
   80c10:	f800283a 	ret

00080c14 <deciph_3des_read>:
   80c14:	defffd04 	addi	sp,sp,-12
   80c18:	df000215 	stw	fp,8(sp)
   80c1c:	df000204 	addi	fp,sp,8
   80c20:	e13ffe15 	stw	r4,-8(fp)
   80c24:	e17fff15 	stw	r5,-4(fp)
   80c28:	00800434 	movhi	r2,16
   80c2c:	108f1004 	addi	r2,r2,15424
   80c30:	10800037 	ldwio	r2,0(r2)
   80c34:	1007883a 	mov	r3,r2
   80c38:	e0bffe17 	ldw	r2,-8(fp)
   80c3c:	10c00015 	stw	r3,0(r2)
   80c40:	00800434 	movhi	r2,16
   80c44:	108f1104 	addi	r2,r2,15428
   80c48:	10800037 	ldwio	r2,0(r2)
   80c4c:	1007883a 	mov	r3,r2
   80c50:	e0bfff17 	ldw	r2,-4(fp)
   80c54:	10c00015 	stw	r3,0(r2)
   80c58:	e037883a 	mov	sp,fp
   80c5c:	df000017 	ldw	fp,0(sp)
   80c60:	dec00104 	addi	sp,sp,4
   80c64:	f800283a 	ret

00080c68 <weryfikacja_szyfrowania>:
   80c68:	defffc04 	addi	sp,sp,-16
   80c6c:	dfc00315 	stw	ra,12(sp)
   80c70:	df000215 	stw	fp,8(sp)
   80c74:	df000204 	addi	fp,sp,8
   80c78:	00915a34 	movhi	r2,17768
   80c7c:	10a26ac4 	addi	r2,r2,-30293
   80c80:	d8800015 	stw	r2,0(sp)
   80c84:	00b37bf4 	movhi	r2,52719
   80c88:	108048c4 	addi	r2,r2,291
   80c8c:	d8800115 	stw	r2,4(sp)
   80c90:	010048f4 	movhi	r4,291
   80c94:	211159c4 	addi	r4,r4,17767
   80c98:	01626b34 	movhi	r5,35244
   80c9c:	29737bc4 	addi	r5,r5,-12817
   80ca0:	0188d174 	movhi	r6,9029
   80ca4:	3199e244 	addi	r6,r6,26505
   80ca8:	01eaf3b4 	movhi	r7,43982
   80cac:	39fbc044 	addi	r7,r7,-4351
   80cb0:	00809e00 	call	809e0 <init_3des>
   80cb4:	01151a34 	movhi	r4,21608
   80cb8:	21194804 	addi	r4,r4,25888
   80cbc:	015c5d74 	movhi	r5,29045
   80cc0:	295998c4 	addi	r5,r5,26211
   80cc4:	0080af80 	call	80af8 <ciph_3des>
   80cc8:	010002b4 	movhi	r4,10
   80ccc:	21251204 	addi	r4,r4,-27576
   80cd0:	0081b1c0 	call	81b1c <puts>
   80cd4:	d126fd04 	addi	r4,gp,-25612
   80cd8:	d166fe04 	addi	r5,gp,-25608
   80cdc:	0080bc00 	call	80bc0 <ciph_3des_read>
   80ce0:	d0e6fd17 	ldw	r3,-25612(gp)
   80ce4:	d0a6fe17 	ldw	r2,-25608(gp)
   80ce8:	010002b4 	movhi	r4,10
   80cec:	21252004 	addi	r4,r4,-27520
   80cf0:	180b883a 	mov	r5,r3
   80cf4:	100d883a 	mov	r6,r2
   80cf8:	0081a380 	call	81a38 <printf>
   80cfc:	e037883a 	mov	sp,fp
   80d00:	dfc00117 	ldw	ra,4(sp)
   80d04:	df000017 	ldw	fp,0(sp)
   80d08:	dec00204 	addi	sp,sp,8
   80d0c:	f800283a 	ret

00080d10 <weryfikacja_deszyfrowania>:
   80d10:	defffa04 	addi	sp,sp,-24
   80d14:	dfc00515 	stw	ra,20(sp)
   80d18:	df000415 	stw	fp,16(sp)
   80d1c:	df000404 	addi	fp,sp,16
   80d20:	00915a34 	movhi	r2,17768
   80d24:	10a26ac4 	addi	r2,r2,-30293
   80d28:	d8800015 	stw	r2,0(sp)
   80d2c:	00b37bf4 	movhi	r2,52719
   80d30:	108048c4 	addi	r2,r2,291
   80d34:	d8800115 	stw	r2,4(sp)
   80d38:	010048f4 	movhi	r4,291
   80d3c:	211159c4 	addi	r4,r4,17767
   80d40:	01626b34 	movhi	r5,35244
   80d44:	29737bc4 	addi	r5,r5,-12817
   80d48:	0188d174 	movhi	r6,9029
   80d4c:	3199e244 	addi	r6,r6,26505
   80d50:	01eaf3b4 	movhi	r7,43982
   80d54:	39fbc044 	addi	r7,r7,-4351
   80d58:	0080a6c0 	call	80a6c <init_3desdecrypt>
   80d5c:	d0e6fd17 	ldw	r3,-25612(gp)
   80d60:	d0a6fe17 	ldw	r2,-25608(gp)
   80d64:	1809883a 	mov	r4,r3
   80d68:	100b883a 	mov	r5,r2
   80d6c:	0080b5c0 	call	80b5c <deciph_3des>
   80d70:	010002b4 	movhi	r4,10
   80d74:	21252804 	addi	r4,r4,-27488
   80d78:	0081b1c0 	call	81b1c <puts>
   80d7c:	e0bfff04 	addi	r2,fp,-4
   80d80:	e13ffe04 	addi	r4,fp,-8
   80d84:	100b883a 	mov	r5,r2
   80d88:	0080c140 	call	80c14 <deciph_3des_read>
   80d8c:	e0fffe17 	ldw	r3,-8(fp)
   80d90:	e0bfff17 	ldw	r2,-4(fp)
   80d94:	010002b4 	movhi	r4,10
   80d98:	21253704 	addi	r4,r4,-27428
   80d9c:	180b883a 	mov	r5,r3
   80da0:	100d883a 	mov	r6,r2
   80da4:	0081a380 	call	81a38 <printf>
   80da8:	e037883a 	mov	sp,fp
   80dac:	dfc00117 	ldw	ra,4(sp)
   80db0:	df000017 	ldw	fp,0(sp)
   80db4:	dec00204 	addi	sp,sp,8
   80db8:	f800283a 	ret

00080dbc <test_wydajnosc>:
   80dbc:	defffb04 	addi	sp,sp,-20
   80dc0:	dfc00415 	stw	ra,16(sp)
   80dc4:	df000315 	stw	fp,12(sp)
   80dc8:	df000304 	addi	fp,sp,12
   80dcc:	010002b4 	movhi	r4,10
   80dd0:	21254004 	addi	r4,r4,-27392
   80dd4:	0081b1c0 	call	81b1c <puts>
   80dd8:	00c00044 	movi	r3,1
   80ddc:	00800434 	movhi	r2,16
   80de0:	108f6004 	addi	r2,r2,15744
   80de4:	10c00035 	stwio	r3,0(r2)
   80de8:	0007883a 	mov	r3,zero
   80dec:	00800434 	movhi	r2,16
   80df0:	108f6104 	addi	r2,r2,15748
   80df4:	10c00035 	stwio	r3,0(r2)
   80df8:	e03ffe15 	stw	zero,-8(fp)
   80dfc:	e03fff15 	stw	zero,-4(fp)
   80e00:	0007883a 	mov	r3,zero
   80e04:	00800434 	movhi	r2,16
   80e08:	108f6904 	addi	r2,r2,15780
   80e0c:	10c00035 	stwio	r3,0(r2)
   80e10:	00002f06 	br	80ed0 <test_wydajnosc+0x114>
   80e14:	e0bffe17 	ldw	r2,-8(fp)
   80e18:	1085883a 	add	r2,r2,r2
   80e1c:	00c002b4 	movhi	r3,10
   80e20:	18fe8104 	addi	r3,r3,-1532
   80e24:	1085883a 	add	r2,r2,r2
   80e28:	1085883a 	add	r2,r2,r2
   80e2c:	1885883a 	add	r2,r3,r2
   80e30:	10c00017 	ldw	r3,0(r2)
   80e34:	e0bffe17 	ldw	r2,-8(fp)
   80e38:	1085883a 	add	r2,r2,r2
   80e3c:	10800044 	addi	r2,r2,1
   80e40:	010002b4 	movhi	r4,10
   80e44:	213e8104 	addi	r4,r4,-1532
   80e48:	1085883a 	add	r2,r2,r2
   80e4c:	1085883a 	add	r2,r2,r2
   80e50:	2085883a 	add	r2,r4,r2
   80e54:	10800017 	ldw	r2,0(r2)
   80e58:	1809883a 	mov	r4,r3
   80e5c:	100b883a 	mov	r5,r2
   80e60:	0080b5c0 	call	80b5c <deciph_3des>
   80e64:	e0bfff17 	ldw	r2,-4(fp)
   80e68:	10bfffc4 	addi	r2,r2,-1
   80e6c:	e0bfff15 	stw	r2,-4(fp)
   80e70:	e0bfff17 	ldw	r2,-4(fp)
   80e74:	10800044 	addi	r2,r2,1
   80e78:	e0bfff15 	stw	r2,-4(fp)
   80e7c:	e0bffe17 	ldw	r2,-8(fp)
   80e80:	1085883a 	add	r2,r2,r2
   80e84:	1085883a 	add	r2,r2,r2
   80e88:	1087883a 	add	r3,r2,r2
   80e8c:	008002b4 	movhi	r2,10
   80e90:	10828104 	addi	r2,r2,2564
   80e94:	1887883a 	add	r3,r3,r2
   80e98:	e0bffe17 	ldw	r2,-8(fp)
   80e9c:	1085883a 	add	r2,r2,r2
   80ea0:	10800044 	addi	r2,r2,1
   80ea4:	1085883a 	add	r2,r2,r2
   80ea8:	1089883a 	add	r4,r2,r2
   80eac:	008002b4 	movhi	r2,10
   80eb0:	10828104 	addi	r2,r2,2564
   80eb4:	2085883a 	add	r2,r4,r2
   80eb8:	1809883a 	mov	r4,r3
   80ebc:	100b883a 	mov	r5,r2
   80ec0:	0080c140 	call	80c14 <deciph_3des_read>
   80ec4:	e0bffe17 	ldw	r2,-8(fp)
   80ec8:	10800044 	addi	r2,r2,1
   80ecc:	e0bffe15 	stw	r2,-8(fp)
   80ed0:	e0bffe17 	ldw	r2,-8(fp)
   80ed4:	10808010 	cmplti	r2,r2,512
   80ed8:	103fce1e 	bne	r2,zero,80e14 <test_wydajnosc+0x58>
   80edc:	0007883a 	mov	r3,zero
   80ee0:	00800434 	movhi	r2,16
   80ee4:	108f6804 	addi	r2,r2,15776
   80ee8:	10c00035 	stwio	r3,0(r2)
   80eec:	e03ffe15 	stw	zero,-8(fp)
   80ef0:	0007883a 	mov	r3,zero
   80ef4:	00800434 	movhi	r2,16
   80ef8:	108f6504 	addi	r2,r2,15764
   80efc:	10c00035 	stwio	r3,0(r2)
   80f00:	00002f06 	br	80fc0 <test_wydajnosc+0x204>
   80f04:	e0bffe17 	ldw	r2,-8(fp)
   80f08:	1085883a 	add	r2,r2,r2
   80f0c:	00c002b4 	movhi	r3,10
   80f10:	18fe8104 	addi	r3,r3,-1532
   80f14:	1085883a 	add	r2,r2,r2
   80f18:	1085883a 	add	r2,r2,r2
   80f1c:	1885883a 	add	r2,r3,r2
   80f20:	10c00017 	ldw	r3,0(r2)
   80f24:	e0bffe17 	ldw	r2,-8(fp)
   80f28:	1085883a 	add	r2,r2,r2
   80f2c:	10800044 	addi	r2,r2,1
   80f30:	010002b4 	movhi	r4,10
   80f34:	213e8104 	addi	r4,r4,-1532
   80f38:	1085883a 	add	r2,r2,r2
   80f3c:	1085883a 	add	r2,r2,r2
   80f40:	2085883a 	add	r2,r4,r2
   80f44:	10800017 	ldw	r2,0(r2)
   80f48:	1809883a 	mov	r4,r3
   80f4c:	100b883a 	mov	r5,r2
   80f50:	0080af80 	call	80af8 <ciph_3des>
   80f54:	e0bfff17 	ldw	r2,-4(fp)
   80f58:	10bfffc4 	addi	r2,r2,-1
   80f5c:	e0bfff15 	stw	r2,-4(fp)
   80f60:	e0bfff17 	ldw	r2,-4(fp)
   80f64:	10800044 	addi	r2,r2,1
   80f68:	e0bfff15 	stw	r2,-4(fp)
   80f6c:	e0bffe17 	ldw	r2,-8(fp)
   80f70:	1085883a 	add	r2,r2,r2
   80f74:	1085883a 	add	r2,r2,r2
   80f78:	1087883a 	add	r3,r2,r2
   80f7c:	008002b4 	movhi	r2,10
   80f80:	10828104 	addi	r2,r2,2564
   80f84:	1887883a 	add	r3,r3,r2
   80f88:	e0bffe17 	ldw	r2,-8(fp)
   80f8c:	1085883a 	add	r2,r2,r2
   80f90:	10800044 	addi	r2,r2,1
   80f94:	1085883a 	add	r2,r2,r2
   80f98:	1089883a 	add	r4,r2,r2
   80f9c:	008002b4 	movhi	r2,10
   80fa0:	10828104 	addi	r2,r2,2564
   80fa4:	2085883a 	add	r2,r4,r2
   80fa8:	1809883a 	mov	r4,r3
   80fac:	100b883a 	mov	r5,r2
   80fb0:	0080bc00 	call	80bc0 <ciph_3des_read>
   80fb4:	e0bffe17 	ldw	r2,-8(fp)
   80fb8:	10800044 	addi	r2,r2,1
   80fbc:	e0bffe15 	stw	r2,-8(fp)
   80fc0:	e0bffe17 	ldw	r2,-8(fp)
   80fc4:	10808010 	cmplti	r2,r2,512
   80fc8:	103fce1e 	bne	r2,zero,80f04 <test_wydajnosc+0x148>
   80fcc:	0007883a 	mov	r3,zero
   80fd0:	00800434 	movhi	r2,16
   80fd4:	108f6004 	addi	r2,r2,15744
   80fd8:	10c00035 	stwio	r3,0(r2)
   80fdc:	008002b4 	movhi	r2,10
   80fe0:	10a54a04 	addi	r2,r2,-27352
   80fe4:	d8800015 	stw	r2,0(sp)
   80fe8:	01000434 	movhi	r4,16
   80fec:	210f6004 	addi	r4,r4,15744
   80ff0:	01417db4 	movhi	r5,1526
   80ff4:	29784004 	addi	r5,r5,-7936
   80ff8:	01800084 	movi	r6,2
   80ffc:	01c002b4 	movhi	r7,10
   81000:	39e54504 	addi	r7,r7,-27372
   81004:	00976c40 	call	976c4 <perf_print_formatted_report>
   81008:	e037883a 	mov	sp,fp
   8100c:	dfc00117 	ldw	ra,4(sp)
   81010:	df000017 	ldw	fp,0(sp)
   81014:	dec00204 	addi	sp,sp,8
   81018:	f800283a 	ret

0008101c <paczka_szyfrowanie>:
   8101c:	defffd04 	addi	sp,sp,-12
   81020:	dfc00215 	stw	ra,8(sp)
   81024:	df000115 	stw	fp,4(sp)
   81028:	df000104 	addi	fp,sp,4
   8102c:	e03fff15 	stw	zero,-4(fp)
   81030:	00002f06 	br	810f0 <paczka_szyfrowanie+0xd4>
   81034:	e0bfff17 	ldw	r2,-4(fp)
   81038:	1085883a 	add	r2,r2,r2
   8103c:	00c002b4 	movhi	r3,10
   81040:	18fe8104 	addi	r3,r3,-1532
   81044:	1085883a 	add	r2,r2,r2
   81048:	1085883a 	add	r2,r2,r2
   8104c:	1885883a 	add	r2,r3,r2
   81050:	10c00017 	ldw	r3,0(r2)
   81054:	e0bfff17 	ldw	r2,-4(fp)
   81058:	1085883a 	add	r2,r2,r2
   8105c:	10800044 	addi	r2,r2,1
   81060:	010002b4 	movhi	r4,10
   81064:	213e8104 	addi	r4,r4,-1532
   81068:	1085883a 	add	r2,r2,r2
   8106c:	1085883a 	add	r2,r2,r2
   81070:	2085883a 	add	r2,r4,r2
   81074:	10800017 	ldw	r2,0(r2)
   81078:	1809883a 	mov	r4,r3
   8107c:	100b883a 	mov	r5,r2
   81080:	0080af80 	call	80af8 <ciph_3des>
   81084:	e0bfff17 	ldw	r2,-4(fp)
   81088:	10bfffc4 	addi	r2,r2,-1
   8108c:	e0bfff15 	stw	r2,-4(fp)
   81090:	e0bfff17 	ldw	r2,-4(fp)
   81094:	10800044 	addi	r2,r2,1
   81098:	e0bfff15 	stw	r2,-4(fp)
   8109c:	e0bfff17 	ldw	r2,-4(fp)
   810a0:	1085883a 	add	r2,r2,r2
   810a4:	1085883a 	add	r2,r2,r2
   810a8:	1087883a 	add	r3,r2,r2
   810ac:	008002b4 	movhi	r2,10
   810b0:	10828104 	addi	r2,r2,2564
   810b4:	1887883a 	add	r3,r3,r2
   810b8:	e0bfff17 	ldw	r2,-4(fp)
   810bc:	1085883a 	add	r2,r2,r2
   810c0:	10800044 	addi	r2,r2,1
   810c4:	1085883a 	add	r2,r2,r2
   810c8:	1089883a 	add	r4,r2,r2
   810cc:	008002b4 	movhi	r2,10
   810d0:	10828104 	addi	r2,r2,2564
   810d4:	2085883a 	add	r2,r4,r2
   810d8:	1809883a 	mov	r4,r3
   810dc:	100b883a 	mov	r5,r2
   810e0:	0080bc00 	call	80bc0 <ciph_3des_read>
   810e4:	e0bfff17 	ldw	r2,-4(fp)
   810e8:	10800044 	addi	r2,r2,1
   810ec:	e0bfff15 	stw	r2,-4(fp)
   810f0:	e0bfff17 	ldw	r2,-4(fp)
   810f4:	10808010 	cmplti	r2,r2,512
   810f8:	103fce1e 	bne	r2,zero,81034 <paczka_szyfrowanie+0x18>
   810fc:	e037883a 	mov	sp,fp
   81100:	dfc00117 	ldw	ra,4(sp)
   81104:	df000017 	ldw	fp,0(sp)
   81108:	dec00204 	addi	sp,sp,8
   8110c:	f800283a 	ret

00081110 <paczka_deszyfrowanie>:
   81110:	defffd04 	addi	sp,sp,-12
   81114:	dfc00215 	stw	ra,8(sp)
   81118:	df000115 	stw	fp,4(sp)
   8111c:	df000104 	addi	fp,sp,4
   81120:	e03fff15 	stw	zero,-4(fp)
   81124:	00002f06 	br	811e4 <paczka_deszyfrowanie+0xd4>
   81128:	e0bfff17 	ldw	r2,-4(fp)
   8112c:	1085883a 	add	r2,r2,r2
   81130:	00c002b4 	movhi	r3,10
   81134:	18fe8104 	addi	r3,r3,-1532
   81138:	1085883a 	add	r2,r2,r2
   8113c:	1085883a 	add	r2,r2,r2
   81140:	1885883a 	add	r2,r3,r2
   81144:	10c00017 	ldw	r3,0(r2)
   81148:	e0bfff17 	ldw	r2,-4(fp)
   8114c:	1085883a 	add	r2,r2,r2
   81150:	10800044 	addi	r2,r2,1
   81154:	010002b4 	movhi	r4,10
   81158:	213e8104 	addi	r4,r4,-1532
   8115c:	1085883a 	add	r2,r2,r2
   81160:	1085883a 	add	r2,r2,r2
   81164:	2085883a 	add	r2,r4,r2
   81168:	10800017 	ldw	r2,0(r2)
   8116c:	1809883a 	mov	r4,r3
   81170:	100b883a 	mov	r5,r2
   81174:	0080b5c0 	call	80b5c <deciph_3des>
   81178:	e0bfff17 	ldw	r2,-4(fp)
   8117c:	10bfffc4 	addi	r2,r2,-1
   81180:	e0bfff15 	stw	r2,-4(fp)
   81184:	e0bfff17 	ldw	r2,-4(fp)
   81188:	10800044 	addi	r2,r2,1
   8118c:	e0bfff15 	stw	r2,-4(fp)
   81190:	e0bfff17 	ldw	r2,-4(fp)
   81194:	1085883a 	add	r2,r2,r2
   81198:	1085883a 	add	r2,r2,r2
   8119c:	1087883a 	add	r3,r2,r2
   811a0:	008002b4 	movhi	r2,10
   811a4:	10828104 	addi	r2,r2,2564
   811a8:	1887883a 	add	r3,r3,r2
   811ac:	e0bfff17 	ldw	r2,-4(fp)
   811b0:	1085883a 	add	r2,r2,r2
   811b4:	10800044 	addi	r2,r2,1
   811b8:	1085883a 	add	r2,r2,r2
   811bc:	1089883a 	add	r4,r2,r2
   811c0:	008002b4 	movhi	r2,10
   811c4:	10828104 	addi	r2,r2,2564
   811c8:	2085883a 	add	r2,r4,r2
   811cc:	1809883a 	mov	r4,r3
   811d0:	100b883a 	mov	r5,r2
   811d4:	0080c140 	call	80c14 <deciph_3des_read>
   811d8:	e0bfff17 	ldw	r2,-4(fp)
   811dc:	10800044 	addi	r2,r2,1
   811e0:	e0bfff15 	stw	r2,-4(fp)
   811e4:	e0bfff17 	ldw	r2,-4(fp)
   811e8:	10808010 	cmplti	r2,r2,512
   811ec:	103fce1e 	bne	r2,zero,81128 <paczka_deszyfrowanie+0x18>
   811f0:	e037883a 	mov	sp,fp
   811f4:	dfc00117 	ldw	ra,4(sp)
   811f8:	df000017 	ldw	fp,0(sp)
   811fc:	dec00204 	addi	sp,sp,8
   81200:	f800283a 	ret

00081204 <przygotowanie_danych>:
   81204:	defff804 	addi	sp,sp,-32
   81208:	dfc00715 	stw	ra,28(sp)
   8120c:	df000615 	stw	fp,24(sp)
   81210:	df000604 	addi	fp,sp,24
   81214:	e03ffd15 	stw	zero,-12(fp)
   81218:	00800274 	movhi	r2,9
   8121c:	e0bffe15 	stw	r2,-8(fp)
   81220:	e03fff15 	stw	zero,-4(fp)
   81224:	e03fff15 	stw	zero,-4(fp)
   81228:	00006106 	br	813b0 <przygotowanie_danych+0x1ac>
   8122c:	e0bfff17 	ldw	r2,-4(fp)
   81230:	1009883a 	mov	r4,r2
   81234:	01400184 	movi	r5,6
   81238:	00819a00 	call	819a0 <__modsi3>
   8123c:	10000a1e 	bne	r2,zero,81268 <przygotowanie_danych+0x64>
   81240:	00c002b4 	movhi	r3,10
   81244:	18fe8104 	addi	r3,r3,-1532
   81248:	e0bfff17 	ldw	r2,-4(fp)
   8124c:	1085883a 	add	r2,r2,r2
   81250:	1085883a 	add	r2,r2,r2
   81254:	1885883a 	add	r2,r3,r2
   81258:	00d51a34 	movhi	r3,21608
   8125c:	18d94804 	addi	r3,r3,25888
   81260:	10c00015 	stw	r3,0(r2)
   81264:	00004f06 	br	813a4 <przygotowanie_danych+0x1a0>
   81268:	e0bfff17 	ldw	r2,-4(fp)
   8126c:	1009883a 	mov	r4,r2
   81270:	01400184 	movi	r5,6
   81274:	00819a00 	call	819a0 <__modsi3>
   81278:	10800058 	cmpnei	r2,r2,1
   8127c:	10000a1e 	bne	r2,zero,812a8 <przygotowanie_danych+0xa4>
   81280:	00c002b4 	movhi	r3,10
   81284:	18fe8104 	addi	r3,r3,-1532
   81288:	e0bfff17 	ldw	r2,-4(fp)
   8128c:	1085883a 	add	r2,r2,r2
   81290:	1085883a 	add	r2,r2,r2
   81294:	1885883a 	add	r2,r3,r2
   81298:	00dc5d74 	movhi	r3,29045
   8129c:	18d998c4 	addi	r3,r3,26211
   812a0:	10c00015 	stw	r3,0(r2)
   812a4:	00003f06 	br	813a4 <przygotowanie_danych+0x1a0>
   812a8:	e0bfff17 	ldw	r2,-4(fp)
   812ac:	1009883a 	mov	r4,r2
   812b0:	01400184 	movi	r5,6
   812b4:	00819a00 	call	819a0 <__modsi3>
   812b8:	10800098 	cmpnei	r2,r2,2
   812bc:	10000a1e 	bne	r2,zero,812e8 <przygotowanie_danych+0xe4>
   812c0:	00c002b4 	movhi	r3,10
   812c4:	18fe8104 	addi	r3,r3,-1532
   812c8:	e0bfff17 	ldw	r2,-4(fp)
   812cc:	1085883a 	add	r2,r2,r2
   812d0:	1085883a 	add	r2,r2,r2
   812d4:	1885883a 	add	r2,r3,r2
   812d8:	00dac834 	movhi	r3,27424
   812dc:	18d89c84 	addi	r3,r3,25202
   812e0:	10c00015 	stw	r3,0(r2)
   812e4:	00002f06 	br	813a4 <przygotowanie_danych+0x1a0>
   812e8:	e0bfff17 	ldw	r2,-4(fp)
   812ec:	1009883a 	mov	r4,r2
   812f0:	01400184 	movi	r5,6
   812f4:	00819a00 	call	819a0 <__modsi3>
   812f8:	108000d8 	cmpnei	r2,r2,3
   812fc:	10000a1e 	bne	r2,zero,81328 <przygotowanie_danych+0x124>
   81300:	00c002b4 	movhi	r3,10
   81304:	18fe8104 	addi	r3,r3,-1532
   81308:	e0bfff17 	ldw	r2,-4(fp)
   8130c:	1085883a 	add	r2,r2,r2
   81310:	1085883a 	add	r2,r2,r2
   81314:	1885883a 	add	r2,r3,r2
   81318:	00dbddf4 	movhi	r3,28535
   8131c:	18db8804 	addi	r3,r3,28192
   81320:	10c00015 	stw	r3,0(r2)
   81324:	00001f06 	br	813a4 <przygotowanie_danych+0x1a0>
   81328:	e0bfff17 	ldw	r2,-4(fp)
   8132c:	1009883a 	mov	r4,r2
   81330:	01400184 	movi	r5,6
   81334:	00819a00 	call	819a0 <__modsi3>
   81338:	10800118 	cmpnei	r2,r2,4
   8133c:	10000a1e 	bne	r2,zero,81368 <przygotowanie_danych+0x164>
   81340:	00c002b4 	movhi	r3,10
   81344:	18fe8104 	addi	r3,r3,-1532
   81348:	e0bfff17 	ldw	r2,-4(fp)
   8134c:	1085883a 	add	r2,r2,r2
   81350:	1085883a 	add	r2,r2,r2
   81354:	1885883a 	add	r2,r3,r2
   81358:	00d99bf4 	movhi	r3,26223
   8135c:	18de0804 	addi	r3,r3,30752
   81360:	10c00015 	stw	r3,0(r2)
   81364:	00000f06 	br	813a4 <przygotowanie_danych+0x1a0>
   81368:	e0bfff17 	ldw	r2,-4(fp)
   8136c:	1009883a 	mov	r4,r2
   81370:	01400184 	movi	r5,6
   81374:	00819a00 	call	819a0 <__modsi3>
   81378:	10800158 	cmpnei	r2,r2,5
   8137c:	1000091e 	bne	r2,zero,813a4 <przygotowanie_danych+0x1a0>
   81380:	00c002b4 	movhi	r3,10
   81384:	18fe8104 	addi	r3,r3,-1532
   81388:	e0bfff17 	ldw	r2,-4(fp)
   8138c:	1085883a 	add	r2,r2,r2
   81390:	1085883a 	add	r2,r2,r2
   81394:	1885883a 	add	r2,r3,r2
   81398:	00da9d74 	movhi	r3,27253
   8139c:	18db5c04 	addi	r3,r3,28016
   813a0:	10c00015 	stw	r3,0(r2)
   813a4:	e0bfff17 	ldw	r2,-4(fp)
   813a8:	10800044 	addi	r2,r2,1
   813ac:	e0bfff15 	stw	r2,-4(fp)
   813b0:	e0bfff17 	ldw	r2,-4(fp)
   813b4:	10810010 	cmplti	r2,r2,1024
   813b8:	103f9c1e 	bne	r2,zero,8122c <przygotowanie_danych+0x28>
   813bc:	00002006 	br	81440 <przygotowanie_danych+0x23c>
   813c0:	008002b4 	movhi	r2,10
   813c4:	10be8104 	addi	r2,r2,-1532
   813c8:	10800017 	ldw	r2,0(r2)
   813cc:	1007883a 	mov	r3,r2
   813d0:	e0bffe17 	ldw	r2,-8(fp)
   813d4:	01040004 	movi	r4,4096
   813d8:	d9000015 	stw	r4,0(sp)
   813dc:	d8000115 	stw	zero,4(sp)
   813e0:	d8000215 	stw	zero,8(sp)
   813e4:	01000434 	movhi	r4,16
   813e8:	21042004 	addi	r4,r4,4224
   813ec:	01400434 	movhi	r5,16
   813f0:	29442804 	addi	r5,r5,4256
   813f4:	180d883a 	mov	r6,r3
   813f8:	100f883a 	mov	r7,r2
   813fc:	0091ca00 	call	91ca0 <alt_avalon_sgdma_construct_mem_to_mem_desc>
   81400:	d0a6ff17 	ldw	r2,-25604(gp)
   81404:	1009883a 	mov	r4,r2
   81408:	01400434 	movhi	r5,16
   8140c:	29442004 	addi	r5,r5,4224
   81410:	0091a6c0 	call	91a6c <alt_avalon_sgdma_do_async_transfer>
   81414:	0001883a 	nop
   81418:	01000434 	movhi	r4,16
   8141c:	21042004 	addi	r4,r4,4224
   81420:	00920600 	call	92060 <alt_avalon_sgdma_check_descriptor_status>
   81424:	103ffc1e 	bne	r2,zero,81418 <przygotowanie_danych+0x214>
   81428:	e0bffe17 	ldw	r2,-8(fp)
   8142c:	10840004 	addi	r2,r2,4096
   81430:	e0bffe15 	stw	r2,-8(fp)
   81434:	e0bffd17 	ldw	r2,-12(fp)
   81438:	10800044 	addi	r2,r2,1
   8143c:	e0bffd15 	stw	r2,-12(fp)
   81440:	e0bffd17 	ldw	r2,-12(fp)
   81444:	10804010 	cmplti	r2,r2,256
   81448:	103fdd1e 	bne	r2,zero,813c0 <przygotowanie_danych+0x1bc>
   8144c:	e037883a 	mov	sp,fp
   81450:	dfc00117 	ldw	ra,4(sp)
   81454:	df000017 	ldw	fp,0(sp)
   81458:	dec00204 	addi	sp,sp,8
   8145c:	f800283a 	ret

00081460 <przeprowadzenie_szyfrowania_sram>:
   81460:	defff804 	addi	sp,sp,-32
   81464:	dfc00715 	stw	ra,28(sp)
   81468:	df000615 	stw	fp,24(sp)
   8146c:	df000604 	addi	fp,sp,24
   81470:	010002b4 	movhi	r4,10
   81474:	21254f04 	addi	r4,r4,-27332
   81478:	0081b1c0 	call	81b1c <puts>
   8147c:	e03ffd15 	stw	zero,-12(fp)
   81480:	00800274 	movhi	r2,9
   81484:	e0bffe15 	stw	r2,-8(fp)
   81488:	e0fffe17 	ldw	r3,-8(fp)
   8148c:	00800434 	movhi	r2,16
   81490:	1885883a 	add	r2,r3,r2
   81494:	e0bfff15 	stw	r2,-4(fp)
   81498:	00003d06 	br	81590 <przeprowadzenie_szyfrowania_sram+0x130>
   8149c:	e0fffe17 	ldw	r3,-8(fp)
   814a0:	008002b4 	movhi	r2,10
   814a4:	10be8104 	addi	r2,r2,-1532
   814a8:	10800017 	ldw	r2,0(r2)
   814ac:	01040004 	movi	r4,4096
   814b0:	d9000015 	stw	r4,0(sp)
   814b4:	d8000115 	stw	zero,4(sp)
   814b8:	d8000215 	stw	zero,8(sp)
   814bc:	01000434 	movhi	r4,16
   814c0:	21042004 	addi	r4,r4,4224
   814c4:	01400434 	movhi	r5,16
   814c8:	29442804 	addi	r5,r5,4256
   814cc:	180d883a 	mov	r6,r3
   814d0:	100f883a 	mov	r7,r2
   814d4:	0091ca00 	call	91ca0 <alt_avalon_sgdma_construct_mem_to_mem_desc>
   814d8:	d0a6ff17 	ldw	r2,-25604(gp)
   814dc:	1009883a 	mov	r4,r2
   814e0:	01400434 	movhi	r5,16
   814e4:	29442004 	addi	r5,r5,4224
   814e8:	0091a6c0 	call	91a6c <alt_avalon_sgdma_do_async_transfer>
   814ec:	0001883a 	nop
   814f0:	01000434 	movhi	r4,16
   814f4:	21042004 	addi	r4,r4,4224
   814f8:	00920600 	call	92060 <alt_avalon_sgdma_check_descriptor_status>
   814fc:	103ffc1e 	bne	r2,zero,814f0 <przeprowadzenie_szyfrowania_sram+0x90>
   81500:	008101c0 	call	8101c <paczka_szyfrowanie>
   81504:	008002b4 	movhi	r2,10
   81508:	10828104 	addi	r2,r2,2564
   8150c:	10800017 	ldw	r2,0(r2)
   81510:	1007883a 	mov	r3,r2
   81514:	e0bfff17 	ldw	r2,-4(fp)
   81518:	01040004 	movi	r4,4096
   8151c:	d9000015 	stw	r4,0(sp)
   81520:	d8000115 	stw	zero,4(sp)
   81524:	d8000215 	stw	zero,8(sp)
   81528:	01000434 	movhi	r4,16
   8152c:	21042004 	addi	r4,r4,4224
   81530:	01400434 	movhi	r5,16
   81534:	29442804 	addi	r5,r5,4256
   81538:	180d883a 	mov	r6,r3
   8153c:	100f883a 	mov	r7,r2
   81540:	0091ca00 	call	91ca0 <alt_avalon_sgdma_construct_mem_to_mem_desc>
   81544:	d0a6ff17 	ldw	r2,-25604(gp)
   81548:	1009883a 	mov	r4,r2
   8154c:	01400434 	movhi	r5,16
   81550:	29442004 	addi	r5,r5,4224
   81554:	0091a6c0 	call	91a6c <alt_avalon_sgdma_do_async_transfer>
   81558:	0001883a 	nop
   8155c:	01000434 	movhi	r4,16
   81560:	21042004 	addi	r4,r4,4224
   81564:	00920600 	call	92060 <alt_avalon_sgdma_check_descriptor_status>
   81568:	103ffc1e 	bne	r2,zero,8155c <przeprowadzenie_szyfrowania_sram+0xfc>
   8156c:	e0bffe17 	ldw	r2,-8(fp)
   81570:	10840004 	addi	r2,r2,4096
   81574:	e0bffe15 	stw	r2,-8(fp)
   81578:	e0bfff17 	ldw	r2,-4(fp)
   8157c:	10840004 	addi	r2,r2,4096
   81580:	e0bfff15 	stw	r2,-4(fp)
   81584:	e0bffd17 	ldw	r2,-12(fp)
   81588:	10800044 	addi	r2,r2,1
   8158c:	e0bffd15 	stw	r2,-12(fp)
   81590:	e0bffd17 	ldw	r2,-12(fp)
   81594:	10800090 	cmplti	r2,r2,2
   81598:	103fc01e 	bne	r2,zero,8149c <przeprowadzenie_szyfrowania_sram+0x3c>
   8159c:	e037883a 	mov	sp,fp
   815a0:	dfc00117 	ldw	ra,4(sp)
   815a4:	df000017 	ldw	fp,0(sp)
   815a8:	dec00204 	addi	sp,sp,8
   815ac:	f800283a 	ret

000815b0 <przeprowadzenie_deszyfrowania_sram>:
   815b0:	defff804 	addi	sp,sp,-32
   815b4:	dfc00715 	stw	ra,28(sp)
   815b8:	df000615 	stw	fp,24(sp)
   815bc:	df000604 	addi	fp,sp,24
   815c0:	e03ffd15 	stw	zero,-12(fp)
   815c4:	00800274 	movhi	r2,9
   815c8:	e0bffe15 	stw	r2,-8(fp)
   815cc:	e0fffe17 	ldw	r3,-8(fp)
   815d0:	00800434 	movhi	r2,16
   815d4:	1885883a 	add	r2,r3,r2
   815d8:	e0bfff15 	stw	r2,-4(fp)
   815dc:	00003d06 	br	816d4 <przeprowadzenie_deszyfrowania_sram+0x124>
   815e0:	e0fffe17 	ldw	r3,-8(fp)
   815e4:	008002b4 	movhi	r2,10
   815e8:	10be8104 	addi	r2,r2,-1532
   815ec:	10800017 	ldw	r2,0(r2)
   815f0:	01040004 	movi	r4,4096
   815f4:	d9000015 	stw	r4,0(sp)
   815f8:	d8000115 	stw	zero,4(sp)
   815fc:	d8000215 	stw	zero,8(sp)
   81600:	01000434 	movhi	r4,16
   81604:	21042004 	addi	r4,r4,4224
   81608:	01400434 	movhi	r5,16
   8160c:	29442804 	addi	r5,r5,4256
   81610:	180d883a 	mov	r6,r3
   81614:	100f883a 	mov	r7,r2
   81618:	0091ca00 	call	91ca0 <alt_avalon_sgdma_construct_mem_to_mem_desc>
   8161c:	d0a6ff17 	ldw	r2,-25604(gp)
   81620:	1009883a 	mov	r4,r2
   81624:	01400434 	movhi	r5,16
   81628:	29442004 	addi	r5,r5,4224
   8162c:	0091a6c0 	call	91a6c <alt_avalon_sgdma_do_async_transfer>
   81630:	0001883a 	nop
   81634:	01000434 	movhi	r4,16
   81638:	21042004 	addi	r4,r4,4224
   8163c:	00920600 	call	92060 <alt_avalon_sgdma_check_descriptor_status>
   81640:	103ffc1e 	bne	r2,zero,81634 <przeprowadzenie_deszyfrowania_sram+0x84>
   81644:	00811100 	call	81110 <paczka_deszyfrowanie>
   81648:	008002b4 	movhi	r2,10
   8164c:	10828104 	addi	r2,r2,2564
   81650:	10800017 	ldw	r2,0(r2)
   81654:	1007883a 	mov	r3,r2
   81658:	e0bfff17 	ldw	r2,-4(fp)
   8165c:	01040004 	movi	r4,4096
   81660:	d9000015 	stw	r4,0(sp)
   81664:	d8000115 	stw	zero,4(sp)
   81668:	d8000215 	stw	zero,8(sp)
   8166c:	01000434 	movhi	r4,16
   81670:	21042004 	addi	r4,r4,4224
   81674:	01400434 	movhi	r5,16
   81678:	29442804 	addi	r5,r5,4256
   8167c:	180d883a 	mov	r6,r3
   81680:	100f883a 	mov	r7,r2
   81684:	0091ca00 	call	91ca0 <alt_avalon_sgdma_construct_mem_to_mem_desc>
   81688:	d0a6ff17 	ldw	r2,-25604(gp)
   8168c:	1009883a 	mov	r4,r2
   81690:	01400434 	movhi	r5,16
   81694:	29442004 	addi	r5,r5,4224
   81698:	0091a6c0 	call	91a6c <alt_avalon_sgdma_do_async_transfer>
   8169c:	0001883a 	nop
   816a0:	01000434 	movhi	r4,16
   816a4:	21042004 	addi	r4,r4,4224
   816a8:	00920600 	call	92060 <alt_avalon_sgdma_check_descriptor_status>
   816ac:	103ffc1e 	bne	r2,zero,816a0 <przeprowadzenie_deszyfrowania_sram+0xf0>
   816b0:	e0bffe17 	ldw	r2,-8(fp)
   816b4:	10840004 	addi	r2,r2,4096
   816b8:	e0bffe15 	stw	r2,-8(fp)
   816bc:	e0bfff17 	ldw	r2,-4(fp)
   816c0:	10840004 	addi	r2,r2,4096
   816c4:	e0bfff15 	stw	r2,-4(fp)
   816c8:	e0bffd17 	ldw	r2,-12(fp)
   816cc:	10800044 	addi	r2,r2,1
   816d0:	e0bffd15 	stw	r2,-12(fp)
   816d4:	e0bffd17 	ldw	r2,-12(fp)
   816d8:	10804010 	cmplti	r2,r2,256
   816dc:	103fc01e 	bne	r2,zero,815e0 <przeprowadzenie_deszyfrowania_sram+0x30>
   816e0:	e037883a 	mov	sp,fp
   816e4:	dfc00117 	ldw	ra,4(sp)
   816e8:	df000017 	ldw	fp,0(sp)
   816ec:	dec00204 	addi	sp,sp,8
   816f0:	f800283a 	ret

000816f4 <test_wydajnosci_sram>:
   816f4:	defffd04 	addi	sp,sp,-12
   816f8:	dfc00215 	stw	ra,8(sp)
   816fc:	df000115 	stw	fp,4(sp)
   81700:	df000104 	addi	fp,sp,4
   81704:	00c00044 	movi	r3,1
   81708:	00800434 	movhi	r2,16
   8170c:	108f6004 	addi	r2,r2,15744
   81710:	10c00035 	stwio	r3,0(r2)
   81714:	0007883a 	mov	r3,zero
   81718:	00800434 	movhi	r2,16
   8171c:	108f6104 	addi	r2,r2,15748
   81720:	10c00035 	stwio	r3,0(r2)
   81724:	0007883a 	mov	r3,zero
   81728:	00800434 	movhi	r2,16
   8172c:	108f6504 	addi	r2,r2,15764
   81730:	10c00035 	stwio	r3,0(r2)
   81734:	00814600 	call	81460 <przeprowadzenie_szyfrowania_sram>
   81738:	0007883a 	mov	r3,zero
   8173c:	00800434 	movhi	r2,16
   81740:	108f6404 	addi	r2,r2,15760
   81744:	10c00035 	stwio	r3,0(r2)
   81748:	0007883a 	mov	r3,zero
   8174c:	00800434 	movhi	r2,16
   81750:	108f6904 	addi	r2,r2,15780
   81754:	10c00035 	stwio	r3,0(r2)
   81758:	00815b00 	call	815b0 <przeprowadzenie_deszyfrowania_sram>
   8175c:	0007883a 	mov	r3,zero
   81760:	00800434 	movhi	r2,16
   81764:	108f6004 	addi	r2,r2,15744
   81768:	10c00035 	stwio	r3,0(r2)
   8176c:	008002b4 	movhi	r2,10
   81770:	10a56204 	addi	r2,r2,-27256
   81774:	d8800015 	stw	r2,0(sp)
   81778:	01000434 	movhi	r4,16
   8177c:	210f6004 	addi	r4,r4,15744
   81780:	01417db4 	movhi	r5,1526
   81784:	29784004 	addi	r5,r5,-7936
   81788:	01800084 	movi	r6,2
   8178c:	01c002b4 	movhi	r7,10
   81790:	39e55c04 	addi	r7,r7,-27280
   81794:	00976c40 	call	976c4 <perf_print_formatted_report>
   81798:	e037883a 	mov	sp,fp
   8179c:	dfc00117 	ldw	ra,4(sp)
   817a0:	df000017 	ldw	fp,0(sp)
   817a4:	dec00204 	addi	sp,sp,8
   817a8:	f800283a 	ret

000817ac <wprowadzenie_kluczy>:
   817ac:	defffc04 	addi	sp,sp,-16
   817b0:	dfc00315 	stw	ra,12(sp)
   817b4:	df000215 	stw	fp,8(sp)
   817b8:	df000204 	addi	fp,sp,8
   817bc:	010002b4 	movhi	r4,10
   817c0:	21256804 	addi	r4,r4,-27232
   817c4:	0081a380 	call	81a38 <printf>
   817c8:	010002b4 	movhi	r4,10
   817cc:	21250b04 	addi	r4,r4,-27604
   817d0:	d1600204 	addi	r5,gp,-32760
   817d4:	0081b300 	call	81b30 <scanf>
   817d8:	010002b4 	movhi	r4,10
   817dc:	21257a04 	addi	r4,r4,-27160
   817e0:	0081a380 	call	81a38 <printf>
   817e4:	010002b4 	movhi	r4,10
   817e8:	21250b04 	addi	r4,r4,-27604
   817ec:	d1600304 	addi	r5,gp,-32756
   817f0:	0081b300 	call	81b30 <scanf>
   817f4:	010002b4 	movhi	r4,10
   817f8:	21258b04 	addi	r4,r4,-27092
   817fc:	0081a380 	call	81a38 <printf>
   81800:	010002b4 	movhi	r4,10
   81804:	21250b04 	addi	r4,r4,-27604
   81808:	d1600404 	addi	r5,gp,-32752
   8180c:	0081b300 	call	81b30 <scanf>
   81810:	010002b4 	movhi	r4,10
   81814:	21259d04 	addi	r4,r4,-27020
   81818:	0081a380 	call	81a38 <printf>
   8181c:	010002b4 	movhi	r4,10
   81820:	21250b04 	addi	r4,r4,-27604
   81824:	d1600504 	addi	r5,gp,-32748
   81828:	0081b300 	call	81b30 <scanf>
   8182c:	010002b4 	movhi	r4,10
   81830:	2125ae04 	addi	r4,r4,-26952
   81834:	0081a380 	call	81a38 <printf>
   81838:	010002b4 	movhi	r4,10
   8183c:	21250b04 	addi	r4,r4,-27604
   81840:	d1600604 	addi	r5,gp,-32744
   81844:	0081b300 	call	81b30 <scanf>
   81848:	010002b4 	movhi	r4,10
   8184c:	2125bd04 	addi	r4,r4,-26892
   81850:	0081a380 	call	81a38 <printf>
   81854:	010002b4 	movhi	r4,10
   81858:	21250b04 	addi	r4,r4,-27604
   8185c:	d1600704 	addi	r5,gp,-32740
   81860:	0081b300 	call	81b30 <scanf>
   81864:	d1200217 	ldw	r4,-32760(gp)
   81868:	d1600317 	ldw	r5,-32756(gp)
   8186c:	d0e00417 	ldw	r3,-32752(gp)
   81870:	d0a00517 	ldw	r2,-32748(gp)
   81874:	d1e00617 	ldw	r7,-32744(gp)
   81878:	d1a00717 	ldw	r6,-32740(gp)
   8187c:	d9c00015 	stw	r7,0(sp)
   81880:	d9800115 	stw	r6,4(sp)
   81884:	180d883a 	mov	r6,r3
   81888:	100f883a 	mov	r7,r2
   8188c:	00809e00 	call	809e0 <init_3des>
   81890:	d1200217 	ldw	r4,-32760(gp)
   81894:	d1600317 	ldw	r5,-32756(gp)
   81898:	d0e00417 	ldw	r3,-32752(gp)
   8189c:	d0a00517 	ldw	r2,-32748(gp)
   818a0:	d1e00617 	ldw	r7,-32744(gp)
   818a4:	d1a00717 	ldw	r6,-32740(gp)
   818a8:	d9c00015 	stw	r7,0(sp)
   818ac:	d9800115 	stw	r6,4(sp)
   818b0:	180d883a 	mov	r6,r3
   818b4:	100f883a 	mov	r7,r2
   818b8:	0080a6c0 	call	80a6c <init_3desdecrypt>
   818bc:	010002b4 	movhi	r4,10
   818c0:	2125ce04 	addi	r4,r4,-26824
   818c4:	0081b1c0 	call	81b1c <puts>
   818c8:	e037883a 	mov	sp,fp
   818cc:	dfc00117 	ldw	ra,4(sp)
   818d0:	df000017 	ldw	fp,0(sp)
   818d4:	dec00204 	addi	sp,sp,8
   818d8:	f800283a 	ret

000818dc <udivmodsi4>:
   818dc:	2005883a 	mov	r2,r4
   818e0:	2900182e 	bgeu	r5,r4,81944 <udivmodsi4+0x68>
   818e4:	28001716 	blt	r5,zero,81944 <udivmodsi4+0x68>
   818e8:	01000804 	movi	r4,32
   818ec:	00c00044 	movi	r3,1
   818f0:	00000206 	br	818fc <udivmodsi4+0x20>
   818f4:	20001126 	beq	r4,zero,8193c <udivmodsi4+0x60>
   818f8:	28000516 	blt	r5,zero,81910 <udivmodsi4+0x34>
   818fc:	294b883a 	add	r5,r5,r5
   81900:	213fffc4 	addi	r4,r4,-1
   81904:	18c7883a 	add	r3,r3,r3
   81908:	28bffa36 	bltu	r5,r2,818f4 <udivmodsi4+0x18>
   8190c:	18000b26 	beq	r3,zero,8193c <udivmodsi4+0x60>
   81910:	0009883a 	mov	r4,zero
   81914:	11400236 	bltu	r2,r5,81920 <udivmodsi4+0x44>
   81918:	1145c83a 	sub	r2,r2,r5
   8191c:	20c8b03a 	or	r4,r4,r3
   81920:	1806d07a 	srli	r3,r3,1
   81924:	280ad07a 	srli	r5,r5,1
   81928:	183ffa1e 	bne	r3,zero,81914 <udivmodsi4+0x38>
   8192c:	3000021e 	bne	r6,zero,81938 <udivmodsi4+0x5c>
   81930:	2005883a 	mov	r2,r4
   81934:	f800283a 	ret
   81938:	f800283a 	ret
   8193c:	0009883a 	mov	r4,zero
   81940:	003ffa06 	br	8192c <udivmodsi4+0x50>
   81944:	00c00044 	movi	r3,1
   81948:	0009883a 	mov	r4,zero
   8194c:	003ff106 	br	81914 <udivmodsi4+0x38>

00081950 <__divsi3>:
   81950:	defffe04 	addi	sp,sp,-8
   81954:	dfc00115 	stw	ra,4(sp)
   81958:	dc000015 	stw	r16,0(sp)
   8195c:	20000a16 	blt	r4,zero,81988 <__divsi3+0x38>
   81960:	0021883a 	mov	r16,zero
   81964:	28000b16 	blt	r5,zero,81994 <__divsi3+0x44>
   81968:	000d883a 	mov	r6,zero
   8196c:	00818dc0 	call	818dc <udivmodsi4>
   81970:	80000126 	beq	r16,zero,81978 <__divsi3+0x28>
   81974:	0085c83a 	sub	r2,zero,r2
   81978:	dfc00117 	ldw	ra,4(sp)
   8197c:	dc000017 	ldw	r16,0(sp)
   81980:	dec00204 	addi	sp,sp,8
   81984:	f800283a 	ret
   81988:	0109c83a 	sub	r4,zero,r4
   8198c:	04000044 	movi	r16,1
   81990:	283ff50e 	bge	r5,zero,81968 <__divsi3+0x18>
   81994:	014bc83a 	sub	r5,zero,r5
   81998:	8400005c 	xori	r16,r16,1
   8199c:	003ff206 	br	81968 <__divsi3+0x18>

000819a0 <__modsi3>:
   819a0:	deffff04 	addi	sp,sp,-4
   819a4:	dfc00015 	stw	ra,0(sp)
   819a8:	20000516 	blt	r4,zero,819c0 <__modsi3+0x20>
   819ac:	28000c16 	blt	r5,zero,819e0 <__modsi3+0x40>
   819b0:	01800044 	movi	r6,1
   819b4:	dfc00017 	ldw	ra,0(sp)
   819b8:	dec00104 	addi	sp,sp,4
   819bc:	00818dc1 	jmpi	818dc <udivmodsi4>
   819c0:	0109c83a 	sub	r4,zero,r4
   819c4:	28000b16 	blt	r5,zero,819f4 <__modsi3+0x54>
   819c8:	01800044 	movi	r6,1
   819cc:	00818dc0 	call	818dc <udivmodsi4>
   819d0:	0085c83a 	sub	r2,zero,r2
   819d4:	dfc00017 	ldw	ra,0(sp)
   819d8:	dec00104 	addi	sp,sp,4
   819dc:	f800283a 	ret
   819e0:	014bc83a 	sub	r5,zero,r5
   819e4:	01800044 	movi	r6,1
   819e8:	dfc00017 	ldw	ra,0(sp)
   819ec:	dec00104 	addi	sp,sp,4
   819f0:	00818dc1 	jmpi	818dc <udivmodsi4>
   819f4:	014bc83a 	sub	r5,zero,r5
   819f8:	003ff306 	br	819c8 <__modsi3+0x28>

000819fc <__udivsi3>:
   819fc:	000d883a 	mov	r6,zero
   81a00:	00818dc1 	jmpi	818dc <udivmodsi4>

00081a04 <__umodsi3>:
   81a04:	01800044 	movi	r6,1
   81a08:	00818dc1 	jmpi	818dc <udivmodsi4>

00081a0c <_printf_r>:
   81a0c:	defffd04 	addi	sp,sp,-12
   81a10:	dfc00015 	stw	ra,0(sp)
   81a14:	d9800115 	stw	r6,4(sp)
   81a18:	d9c00215 	stw	r7,8(sp)
   81a1c:	280d883a 	mov	r6,r5
   81a20:	21400217 	ldw	r5,8(r4)
   81a24:	d9c00104 	addi	r7,sp,4
   81a28:	0081c5c0 	call	81c5c <___vfprintf_internal_r>
   81a2c:	dfc00017 	ldw	ra,0(sp)
   81a30:	dec00304 	addi	sp,sp,12
   81a34:	f800283a 	ret

00081a38 <printf>:
   81a38:	defffc04 	addi	sp,sp,-16
   81a3c:	dfc00015 	stw	ra,0(sp)
   81a40:	d9400115 	stw	r5,4(sp)
   81a44:	d9800215 	stw	r6,8(sp)
   81a48:	d9c00315 	stw	r7,12(sp)
   81a4c:	008002b4 	movhi	r2,10
   81a50:	10b57404 	addi	r2,r2,-10800
   81a54:	10800017 	ldw	r2,0(r2)
   81a58:	200b883a 	mov	r5,r4
   81a5c:	d9800104 	addi	r6,sp,4
   81a60:	11000217 	ldw	r4,8(r2)
   81a64:	0083a540 	call	83a54 <__vfprintf_internal>
   81a68:	dfc00017 	ldw	ra,0(sp)
   81a6c:	dec00404 	addi	sp,sp,16
   81a70:	f800283a 	ret

00081a74 <_putchar_r>:
   81a74:	21800217 	ldw	r6,8(r4)
   81a78:	0089bb81 	jmpi	89bb8 <_putc_r>

00081a7c <putchar>:
   81a7c:	008002b4 	movhi	r2,10
   81a80:	10b57404 	addi	r2,r2,-10800
   81a84:	10800017 	ldw	r2,0(r2)
   81a88:	200b883a 	mov	r5,r4
   81a8c:	11800217 	ldw	r6,8(r2)
   81a90:	1009883a 	mov	r4,r2
   81a94:	0089bb81 	jmpi	89bb8 <_putc_r>

00081a98 <_puts_r>:
   81a98:	defff604 	addi	sp,sp,-40
   81a9c:	dc400815 	stw	r17,32(sp)
   81aa0:	2023883a 	mov	r17,r4
   81aa4:	2809883a 	mov	r4,r5
   81aa8:	dc000715 	stw	r16,28(sp)
   81aac:	dfc00915 	stw	ra,36(sp)
   81ab0:	2821883a 	mov	r16,r5
   81ab4:	0081b9c0 	call	81b9c <strlen>
   81ab8:	10c00044 	addi	r3,r2,1
   81abc:	d8800115 	stw	r2,4(sp)
   81ac0:	89400217 	ldw	r5,8(r17)
   81ac4:	008002b4 	movhi	r2,10
   81ac8:	10a5d504 	addi	r2,r2,-26796
   81acc:	d8800215 	stw	r2,8(sp)
   81ad0:	00800044 	movi	r2,1
   81ad4:	d8800315 	stw	r2,12(sp)
   81ad8:	8809883a 	mov	r4,r17
   81adc:	00800084 	movi	r2,2
   81ae0:	d9800404 	addi	r6,sp,16
   81ae4:	dc000015 	stw	r16,0(sp)
   81ae8:	d8c00615 	stw	r3,24(sp)
   81aec:	dec00415 	stw	sp,16(sp)
   81af0:	d8800515 	stw	r2,20(sp)
   81af4:	00876b00 	call	876b0 <__sfvwrite_r>
   81af8:	1000061e 	bne	r2,zero,81b14 <_puts_r+0x7c>
   81afc:	00800284 	movi	r2,10
   81b00:	dfc00917 	ldw	ra,36(sp)
   81b04:	dc400817 	ldw	r17,32(sp)
   81b08:	dc000717 	ldw	r16,28(sp)
   81b0c:	dec00a04 	addi	sp,sp,40
   81b10:	f800283a 	ret
   81b14:	00bfffc4 	movi	r2,-1
   81b18:	003ff906 	br	81b00 <_puts_r+0x68>

00081b1c <puts>:
   81b1c:	008002b4 	movhi	r2,10
   81b20:	10b57404 	addi	r2,r2,-10800
   81b24:	200b883a 	mov	r5,r4
   81b28:	11000017 	ldw	r4,0(r2)
   81b2c:	0081a981 	jmpi	81a98 <_puts_r>

00081b30 <scanf>:
   81b30:	defffc04 	addi	sp,sp,-16
   81b34:	dfc00015 	stw	ra,0(sp)
   81b38:	d9400115 	stw	r5,4(sp)
   81b3c:	d9800215 	stw	r6,8(sp)
   81b40:	d9c00315 	stw	r7,12(sp)
   81b44:	008002b4 	movhi	r2,10
   81b48:	10b57404 	addi	r2,r2,-10800
   81b4c:	10800017 	ldw	r2,0(r2)
   81b50:	200d883a 	mov	r6,r4
   81b54:	d9c00104 	addi	r7,sp,4
   81b58:	11400117 	ldw	r5,4(r2)
   81b5c:	1009883a 	mov	r4,r2
   81b60:	0083a780 	call	83a78 <__svfscanf_r>
   81b64:	dfc00017 	ldw	ra,0(sp)
   81b68:	dec00404 	addi	sp,sp,16
   81b6c:	f800283a 	ret

00081b70 <_scanf_r>:
   81b70:	defffd04 	addi	sp,sp,-12
   81b74:	dfc00015 	stw	ra,0(sp)
   81b78:	d9800115 	stw	r6,4(sp)
   81b7c:	d9c00215 	stw	r7,8(sp)
   81b80:	280d883a 	mov	r6,r5
   81b84:	21400117 	ldw	r5,4(r4)
   81b88:	d9c00104 	addi	r7,sp,4
   81b8c:	0083a780 	call	83a78 <__svfscanf_r>
   81b90:	dfc00017 	ldw	ra,0(sp)
   81b94:	dec00304 	addi	sp,sp,12
   81b98:	f800283a 	ret

00081b9c <strlen>:
   81b9c:	208000cc 	andi	r2,r4,3
   81ba0:	10001f1e 	bne	r2,zero,81c20 <strlen+0x84>
   81ba4:	20800017 	ldw	r2,0(r4)
   81ba8:	01ffbff4 	movhi	r7,65279
   81bac:	39ffbfc4 	addi	r7,r7,-257
   81bb0:	01a02074 	movhi	r6,32897
   81bb4:	31a02004 	addi	r6,r6,-32640
   81bb8:	11c7883a 	add	r3,r2,r7
   81bbc:	0084303a 	nor	r2,zero,r2
   81bc0:	1886703a 	and	r3,r3,r2
   81bc4:	1986703a 	and	r3,r3,r6
   81bc8:	2005883a 	mov	r2,r4
   81bcc:	1800101e 	bne	r3,zero,81c10 <strlen+0x74>
   81bd0:	10800104 	addi	r2,r2,4
   81bd4:	10c00017 	ldw	r3,0(r2)
   81bd8:	19cb883a 	add	r5,r3,r7
   81bdc:	00c6303a 	nor	r3,zero,r3
   81be0:	28c6703a 	and	r3,r5,r3
   81be4:	1986703a 	and	r3,r3,r6
   81be8:	1800091e 	bne	r3,zero,81c10 <strlen+0x74>
   81bec:	10800104 	addi	r2,r2,4
   81bf0:	10c00017 	ldw	r3,0(r2)
   81bf4:	19cb883a 	add	r5,r3,r7
   81bf8:	00c6303a 	nor	r3,zero,r3
   81bfc:	28c6703a 	and	r3,r5,r3
   81c00:	1986703a 	and	r3,r3,r6
   81c04:	183ff226 	beq	r3,zero,81bd0 <strlen+0x34>
   81c08:	00000106 	br	81c10 <strlen+0x74>
   81c0c:	10800044 	addi	r2,r2,1
   81c10:	10c00007 	ldb	r3,0(r2)
   81c14:	183ffd1e 	bne	r3,zero,81c0c <strlen+0x70>
   81c18:	1105c83a 	sub	r2,r2,r4
   81c1c:	f800283a 	ret
   81c20:	2005883a 	mov	r2,r4
   81c24:	003ffa06 	br	81c10 <strlen+0x74>

00081c28 <__sprint_r>:
   81c28:	30800217 	ldw	r2,8(r6)
   81c2c:	defffe04 	addi	sp,sp,-8
   81c30:	dc000015 	stw	r16,0(sp)
   81c34:	dfc00115 	stw	ra,4(sp)
   81c38:	3021883a 	mov	r16,r6
   81c3c:	10000226 	beq	r2,zero,81c48 <__sprint_r+0x20>
   81c40:	00876b00 	call	876b0 <__sfvwrite_r>
   81c44:	80000215 	stw	zero,8(r16)
   81c48:	80000115 	stw	zero,4(r16)
   81c4c:	dfc00117 	ldw	ra,4(sp)
   81c50:	dc000017 	ldw	r16,0(sp)
   81c54:	dec00204 	addi	sp,sp,8
   81c58:	f800283a 	ret

00081c5c <___vfprintf_internal_r>:
   81c5c:	defeb904 	addi	sp,sp,-1308
   81c60:	dc013d15 	stw	r16,1268(sp)
   81c64:	d9013015 	stw	r4,1216(sp)
   81c68:	dfc14615 	stw	ra,1304(sp)
   81c6c:	df014515 	stw	fp,1300(sp)
   81c70:	ddc14415 	stw	r23,1296(sp)
   81c74:	dd814315 	stw	r22,1292(sp)
   81c78:	dd414215 	stw	r21,1288(sp)
   81c7c:	dd014115 	stw	r20,1284(sp)
   81c80:	dcc14015 	stw	r19,1280(sp)
   81c84:	dc813f15 	stw	r18,1276(sp)
   81c88:	dc413e15 	stw	r17,1272(sp)
   81c8c:	d9412915 	stw	r5,1188(sp)
   81c90:	3021883a 	mov	r16,r6
   81c94:	d9c12d15 	stw	r7,1204(sp)
   81c98:	0087dd40 	call	87dd4 <_localeconv_r>
   81c9c:	10800017 	ldw	r2,0(r2)
   81ca0:	d9013017 	ldw	r4,1216(sp)
   81ca4:	d8013315 	stw	zero,1228(sp)
   81ca8:	d8813715 	stw	r2,1244(sp)
   81cac:	d8013415 	stw	zero,1232(sp)
   81cb0:	20000226 	beq	r4,zero,81cbc <___vfprintf_internal_r+0x60>
   81cb4:	20800e17 	ldw	r2,56(r4)
   81cb8:	10019826 	beq	r2,zero,8231c <___vfprintf_internal_r+0x6c0>
   81cbc:	da012917 	ldw	r8,1188(sp)
   81cc0:	4080030b 	ldhu	r2,12(r8)
   81cc4:	10c0020c 	andi	r3,r2,8
   81cc8:	18ffffcc 	andi	r3,r3,65535
   81ccc:	18e0001c 	xori	r3,r3,32768
   81cd0:	18e00004 	addi	r3,r3,-32768
   81cd4:	18013a26 	beq	r3,zero,821c0 <___vfprintf_internal_r+0x564>
   81cd8:	40c00417 	ldw	r3,16(r8)
   81cdc:	18013826 	beq	r3,zero,821c0 <___vfprintf_internal_r+0x564>
   81ce0:	1100068c 	andi	r4,r2,26
   81ce4:	00c00284 	movi	r3,10
   81ce8:	20c13e26 	beq	r4,r3,821e4 <___vfprintf_internal_r+0x588>
   81cec:	da010dc4 	addi	r8,sp,1079
   81cf0:	d8800404 	addi	r2,sp,16
   81cf4:	da012615 	stw	r8,1176(sp)
   81cf8:	d8811b15 	stw	r2,1132(sp)
   81cfc:	1013883a 	mov	r9,r2
   81d00:	d8812617 	ldw	r2,1176(sp)
   81d04:	da010e04 	addi	r8,sp,1080
   81d08:	dc413017 	ldw	r17,1216(sp)
   81d0c:	da012715 	stw	r8,1180(sp)
   81d10:	4091c83a 	sub	r8,r8,r2
   81d14:	d8011d15 	stw	zero,1140(sp)
   81d18:	d8011c15 	stw	zero,1136(sp)
   81d1c:	802b883a 	mov	r21,r16
   81d20:	d8013215 	stw	zero,1224(sp)
   81d24:	d8013615 	stw	zero,1240(sp)
   81d28:	d8013515 	stw	zero,1236(sp)
   81d2c:	d8012c15 	stw	zero,1200(sp)
   81d30:	da013915 	stw	r8,1252(sp)
   81d34:	a8800007 	ldb	r2,0(r21)
   81d38:	1002ec26 	beq	r2,zero,828ec <___vfprintf_internal_r+0xc90>
   81d3c:	00c00944 	movi	r3,37
   81d40:	a825883a 	mov	r18,r21
   81d44:	10c0021e 	bne	r2,r3,81d50 <___vfprintf_internal_r+0xf4>
   81d48:	00001406 	br	81d9c <___vfprintf_internal_r+0x140>
   81d4c:	10c00326 	beq	r2,r3,81d5c <___vfprintf_internal_r+0x100>
   81d50:	94800044 	addi	r18,r18,1
   81d54:	90800007 	ldb	r2,0(r18)
   81d58:	103ffc1e 	bne	r2,zero,81d4c <___vfprintf_internal_r+0xf0>
   81d5c:	9561c83a 	sub	r16,r18,r21
   81d60:	80000e26 	beq	r16,zero,81d9c <___vfprintf_internal_r+0x140>
   81d64:	da011d17 	ldw	r8,1140(sp)
   81d68:	d8c11c17 	ldw	r3,1136(sp)
   81d6c:	4d400015 	stw	r21,0(r9)
   81d70:	4c000115 	stw	r16,4(r9)
   81d74:	4411883a 	add	r8,r8,r16
   81d78:	18c00044 	addi	r3,r3,1
   81d7c:	da011d15 	stw	r8,1140(sp)
   81d80:	d8c11c15 	stw	r3,1136(sp)
   81d84:	008001c4 	movi	r2,7
   81d88:	10c15d16 	blt	r2,r3,82300 <___vfprintf_internal_r+0x6a4>
   81d8c:	4a400204 	addi	r9,r9,8
   81d90:	d8812c17 	ldw	r2,1200(sp)
   81d94:	1405883a 	add	r2,r2,r16
   81d98:	d8812c15 	stw	r2,1200(sp)
   81d9c:	90800007 	ldb	r2,0(r18)
   81da0:	10013b26 	beq	r2,zero,82290 <___vfprintf_internal_r+0x634>
   81da4:	95400044 	addi	r21,r18,1
   81da8:	94800047 	ldb	r18,1(r18)
   81dac:	d8012585 	stb	zero,1174(sp)
   81db0:	073fffc4 	movi	fp,-1
   81db4:	d8012e15 	stw	zero,1208(sp)
   81db8:	0021883a 	mov	r16,zero
   81dbc:	00c01604 	movi	r3,88
   81dc0:	01400244 	movi	r5,9
   81dc4:	02800a84 	movi	r10,42
   81dc8:	01c01b04 	movi	r7,108
   81dcc:	01800ac4 	movi	r6,43
   81dd0:	02c00804 	movi	r11,32
   81dd4:	ad400044 	addi	r21,r21,1
   81dd8:	90bff804 	addi	r2,r18,-32
   81ddc:	1880092e 	bgeu	r3,r2,81e04 <___vfprintf_internal_r+0x1a8>
   81de0:	90012b26 	beq	r18,zero,82290 <___vfprintf_internal_r+0x634>
   81de4:	00c00044 	movi	r3,1
   81de8:	d8c12815 	stw	r3,1184(sp)
   81dec:	dc810405 	stb	r18,1040(sp)
   81df0:	d8012585 	stb	zero,1174(sp)
   81df4:	d8c12b15 	stw	r3,1196(sp)
   81df8:	dcc10404 	addi	r19,sp,1040
   81dfc:	d8013115 	stw	zero,1220(sp)
   81e00:	00008806 	br	82024 <___vfprintf_internal_r+0x3c8>
   81e04:	1085883a 	add	r2,r2,r2
   81e08:	1085883a 	add	r2,r2,r2
   81e0c:	01000234 	movhi	r4,8
   81e10:	21078804 	addi	r4,r4,7712
   81e14:	1105883a 	add	r2,r2,r4
   81e18:	10800017 	ldw	r2,0(r2)
   81e1c:	1000683a 	jmp	r2
   81e20:	000823d4 	movui	zero,8335
   81e24:	00081de0 	cmpeqi	zero,zero,8311
   81e28:	00081de0 	cmpeqi	zero,zero,8311
   81e2c:	000823e8 	cmpgeui	zero,zero,8335
   81e30:	00081de0 	cmpeqi	zero,zero,8311
   81e34:	00081de0 	cmpeqi	zero,zero,8311
   81e38:	00081de0 	cmpeqi	zero,zero,8311
   81e3c:	00081de0 	cmpeqi	zero,zero,8311
   81e40:	00081de0 	cmpeqi	zero,zero,8311
   81e44:	00081de0 	cmpeqi	zero,zero,8311
   81e48:	000824d0 	cmplti	zero,zero,8339
   81e4c:	0008238c 	andi	zero,zero,8334
   81e50:	00081de0 	cmpeqi	zero,zero,8311
   81e54:	000821b4 	movhi	zero,8326
   81e58:	00082398 	cmpnei	zero,zero,8334
   81e5c:	00081de0 	cmpeqi	zero,zero,8311
   81e60:	000823f4 	movhi	zero,8335
   81e64:	000824f4 	movhi	zero,8339
   81e68:	000824f4 	movhi	zero,8339
   81e6c:	000824f4 	movhi	zero,8339
   81e70:	000824f4 	movhi	zero,8339
   81e74:	000824f4 	movhi	zero,8339
   81e78:	000824f4 	movhi	zero,8339
   81e7c:	000824f4 	movhi	zero,8339
   81e80:	000824f4 	movhi	zero,8339
   81e84:	000824f4 	movhi	zero,8339
   81e88:	00081de0 	cmpeqi	zero,zero,8311
   81e8c:	00081de0 	cmpeqi	zero,zero,8311
   81e90:	00081de0 	cmpeqi	zero,zero,8311
   81e94:	00081de0 	cmpeqi	zero,zero,8311
   81e98:	00081de0 	cmpeqi	zero,zero,8311
   81e9c:	00081de0 	cmpeqi	zero,zero,8311
   81ea0:	00081de0 	cmpeqi	zero,zero,8311
   81ea4:	00081de0 	cmpeqi	zero,zero,8311
   81ea8:	00081de0 	cmpeqi	zero,zero,8311
   81eac:	00081de0 	cmpeqi	zero,zero,8311
   81eb0:	00082150 	cmplti	zero,zero,8325
   81eb4:	0008251c 	xori	zero,zero,8340
   81eb8:	00081de0 	cmpeqi	zero,zero,8311
   81ebc:	0008251c 	xori	zero,zero,8340
   81ec0:	00081de0 	cmpeqi	zero,zero,8311
   81ec4:	00081de0 	cmpeqi	zero,zero,8311
   81ec8:	00081de0 	cmpeqi	zero,zero,8311
   81ecc:	00081de0 	cmpeqi	zero,zero,8311
   81ed0:	0008268c 	andi	zero,zero,8346
   81ed4:	00081de0 	cmpeqi	zero,zero,8311
   81ed8:	00081de0 	cmpeqi	zero,zero,8311
   81edc:	00082118 	cmpnei	zero,zero,8324
   81ee0:	00081de0 	cmpeqi	zero,zero,8311
   81ee4:	00081de0 	cmpeqi	zero,zero,8311
   81ee8:	00081de0 	cmpeqi	zero,zero,8311
   81eec:	00081de0 	cmpeqi	zero,zero,8311
   81ef0:	00081de0 	cmpeqi	zero,zero,8311
   81ef4:	00081f84 	movi	zero,8318
   81ef8:	00081de0 	cmpeqi	zero,zero,8311
   81efc:	00081de0 	cmpeqi	zero,zero,8311
   81f00:	00082400 	call	8240 <__alt_mem_main_memory-0x77dc0>
   81f04:	00081de0 	cmpeqi	zero,zero,8311
   81f08:	00081de0 	cmpeqi	zero,zero,8311
   81f0c:	00081de0 	cmpeqi	zero,zero,8311
   81f10:	00081de0 	cmpeqi	zero,zero,8311
   81f14:	00081de0 	cmpeqi	zero,zero,8311
   81f18:	00081de0 	cmpeqi	zero,zero,8311
   81f1c:	00081de0 	cmpeqi	zero,zero,8311
   81f20:	00081de0 	cmpeqi	zero,zero,8311
   81f24:	00081de0 	cmpeqi	zero,zero,8311
   81f28:	00081de0 	cmpeqi	zero,zero,8311
   81f2c:	00082474 	movhi	zero,8337
   81f30:	00082154 	movui	zero,8325
   81f34:	0008251c 	xori	zero,zero,8340
   81f38:	0008251c 	xori	zero,zero,8340
   81f3c:	0008251c 	xori	zero,zero,8340
   81f40:	00082454 	movui	zero,8337
   81f44:	00082154 	movui	zero,8325
   81f48:	00081de0 	cmpeqi	zero,zero,8311
   81f4c:	00081de0 	cmpeqi	zero,zero,8311
   81f50:	00082460 	cmpeqi	zero,zero,8337
   81f54:	00081de0 	cmpeqi	zero,zero,8311
   81f58:	000824a4 	muli	zero,zero,8338
   81f5c:	0008211c 	xori	zero,zero,8324
   81f60:	000825a4 	muli	zero,zero,8342
   81f64:	000825f0 	cmpltui	zero,zero,8343
   81f68:	00081de0 	cmpeqi	zero,zero,8311
   81f6c:	000825fc 	xorhi	zero,zero,8343
   81f70:	00081de0 	cmpeqi	zero,zero,8311
   81f74:	00081f88 	cmpgei	zero,zero,8318
   81f78:	00081de0 	cmpeqi	zero,zero,8311
   81f7c:	00081de0 	cmpeqi	zero,zero,8311
   81f80:	00082658 	cmpnei	zero,zero,8345
   81f84:	84000414 	ori	r16,r16,16
   81f88:	8080080c 	andi	r2,r16,32
   81f8c:	1000f51e 	bne	r2,zero,82364 <___vfprintf_internal_r+0x708>
   81f90:	8080040c 	andi	r2,r16,16
   81f94:	10042c26 	beq	r2,zero,83048 <___vfprintf_internal_r+0x13ec>
   81f98:	da012d17 	ldw	r8,1204(sp)
   81f9c:	002d883a 	mov	r22,zero
   81fa0:	00c00044 	movi	r3,1
   81fa4:	45c00017 	ldw	r23,0(r8)
   81fa8:	42000104 	addi	r8,r8,4
   81fac:	da012d15 	stw	r8,1204(sp)
   81fb0:	b805883a 	mov	r2,r23
   81fb4:	d8012585 	stb	zero,1174(sp)
   81fb8:	e0000216 	blt	fp,zero,81fc4 <___vfprintf_internal_r+0x368>
   81fbc:	013fdfc4 	movi	r4,-129
   81fc0:	8120703a 	and	r16,r16,r4
   81fc4:	1002671e 	bne	r2,zero,82964 <___vfprintf_internal_r+0xd08>
   81fc8:	e002661e 	bne	fp,zero,82964 <___vfprintf_internal_r+0xd08>
   81fcc:	18c03fcc 	andi	r3,r3,255
   81fd0:	1803561e 	bne	r3,zero,82d2c <___vfprintf_internal_r+0x10d0>
   81fd4:	8080004c 	andi	r2,r16,1
   81fd8:	10035426 	beq	r2,zero,82d2c <___vfprintf_internal_r+0x10d0>
   81fdc:	da013917 	ldw	r8,1252(sp)
   81fe0:	00800c04 	movi	r2,48
   81fe4:	d8810dc5 	stb	r2,1079(sp)
   81fe8:	da012b15 	stw	r8,1196(sp)
   81fec:	dcc10dc4 	addi	r19,sp,1079
   81ff0:	d8812b17 	ldw	r2,1196(sp)
   81ff4:	d8812815 	stw	r2,1184(sp)
   81ff8:	1700010e 	bge	r2,fp,82000 <___vfprintf_internal_r+0x3a4>
   81ffc:	df012815 	stw	fp,1184(sp)
   82000:	d8812583 	ldbu	r2,1174(sp)
   82004:	df013115 	stw	fp,1220(sp)
   82008:	10803fcc 	andi	r2,r2,255
   8200c:	1080201c 	xori	r2,r2,128
   82010:	10bfe004 	addi	r2,r2,-128
   82014:	10000326 	beq	r2,zero,82024 <___vfprintf_internal_r+0x3c8>
   82018:	da012817 	ldw	r8,1184(sp)
   8201c:	42000044 	addi	r8,r8,1
   82020:	da012815 	stw	r8,1184(sp)
   82024:	80c0008c 	andi	r3,r16,2
   82028:	d8c12a15 	stw	r3,1192(sp)
   8202c:	18000326 	beq	r3,zero,8203c <___vfprintf_internal_r+0x3e0>
   82030:	da012817 	ldw	r8,1184(sp)
   82034:	42000084 	addi	r8,r8,2
   82038:	da012815 	stw	r8,1184(sp)
   8203c:	80c0210c 	andi	r3,r16,132
   82040:	d8c12f15 	stw	r3,1212(sp)
   82044:	1801941e 	bne	r3,zero,82698 <___vfprintf_internal_r+0xa3c>
   82048:	da012e17 	ldw	r8,1208(sp)
   8204c:	d8c12817 	ldw	r3,1184(sp)
   82050:	40edc83a 	sub	r22,r8,r3
   82054:	0581900e 	bge	zero,r22,82698 <___vfprintf_internal_r+0xa3c>
   82058:	02800404 	movi	r10,16
   8205c:	da011d17 	ldw	r8,1140(sp)
   82060:	d8c11c17 	ldw	r3,1136(sp)
   82064:	05c002b4 	movhi	r23,10
   82068:	bde5e684 	addi	r23,r23,-26726
   8206c:	5580200e 	bge	r10,r22,820f0 <___vfprintf_internal_r+0x494>
   82070:	dc813815 	stw	r18,1248(sp)
   82074:	5039883a 	mov	fp,r10
   82078:	b825883a 	mov	r18,r23
   8207c:	050001c4 	movi	r20,7
   82080:	b02f883a 	mov	r23,r22
   82084:	802d883a 	mov	r22,r16
   82088:	dc012917 	ldw	r16,1188(sp)
   8208c:	00000306 	br	8209c <___vfprintf_internal_r+0x440>
   82090:	bdfffc04 	addi	r23,r23,-16
   82094:	4a400204 	addi	r9,r9,8
   82098:	e5c0110e 	bge	fp,r23,820e0 <___vfprintf_internal_r+0x484>
   8209c:	4c800015 	stw	r18,0(r9)
   820a0:	4f000115 	stw	fp,4(r9)
   820a4:	42000404 	addi	r8,r8,16
   820a8:	18c00044 	addi	r3,r3,1
   820ac:	da011d15 	stw	r8,1140(sp)
   820b0:	d8c11c15 	stw	r3,1136(sp)
   820b4:	a0fff60e 	bge	r20,r3,82090 <___vfprintf_internal_r+0x434>
   820b8:	8809883a 	mov	r4,r17
   820bc:	800b883a 	mov	r5,r16
   820c0:	d9811b04 	addi	r6,sp,1132
   820c4:	0081c280 	call	81c28 <__sprint_r>
   820c8:	1000771e 	bne	r2,zero,822a8 <___vfprintf_internal_r+0x64c>
   820cc:	bdfffc04 	addi	r23,r23,-16
   820d0:	da011d17 	ldw	r8,1140(sp)
   820d4:	d8c11c17 	ldw	r3,1136(sp)
   820d8:	da400404 	addi	r9,sp,16
   820dc:	e5ffef16 	blt	fp,r23,8209c <___vfprintf_internal_r+0x440>
   820e0:	b021883a 	mov	r16,r22
   820e4:	b82d883a 	mov	r22,r23
   820e8:	902f883a 	mov	r23,r18
   820ec:	dc813817 	ldw	r18,1248(sp)
   820f0:	4dc00015 	stw	r23,0(r9)
   820f4:	4d800115 	stw	r22,4(r9)
   820f8:	4591883a 	add	r8,r8,r22
   820fc:	18c00044 	addi	r3,r3,1
   82100:	da011d15 	stw	r8,1140(sp)
   82104:	d8c11c15 	stw	r3,1136(sp)
   82108:	008001c4 	movi	r2,7
   8210c:	10c36d16 	blt	r2,r3,82ec4 <___vfprintf_internal_r+0x1268>
   82110:	4a400204 	addi	r9,r9,8
   82114:	00016206 	br	826a0 <___vfprintf_internal_r+0xa44>
   82118:	84000414 	ori	r16,r16,16
   8211c:	8080080c 	andi	r2,r16,32
   82120:	1000801e 	bne	r2,zero,82324 <___vfprintf_internal_r+0x6c8>
   82124:	8080040c 	andi	r2,r16,16
   82128:	1003da26 	beq	r2,zero,83094 <___vfprintf_internal_r+0x1438>
   8212c:	d8c12d17 	ldw	r3,1204(sp)
   82130:	002d883a 	mov	r22,zero
   82134:	1dc00017 	ldw	r23,0(r3)
   82138:	18c00104 	addi	r3,r3,4
   8213c:	d8c12d15 	stw	r3,1204(sp)
   82140:	b805883a 	mov	r2,r23
   82144:	0007883a 	mov	r3,zero
   82148:	d8012585 	stb	zero,1174(sp)
   8214c:	003f9a06 	br	81fb8 <___vfprintf_internal_r+0x35c>
   82150:	84000414 	ori	r16,r16,16
   82154:	8080080c 	andi	r2,r16,32
   82158:	10007b1e 	bne	r2,zero,82348 <___vfprintf_internal_r+0x6ec>
   8215c:	8080040c 	andi	r2,r16,16
   82160:	1003ed26 	beq	r2,zero,83118 <___vfprintf_internal_r+0x14bc>
   82164:	d9012d17 	ldw	r4,1204(sp)
   82168:	25c00017 	ldw	r23,0(r4)
   8216c:	21000104 	addi	r4,r4,4
   82170:	d9012d15 	stw	r4,1204(sp)
   82174:	b82dd7fa 	srai	r22,r23,31
   82178:	b005883a 	mov	r2,r22
   8217c:	1003230e 	bge	r2,zero,82e0c <___vfprintf_internal_r+0x11b0>
   82180:	05efc83a 	sub	r23,zero,r23
   82184:	b804c03a 	cmpne	r2,r23,zero
   82188:	05adc83a 	sub	r22,zero,r22
   8218c:	b0adc83a 	sub	r22,r22,r2
   82190:	00800b44 	movi	r2,45
   82194:	d8812585 	stb	r2,1174(sp)
   82198:	00c00044 	movi	r3,1
   8219c:	bd84b03a 	or	r2,r23,r22
   821a0:	003f8506 	br	81fb8 <___vfprintf_internal_r+0x35c>
   821a4:	da012e17 	ldw	r8,1208(sp)
   821a8:	d8812d15 	stw	r2,1204(sp)
   821ac:	0211c83a 	sub	r8,zero,r8
   821b0:	da012e15 	stw	r8,1208(sp)
   821b4:	84000114 	ori	r16,r16,4
   821b8:	ac800007 	ldb	r18,0(r21)
   821bc:	003f0506 	br	81dd4 <___vfprintf_internal_r+0x178>
   821c0:	d9013017 	ldw	r4,1216(sp)
   821c4:	d9412917 	ldw	r5,1188(sp)
   821c8:	00851b00 	call	851b0 <__swsetup_r>
   821cc:	10003d1e 	bne	r2,zero,822c4 <___vfprintf_internal_r+0x668>
   821d0:	d8c12917 	ldw	r3,1188(sp)
   821d4:	1880030b 	ldhu	r2,12(r3)
   821d8:	00c00284 	movi	r3,10
   821dc:	1100068c 	andi	r4,r2,26
   821e0:	20fec21e 	bne	r4,r3,81cec <___vfprintf_internal_r+0x90>
   821e4:	d9012917 	ldw	r4,1188(sp)
   821e8:	20c0038b 	ldhu	r3,14(r4)
   821ec:	193fffcc 	andi	r4,r3,65535
   821f0:	2120001c 	xori	r4,r4,32768
   821f4:	21200004 	addi	r4,r4,-32768
   821f8:	203ebc16 	blt	r4,zero,81cec <___vfprintf_internal_r+0x90>
   821fc:	da012917 	ldw	r8,1188(sp)
   82200:	d9013017 	ldw	r4,1216(sp)
   82204:	d9c12d17 	ldw	r7,1204(sp)
   82208:	42800717 	ldw	r10,28(r8)
   8220c:	42400917 	ldw	r9,36(r8)
   82210:	10bfff4c 	andi	r2,r2,65533
   82214:	02010004 	movi	r8,1024
   82218:	d881070d 	sth	r2,1052(sp)
   8221c:	d9410404 	addi	r5,sp,1040
   82220:	d8800404 	addi	r2,sp,16
   82224:	800d883a 	mov	r6,r16
   82228:	d8c1078d 	sth	r3,1054(sp)
   8222c:	da810b15 	stw	r10,1068(sp)
   82230:	da410d15 	stw	r9,1076(sp)
   82234:	d8810415 	stw	r2,1040(sp)
   82238:	d8810815 	stw	r2,1056(sp)
   8223c:	da010615 	stw	r8,1048(sp)
   82240:	da010915 	stw	r8,1060(sp)
   82244:	d8010a15 	stw	zero,1064(sp)
   82248:	0081c5c0 	call	81c5c <___vfprintf_internal_r>
   8224c:	d8812c15 	stw	r2,1200(sp)
   82250:	10000416 	blt	r2,zero,82264 <___vfprintf_internal_r+0x608>
   82254:	d9013017 	ldw	r4,1216(sp)
   82258:	d9410404 	addi	r5,sp,1040
   8225c:	0086b480 	call	86b48 <_fflush_r>
   82260:	1005d81e 	bne	r2,zero,839c4 <___vfprintf_internal_r+0x1d68>
   82264:	d881070b 	ldhu	r2,1052(sp)
   82268:	1080100c 	andi	r2,r2,64
   8226c:	10bfffcc 	andi	r2,r2,65535
   82270:	10a0001c 	xori	r2,r2,32768
   82274:	10a00004 	addi	r2,r2,-32768
   82278:	10001426 	beq	r2,zero,822cc <___vfprintf_internal_r+0x670>
   8227c:	d8c12917 	ldw	r3,1188(sp)
   82280:	1880030b 	ldhu	r2,12(r3)
   82284:	10801014 	ori	r2,r2,64
   82288:	1880030d 	sth	r2,12(r3)
   8228c:	00000f06 	br	822cc <___vfprintf_internal_r+0x670>
   82290:	d8811d17 	ldw	r2,1140(sp)
   82294:	10000426 	beq	r2,zero,822a8 <___vfprintf_internal_r+0x64c>
   82298:	d9013017 	ldw	r4,1216(sp)
   8229c:	d9412917 	ldw	r5,1188(sp)
   822a0:	d9811b04 	addi	r6,sp,1132
   822a4:	0081c280 	call	81c28 <__sprint_r>
   822a8:	d8c12917 	ldw	r3,1188(sp)
   822ac:	1880030b 	ldhu	r2,12(r3)
   822b0:	1080100c 	andi	r2,r2,64
   822b4:	10bfffcc 	andi	r2,r2,65535
   822b8:	10a0001c 	xori	r2,r2,32768
   822bc:	10a00004 	addi	r2,r2,-32768
   822c0:	10000226 	beq	r2,zero,822cc <___vfprintf_internal_r+0x670>
   822c4:	00bfffc4 	movi	r2,-1
   822c8:	d8812c15 	stw	r2,1200(sp)
   822cc:	d8812c17 	ldw	r2,1200(sp)
   822d0:	dfc14617 	ldw	ra,1304(sp)
   822d4:	df014517 	ldw	fp,1300(sp)
   822d8:	ddc14417 	ldw	r23,1296(sp)
   822dc:	dd814317 	ldw	r22,1292(sp)
   822e0:	dd414217 	ldw	r21,1288(sp)
   822e4:	dd014117 	ldw	r20,1284(sp)
   822e8:	dcc14017 	ldw	r19,1280(sp)
   822ec:	dc813f17 	ldw	r18,1276(sp)
   822f0:	dc413e17 	ldw	r17,1272(sp)
   822f4:	dc013d17 	ldw	r16,1268(sp)
   822f8:	dec14704 	addi	sp,sp,1308
   822fc:	f800283a 	ret
   82300:	d9412917 	ldw	r5,1188(sp)
   82304:	8809883a 	mov	r4,r17
   82308:	d9811b04 	addi	r6,sp,1132
   8230c:	0081c280 	call	81c28 <__sprint_r>
   82310:	103fe51e 	bne	r2,zero,822a8 <___vfprintf_internal_r+0x64c>
   82314:	da400404 	addi	r9,sp,16
   82318:	003e9d06 	br	81d90 <___vfprintf_internal_r+0x134>
   8231c:	0086df00 	call	86df0 <__sinit>
   82320:	003e6606 	br	81cbc <___vfprintf_internal_r+0x60>
   82324:	d8812d17 	ldw	r2,1204(sp)
   82328:	0007883a 	mov	r3,zero
   8232c:	15c00017 	ldw	r23,0(r2)
   82330:	15800117 	ldw	r22,4(r2)
   82334:	10800204 	addi	r2,r2,8
   82338:	d8812d15 	stw	r2,1204(sp)
   8233c:	d8012585 	stb	zero,1174(sp)
   82340:	bd84b03a 	or	r2,r23,r22
   82344:	003f1c06 	br	81fb8 <___vfprintf_internal_r+0x35c>
   82348:	d8c12d17 	ldw	r3,1204(sp)
   8234c:	18800117 	ldw	r2,4(r3)
   82350:	1dc00017 	ldw	r23,0(r3)
   82354:	18c00204 	addi	r3,r3,8
   82358:	d8c12d15 	stw	r3,1204(sp)
   8235c:	102d883a 	mov	r22,r2
   82360:	003f8606 	br	8217c <___vfprintf_internal_r+0x520>
   82364:	d8c12d17 	ldw	r3,1204(sp)
   82368:	d9012d17 	ldw	r4,1204(sp)
   8236c:	1dc00017 	ldw	r23,0(r3)
   82370:	1d800117 	ldw	r22,4(r3)
   82374:	21000204 	addi	r4,r4,8
   82378:	00c00044 	movi	r3,1
   8237c:	d9012d15 	stw	r4,1204(sp)
   82380:	bd84b03a 	or	r2,r23,r22
   82384:	d8012585 	stb	zero,1174(sp)
   82388:	003f0b06 	br	81fb8 <___vfprintf_internal_r+0x35c>
   8238c:	d9812585 	stb	r6,1174(sp)
   82390:	ac800007 	ldb	r18,0(r21)
   82394:	003e8f06 	br	81dd4 <___vfprintf_internal_r+0x178>
   82398:	ac800007 	ldb	r18,0(r21)
   8239c:	a9000044 	addi	r4,r21,1
   823a0:	92857d26 	beq	r18,r10,83998 <___vfprintf_internal_r+0x1d3c>
   823a4:	90bff404 	addi	r2,r18,-48
   823a8:	0039883a 	mov	fp,zero
   823ac:	28800736 	bltu	r5,r2,823cc <___vfprintf_internal_r+0x770>
   823b0:	24800007 	ldb	r18,0(r4)
   823b4:	e70002a4 	muli	fp,fp,10
   823b8:	21000044 	addi	r4,r4,1
   823bc:	1739883a 	add	fp,r2,fp
   823c0:	90bff404 	addi	r2,r18,-48
   823c4:	28bffa2e 	bgeu	r5,r2,823b0 <___vfprintf_internal_r+0x754>
   823c8:	e0044216 	blt	fp,zero,834d4 <___vfprintf_internal_r+0x1878>
   823cc:	202b883a 	mov	r21,r4
   823d0:	003e8106 	br	81dd8 <___vfprintf_internal_r+0x17c>
   823d4:	d8812587 	ldb	r2,1174(sp)
   823d8:	1003581e 	bne	r2,zero,8313c <___vfprintf_internal_r+0x14e0>
   823dc:	dac12585 	stb	r11,1174(sp)
   823e0:	ac800007 	ldb	r18,0(r21)
   823e4:	003e7b06 	br	81dd4 <___vfprintf_internal_r+0x178>
   823e8:	84000054 	ori	r16,r16,1
   823ec:	ac800007 	ldb	r18,0(r21)
   823f0:	003e7806 	br	81dd4 <___vfprintf_internal_r+0x178>
   823f4:	84002014 	ori	r16,r16,128
   823f8:	ac800007 	ldb	r18,0(r21)
   823fc:	003e7506 	br	81dd4 <___vfprintf_internal_r+0x178>
   82400:	020002b4 	movhi	r8,10
   82404:	4225da04 	addi	r8,r8,-26776
   82408:	da013615 	stw	r8,1240(sp)
   8240c:	8080080c 	andi	r2,r16,32
   82410:	10009626 	beq	r2,zero,8266c <___vfprintf_internal_r+0xa10>
   82414:	d8812d17 	ldw	r2,1204(sp)
   82418:	15c00017 	ldw	r23,0(r2)
   8241c:	15800117 	ldw	r22,4(r2)
   82420:	10800204 	addi	r2,r2,8
   82424:	d8812d15 	stw	r2,1204(sp)
   82428:	8080004c 	andi	r2,r16,1
   8242c:	1002ae26 	beq	r2,zero,82ee8 <___vfprintf_internal_r+0x128c>
   82430:	bd84b03a 	or	r2,r23,r22
   82434:	10032a26 	beq	r2,zero,830e0 <___vfprintf_internal_r+0x1484>
   82438:	00c00c04 	movi	r3,48
   8243c:	d8c12505 	stb	r3,1172(sp)
   82440:	dc812545 	stb	r18,1173(sp)
   82444:	84000094 	ori	r16,r16,2
   82448:	00c00084 	movi	r3,2
   8244c:	d8012585 	stb	zero,1174(sp)
   82450:	003ed906 	br	81fb8 <___vfprintf_internal_r+0x35c>
   82454:	84001014 	ori	r16,r16,64
   82458:	ac800007 	ldb	r18,0(r21)
   8245c:	003e5d06 	br	81dd4 <___vfprintf_internal_r+0x178>
   82460:	ac800007 	ldb	r18,0(r21)
   82464:	a805883a 	mov	r2,r21
   82468:	91c43226 	beq	r18,r7,83534 <___vfprintf_internal_r+0x18d8>
   8246c:	84000414 	ori	r16,r16,16
   82470:	003e5806 	br	81dd4 <___vfprintf_internal_r+0x178>
   82474:	d8c12d17 	ldw	r3,1204(sp)
   82478:	02000044 	movi	r8,1
   8247c:	da012815 	stw	r8,1184(sp)
   82480:	18800017 	ldw	r2,0(r3)
   82484:	18c00104 	addi	r3,r3,4
   82488:	d8012585 	stb	zero,1174(sp)
   8248c:	d8810405 	stb	r2,1040(sp)
   82490:	d8c12d15 	stw	r3,1204(sp)
   82494:	da012b15 	stw	r8,1196(sp)
   82498:	dcc10404 	addi	r19,sp,1040
   8249c:	d8013115 	stw	zero,1220(sp)
   824a0:	003ee006 	br	82024 <___vfprintf_internal_r+0x3c8>
   824a4:	8080080c 	andi	r2,r16,32
   824a8:	10031026 	beq	r2,zero,830ec <___vfprintf_internal_r+0x1490>
   824ac:	d9012d17 	ldw	r4,1204(sp)
   824b0:	da012c17 	ldw	r8,1200(sp)
   824b4:	20800017 	ldw	r2,0(r4)
   824b8:	4007d7fa 	srai	r3,r8,31
   824bc:	21000104 	addi	r4,r4,4
   824c0:	d9012d15 	stw	r4,1204(sp)
   824c4:	12000015 	stw	r8,0(r2)
   824c8:	10c00115 	stw	r3,4(r2)
   824cc:	003e1906 	br	81d34 <___vfprintf_internal_r+0xd8>
   824d0:	da012d17 	ldw	r8,1204(sp)
   824d4:	d9012d17 	ldw	r4,1204(sp)
   824d8:	42000017 	ldw	r8,0(r8)
   824dc:	20800104 	addi	r2,r4,4
   824e0:	da012e15 	stw	r8,1208(sp)
   824e4:	403f2f16 	blt	r8,zero,821a4 <___vfprintf_internal_r+0x548>
   824e8:	d8812d15 	stw	r2,1204(sp)
   824ec:	ac800007 	ldb	r18,0(r21)
   824f0:	003e3806 	br	81dd4 <___vfprintf_internal_r+0x178>
   824f4:	0009883a 	mov	r4,zero
   824f8:	90bff404 	addi	r2,r18,-48
   824fc:	ac800007 	ldb	r18,0(r21)
   82500:	210002a4 	muli	r4,r4,10
   82504:	ad400044 	addi	r21,r21,1
   82508:	2089883a 	add	r4,r4,r2
   8250c:	90bff404 	addi	r2,r18,-48
   82510:	28bffa2e 	bgeu	r5,r2,824fc <___vfprintf_internal_r+0x8a0>
   82514:	d9012e15 	stw	r4,1208(sp)
   82518:	003e2f06 	br	81dd8 <___vfprintf_internal_r+0x17c>
   8251c:	8080020c 	andi	r2,r16,8
   82520:	1002d426 	beq	r2,zero,83074 <___vfprintf_internal_r+0x1418>
   82524:	d8c12d17 	ldw	r3,1204(sp)
   82528:	1d800017 	ldw	r22,0(r3)
   8252c:	1d000117 	ldw	r20,4(r3)
   82530:	18c00204 	addi	r3,r3,8
   82534:	d8c12d15 	stw	r3,1204(sp)
   82538:	dd813315 	stw	r22,1228(sp)
   8253c:	dd013415 	stw	r20,1232(sp)
   82540:	b009883a 	mov	r4,r22
   82544:	a00b883a 	mov	r5,r20
   82548:	da413c15 	stw	r9,1264(sp)
   8254c:	008a5680 	call	8a568 <__isinfd>
   82550:	da413c17 	ldw	r9,1264(sp)
   82554:	b009883a 	mov	r4,r22
   82558:	a00b883a 	mov	r5,r20
   8255c:	10035726 	beq	r2,zero,832bc <___vfprintf_internal_r+0x1660>
   82560:	000d883a 	mov	r6,zero
   82564:	000f883a 	mov	r7,zero
   82568:	008f6740 	call	8f674 <__ltdf2>
   8256c:	da413c17 	ldw	r9,1264(sp)
   82570:	10041b16 	blt	r2,zero,835e0 <___vfprintf_internal_r+0x1984>
   82574:	d8812583 	ldbu	r2,1174(sp)
   82578:	00c011c4 	movi	r3,71
   8257c:	1c830b16 	blt	r3,r18,831ac <___vfprintf_internal_r+0x1550>
   82580:	04c002b4 	movhi	r19,10
   82584:	9ce5d604 	addi	r19,r19,-26792
   82588:	020000c4 	movi	r8,3
   8258c:	00ffdfc4 	movi	r3,-129
   82590:	da012815 	stw	r8,1184(sp)
   82594:	80e0703a 	and	r16,r16,r3
   82598:	da012b15 	stw	r8,1196(sp)
   8259c:	d8013115 	stw	zero,1220(sp)
   825a0:	003e9906 	br	82008 <___vfprintf_internal_r+0x3ac>
   825a4:	d8812d17 	ldw	r2,1204(sp)
   825a8:	d8c12d17 	ldw	r3,1204(sp)
   825ac:	020002b4 	movhi	r8,10
   825b0:	4225df04 	addi	r8,r8,-26756
   825b4:	15c00017 	ldw	r23,0(r2)
   825b8:	00800c04 	movi	r2,48
   825bc:	18c00104 	addi	r3,r3,4
   825c0:	d8812505 	stb	r2,1172(sp)
   825c4:	00801e04 	movi	r2,120
   825c8:	d8812545 	stb	r2,1173(sp)
   825cc:	d8c12d15 	stw	r3,1204(sp)
   825d0:	002d883a 	mov	r22,zero
   825d4:	84000094 	ori	r16,r16,2
   825d8:	da013615 	stw	r8,1240(sp)
   825dc:	00c00084 	movi	r3,2
   825e0:	04801e04 	movi	r18,120
   825e4:	b805883a 	mov	r2,r23
   825e8:	d8012585 	stb	zero,1174(sp)
   825ec:	003e7206 	br	81fb8 <___vfprintf_internal_r+0x35c>
   825f0:	84000814 	ori	r16,r16,32
   825f4:	ac800007 	ldb	r18,0(r21)
   825f8:	003df606 	br	81dd4 <___vfprintf_internal_r+0x178>
   825fc:	d8812d17 	ldw	r2,1204(sp)
   82600:	d8012585 	stb	zero,1174(sp)
   82604:	14c00017 	ldw	r19,0(r2)
   82608:	15c00104 	addi	r23,r2,4
   8260c:	98040126 	beq	r19,zero,83614 <___vfprintf_internal_r+0x19b8>
   82610:	9809883a 	mov	r4,r19
   82614:	e003dd16 	blt	fp,zero,8358c <___vfprintf_internal_r+0x1930>
   82618:	000b883a 	mov	r5,zero
   8261c:	e00d883a 	mov	r6,fp
   82620:	da413c15 	stw	r9,1264(sp)
   82624:	008881c0 	call	8881c <memchr>
   82628:	da413c17 	ldw	r9,1264(sp)
   8262c:	10042e26 	beq	r2,zero,836e8 <___vfprintf_internal_r+0x1a8c>
   82630:	14c5c83a 	sub	r2,r2,r19
   82634:	d8812b15 	stw	r2,1196(sp)
   82638:	e083790e 	bge	fp,r2,83420 <___vfprintf_internal_r+0x17c4>
   8263c:	df012815 	stw	fp,1184(sp)
   82640:	e0049516 	blt	fp,zero,83898 <___vfprintf_internal_r+0x1c3c>
   82644:	d8812583 	ldbu	r2,1174(sp)
   82648:	df012b15 	stw	fp,1196(sp)
   8264c:	ddc12d15 	stw	r23,1204(sp)
   82650:	d8013115 	stw	zero,1220(sp)
   82654:	003e6c06 	br	82008 <___vfprintf_internal_r+0x3ac>
   82658:	020002b4 	movhi	r8,10
   8265c:	4225df04 	addi	r8,r8,-26756
   82660:	da013615 	stw	r8,1240(sp)
   82664:	8080080c 	andi	r2,r16,32
   82668:	103f6a1e 	bne	r2,zero,82414 <___vfprintf_internal_r+0x7b8>
   8266c:	8080040c 	andi	r2,r16,16
   82670:	10029326 	beq	r2,zero,830c0 <___vfprintf_internal_r+0x1464>
   82674:	d8c12d17 	ldw	r3,1204(sp)
   82678:	002d883a 	mov	r22,zero
   8267c:	1dc00017 	ldw	r23,0(r3)
   82680:	18c00104 	addi	r3,r3,4
   82684:	d8c12d15 	stw	r3,1204(sp)
   82688:	003f6706 	br	82428 <___vfprintf_internal_r+0x7cc>
   8268c:	84000214 	ori	r16,r16,8
   82690:	ac800007 	ldb	r18,0(r21)
   82694:	003dcf06 	br	81dd4 <___vfprintf_internal_r+0x178>
   82698:	da011d17 	ldw	r8,1140(sp)
   8269c:	d8c11c17 	ldw	r3,1136(sp)
   826a0:	d8812587 	ldb	r2,1174(sp)
   826a4:	10000b26 	beq	r2,zero,826d4 <___vfprintf_internal_r+0xa78>
   826a8:	d8812584 	addi	r2,sp,1174
   826ac:	48800015 	stw	r2,0(r9)
   826b0:	00800044 	movi	r2,1
   826b4:	48800115 	stw	r2,4(r9)
   826b8:	4091883a 	add	r8,r8,r2
   826bc:	1887883a 	add	r3,r3,r2
   826c0:	da011d15 	stw	r8,1140(sp)
   826c4:	d8c11c15 	stw	r3,1136(sp)
   826c8:	008001c4 	movi	r2,7
   826cc:	10c18516 	blt	r2,r3,82ce4 <___vfprintf_internal_r+0x1088>
   826d0:	4a400204 	addi	r9,r9,8
   826d4:	d9012a17 	ldw	r4,1192(sp)
   826d8:	20000b26 	beq	r4,zero,82708 <___vfprintf_internal_r+0xaac>
   826dc:	d8812504 	addi	r2,sp,1172
   826e0:	48800015 	stw	r2,0(r9)
   826e4:	00800084 	movi	r2,2
   826e8:	48800115 	stw	r2,4(r9)
   826ec:	4091883a 	add	r8,r8,r2
   826f0:	18c00044 	addi	r3,r3,1
   826f4:	da011d15 	stw	r8,1140(sp)
   826f8:	d8c11c15 	stw	r3,1136(sp)
   826fc:	008001c4 	movi	r2,7
   82700:	10c18116 	blt	r2,r3,82d08 <___vfprintf_internal_r+0x10ac>
   82704:	4a400204 	addi	r9,r9,8
   82708:	d9012f17 	ldw	r4,1212(sp)
   8270c:	00802004 	movi	r2,128
   82710:	2080fc26 	beq	r4,r2,82b04 <___vfprintf_internal_r+0xea8>
   82714:	d8813117 	ldw	r2,1220(sp)
   82718:	d9012b17 	ldw	r4,1196(sp)
   8271c:	112fc83a 	sub	r23,r2,r4
   82720:	05c02a0e 	bge	zero,r23,827cc <___vfprintf_internal_r+0xb70>
   82724:	07000404 	movi	fp,16
   82728:	050002b4 	movhi	r20,10
   8272c:	a525ea84 	addi	r20,r20,-26710
   82730:	e5c01d0e 	bge	fp,r23,827a8 <___vfprintf_internal_r+0xb4c>
   82734:	dc812a15 	stw	r18,1192(sp)
   82738:	058001c4 	movi	r22,7
   8273c:	a025883a 	mov	r18,r20
   82740:	8029883a 	mov	r20,r16
   82744:	dc012917 	ldw	r16,1188(sp)
   82748:	00000306 	br	82758 <___vfprintf_internal_r+0xafc>
   8274c:	bdfffc04 	addi	r23,r23,-16
   82750:	4a400204 	addi	r9,r9,8
   82754:	e5c0110e 	bge	fp,r23,8279c <___vfprintf_internal_r+0xb40>
   82758:	4c800015 	stw	r18,0(r9)
   8275c:	4f000115 	stw	fp,4(r9)
   82760:	42000404 	addi	r8,r8,16
   82764:	18c00044 	addi	r3,r3,1
   82768:	da011d15 	stw	r8,1140(sp)
   8276c:	d8c11c15 	stw	r3,1136(sp)
   82770:	b0fff60e 	bge	r22,r3,8274c <___vfprintf_internal_r+0xaf0>
   82774:	8809883a 	mov	r4,r17
   82778:	800b883a 	mov	r5,r16
   8277c:	d9811b04 	addi	r6,sp,1132
   82780:	0081c280 	call	81c28 <__sprint_r>
   82784:	103ec81e 	bne	r2,zero,822a8 <___vfprintf_internal_r+0x64c>
   82788:	bdfffc04 	addi	r23,r23,-16
   8278c:	da011d17 	ldw	r8,1140(sp)
   82790:	d8c11c17 	ldw	r3,1136(sp)
   82794:	da400404 	addi	r9,sp,16
   82798:	e5ffef16 	blt	fp,r23,82758 <___vfprintf_internal_r+0xafc>
   8279c:	a021883a 	mov	r16,r20
   827a0:	9029883a 	mov	r20,r18
   827a4:	dc812a17 	ldw	r18,1192(sp)
   827a8:	4d000015 	stw	r20,0(r9)
   827ac:	4dc00115 	stw	r23,4(r9)
   827b0:	45d1883a 	add	r8,r8,r23
   827b4:	18c00044 	addi	r3,r3,1
   827b8:	da011d15 	stw	r8,1140(sp)
   827bc:	d8c11c15 	stw	r3,1136(sp)
   827c0:	008001c4 	movi	r2,7
   827c4:	10c13e16 	blt	r2,r3,82cc0 <___vfprintf_internal_r+0x1064>
   827c8:	4a400204 	addi	r9,r9,8
   827cc:	8080400c 	andi	r2,r16,256
   827d0:	1000831e 	bne	r2,zero,829e0 <___vfprintf_internal_r+0xd84>
   827d4:	d8812b17 	ldw	r2,1196(sp)
   827d8:	4cc00015 	stw	r19,0(r9)
   827dc:	48800115 	stw	r2,4(r9)
   827e0:	4091883a 	add	r8,r8,r2
   827e4:	18c00044 	addi	r3,r3,1
   827e8:	da011d15 	stw	r8,1140(sp)
   827ec:	d8c11c15 	stw	r3,1136(sp)
   827f0:	008001c4 	movi	r2,7
   827f4:	10c05316 	blt	r2,r3,82944 <___vfprintf_internal_r+0xce8>
   827f8:	4a400204 	addi	r9,r9,8
   827fc:	8400010c 	andi	r16,r16,4
   82800:	80002e26 	beq	r16,zero,828bc <___vfprintf_internal_r+0xc60>
   82804:	d8812e17 	ldw	r2,1208(sp)
   82808:	d8c12817 	ldw	r3,1184(sp)
   8280c:	10e1c83a 	sub	r16,r2,r3
   82810:	04002a0e 	bge	zero,r16,828bc <___vfprintf_internal_r+0xc60>
   82814:	04800404 	movi	r18,16
   82818:	d8c11c17 	ldw	r3,1136(sp)
   8281c:	05c002b4 	movhi	r23,10
   82820:	bde5e684 	addi	r23,r23,-26726
   82824:	9400170e 	bge	r18,r16,82884 <___vfprintf_internal_r+0xc28>
   82828:	04c001c4 	movi	r19,7
   8282c:	dd012917 	ldw	r20,1188(sp)
   82830:	00000306 	br	82840 <___vfprintf_internal_r+0xbe4>
   82834:	843ffc04 	addi	r16,r16,-16
   82838:	4a400204 	addi	r9,r9,8
   8283c:	9400110e 	bge	r18,r16,82884 <___vfprintf_internal_r+0xc28>
   82840:	4dc00015 	stw	r23,0(r9)
   82844:	4c800115 	stw	r18,4(r9)
   82848:	42000404 	addi	r8,r8,16
   8284c:	18c00044 	addi	r3,r3,1
   82850:	da011d15 	stw	r8,1140(sp)
   82854:	d8c11c15 	stw	r3,1136(sp)
   82858:	98fff60e 	bge	r19,r3,82834 <___vfprintf_internal_r+0xbd8>
   8285c:	8809883a 	mov	r4,r17
   82860:	a00b883a 	mov	r5,r20
   82864:	d9811b04 	addi	r6,sp,1132
   82868:	0081c280 	call	81c28 <__sprint_r>
   8286c:	103e8e1e 	bne	r2,zero,822a8 <___vfprintf_internal_r+0x64c>
   82870:	843ffc04 	addi	r16,r16,-16
   82874:	da011d17 	ldw	r8,1140(sp)
   82878:	d8c11c17 	ldw	r3,1136(sp)
   8287c:	da400404 	addi	r9,sp,16
   82880:	943fef16 	blt	r18,r16,82840 <___vfprintf_internal_r+0xbe4>
   82884:	4dc00015 	stw	r23,0(r9)
   82888:	4c000115 	stw	r16,4(r9)
   8288c:	8211883a 	add	r8,r16,r8
   82890:	18c00044 	addi	r3,r3,1
   82894:	da011d15 	stw	r8,1140(sp)
   82898:	d8c11c15 	stw	r3,1136(sp)
   8289c:	008001c4 	movi	r2,7
   828a0:	10c0060e 	bge	r2,r3,828bc <___vfprintf_internal_r+0xc60>
   828a4:	d9412917 	ldw	r5,1188(sp)
   828a8:	8809883a 	mov	r4,r17
   828ac:	d9811b04 	addi	r6,sp,1132
   828b0:	0081c280 	call	81c28 <__sprint_r>
   828b4:	103e7c1e 	bne	r2,zero,822a8 <___vfprintf_internal_r+0x64c>
   828b8:	da011d17 	ldw	r8,1140(sp)
   828bc:	dd012817 	ldw	r20,1184(sp)
   828c0:	d9012e17 	ldw	r4,1208(sp)
   828c4:	a100010e 	bge	r20,r4,828cc <___vfprintf_internal_r+0xc70>
   828c8:	2029883a 	mov	r20,r4
   828cc:	d8812c17 	ldw	r2,1200(sp)
   828d0:	1505883a 	add	r2,r2,r20
   828d4:	d8812c15 	stw	r2,1200(sp)
   828d8:	4000b91e 	bne	r8,zero,82bc0 <___vfprintf_internal_r+0xf64>
   828dc:	d8011c15 	stw	zero,1136(sp)
   828e0:	a8800007 	ldb	r2,0(r21)
   828e4:	da400404 	addi	r9,sp,16
   828e8:	103d141e 	bne	r2,zero,81d3c <___vfprintf_internal_r+0xe0>
   828ec:	a825883a 	mov	r18,r21
   828f0:	003d2a06 	br	81d9c <___vfprintf_internal_r+0x140>
   828f4:	d9412917 	ldw	r5,1188(sp)
   828f8:	8809883a 	mov	r4,r17
   828fc:	d9811b04 	addi	r6,sp,1132
   82900:	0081c280 	call	81c28 <__sprint_r>
   82904:	103e681e 	bne	r2,zero,822a8 <___vfprintf_internal_r+0x64c>
   82908:	da011d17 	ldw	r8,1140(sp)
   8290c:	da400404 	addi	r9,sp,16
   82910:	8080004c 	andi	r2,r16,1
   82914:	103fb926 	beq	r2,zero,827fc <___vfprintf_internal_r+0xba0>
   82918:	d8c11c17 	ldw	r3,1136(sp)
   8291c:	d9013717 	ldw	r4,1244(sp)
   82920:	00800044 	movi	r2,1
   82924:	48800115 	stw	r2,4(r9)
   82928:	49000015 	stw	r4,0(r9)
   8292c:	4091883a 	add	r8,r8,r2
   82930:	1887883a 	add	r3,r3,r2
   82934:	da011d15 	stw	r8,1140(sp)
   82938:	d8c11c15 	stw	r3,1136(sp)
   8293c:	008001c4 	movi	r2,7
   82940:	10ffad0e 	bge	r2,r3,827f8 <___vfprintf_internal_r+0xb9c>
   82944:	d9412917 	ldw	r5,1188(sp)
   82948:	8809883a 	mov	r4,r17
   8294c:	d9811b04 	addi	r6,sp,1132
   82950:	0081c280 	call	81c28 <__sprint_r>
   82954:	103e541e 	bne	r2,zero,822a8 <___vfprintf_internal_r+0x64c>
   82958:	da400404 	addi	r9,sp,16
   8295c:	da011d17 	ldw	r8,1140(sp)
   82960:	003fa606 	br	827fc <___vfprintf_internal_r+0xba0>
   82964:	18803fcc 	andi	r2,r3,255
   82968:	00c00044 	movi	r3,1
   8296c:	10c10126 	beq	r2,r3,82d74 <___vfprintf_internal_r+0x1118>
   82970:	00c00084 	movi	r3,2
   82974:	10c0f026 	beq	r2,r3,82d38 <___vfprintf_internal_r+0x10dc>
   82978:	d8c10dc4 	addi	r3,sp,1079
   8297c:	b808d0fa 	srli	r4,r23,3
   82980:	b00a977a 	slli	r5,r22,29
   82984:	b02cd0fa 	srli	r22,r22,3
   82988:	bdc001cc 	andi	r23,r23,7
   8298c:	b8800c04 	addi	r2,r23,48
   82990:	292eb03a 	or	r23,r5,r4
   82994:	18800005 	stb	r2,0(r3)
   82998:	bd88b03a 	or	r4,r23,r22
   8299c:	1827883a 	mov	r19,r3
   829a0:	18ffffc4 	addi	r3,r3,-1
   829a4:	203ff51e 	bne	r4,zero,8297c <___vfprintf_internal_r+0xd20>
   829a8:	8100004c 	andi	r4,r16,1
   829ac:	980b883a 	mov	r5,r19
   829b0:	20000726 	beq	r4,zero,829d0 <___vfprintf_internal_r+0xd74>
   829b4:	10803fcc 	andi	r2,r2,255
   829b8:	1080201c 	xori	r2,r2,128
   829bc:	10bfe004 	addi	r2,r2,-128
   829c0:	01000c04 	movi	r4,48
   829c4:	11000226 	beq	r2,r4,829d0 <___vfprintf_internal_r+0xd74>
   829c8:	1827883a 	mov	r19,r3
   829cc:	293fffc5 	stb	r4,-1(r5)
   829d0:	d8812717 	ldw	r2,1180(sp)
   829d4:	14c5c83a 	sub	r2,r2,r19
   829d8:	d8812b15 	stw	r2,1196(sp)
   829dc:	003d8406 	br	81ff0 <___vfprintf_internal_r+0x394>
   829e0:	00801944 	movi	r2,101
   829e4:	14807c0e 	bge	r2,r18,82bd8 <___vfprintf_internal_r+0xf7c>
   829e8:	d9013317 	ldw	r4,1228(sp)
   829ec:	d9413417 	ldw	r5,1232(sp)
   829f0:	000d883a 	mov	r6,zero
   829f4:	000f883a 	mov	r7,zero
   829f8:	d8c13b15 	stw	r3,1260(sp)
   829fc:	da013a15 	stw	r8,1256(sp)
   82a00:	da413c15 	stw	r9,1264(sp)
   82a04:	008f4f40 	call	8f4f4 <__eqdf2>
   82a08:	d8c13b17 	ldw	r3,1260(sp)
   82a0c:	da013a17 	ldw	r8,1256(sp)
   82a10:	da413c17 	ldw	r9,1264(sp)
   82a14:	1001001e 	bne	r2,zero,82e18 <___vfprintf_internal_r+0x11bc>
   82a18:	008002b4 	movhi	r2,10
   82a1c:	10a5e604 	addi	r2,r2,-26728
   82a20:	48800015 	stw	r2,0(r9)
   82a24:	00800044 	movi	r2,1
   82a28:	48800115 	stw	r2,4(r9)
   82a2c:	4091883a 	add	r8,r8,r2
   82a30:	1887883a 	add	r3,r3,r2
   82a34:	da011d15 	stw	r8,1140(sp)
   82a38:	d8c11c15 	stw	r3,1136(sp)
   82a3c:	008001c4 	movi	r2,7
   82a40:	10c1dd16 	blt	r2,r3,831b8 <___vfprintf_internal_r+0x155c>
   82a44:	4a400204 	addi	r9,r9,8
   82a48:	d8812417 	ldw	r2,1168(sp)
   82a4c:	d8c13217 	ldw	r3,1224(sp)
   82a50:	10c00216 	blt	r2,r3,82a5c <___vfprintf_internal_r+0xe00>
   82a54:	8080004c 	andi	r2,r16,1
   82a58:	103f6826 	beq	r2,zero,827fc <___vfprintf_internal_r+0xba0>
   82a5c:	d8c11c17 	ldw	r3,1136(sp)
   82a60:	d9013717 	ldw	r4,1244(sp)
   82a64:	00800044 	movi	r2,1
   82a68:	48800115 	stw	r2,4(r9)
   82a6c:	49000015 	stw	r4,0(r9)
   82a70:	4091883a 	add	r8,r8,r2
   82a74:	1887883a 	add	r3,r3,r2
   82a78:	da011d15 	stw	r8,1140(sp)
   82a7c:	d8c11c15 	stw	r3,1136(sp)
   82a80:	008001c4 	movi	r2,7
   82a84:	10c2af16 	blt	r2,r3,83544 <___vfprintf_internal_r+0x18e8>
   82a88:	4a400204 	addi	r9,r9,8
   82a8c:	d8813217 	ldw	r2,1224(sp)
   82a90:	14bfffc4 	addi	r18,r2,-1
   82a94:	04bf590e 	bge	zero,r18,827fc <___vfprintf_internal_r+0xba0>
   82a98:	04c00404 	movi	r19,16
   82a9c:	d8c11c17 	ldw	r3,1136(sp)
   82aa0:	050002b4 	movhi	r20,10
   82aa4:	a525ea84 	addi	r20,r20,-26710
   82aa8:	9c81630e 	bge	r19,r18,83038 <___vfprintf_internal_r+0x13dc>
   82aac:	058001c4 	movi	r22,7
   82ab0:	ddc12917 	ldw	r23,1188(sp)
   82ab4:	00000306 	br	82ac4 <___vfprintf_internal_r+0xe68>
   82ab8:	4a400204 	addi	r9,r9,8
   82abc:	94bffc04 	addi	r18,r18,-16
   82ac0:	9c815d0e 	bge	r19,r18,83038 <___vfprintf_internal_r+0x13dc>
   82ac4:	4d000015 	stw	r20,0(r9)
   82ac8:	4cc00115 	stw	r19,4(r9)
   82acc:	42000404 	addi	r8,r8,16
   82ad0:	18c00044 	addi	r3,r3,1
   82ad4:	da011d15 	stw	r8,1140(sp)
   82ad8:	d8c11c15 	stw	r3,1136(sp)
   82adc:	b0fff60e 	bge	r22,r3,82ab8 <___vfprintf_internal_r+0xe5c>
   82ae0:	8809883a 	mov	r4,r17
   82ae4:	b80b883a 	mov	r5,r23
   82ae8:	d9811b04 	addi	r6,sp,1132
   82aec:	0081c280 	call	81c28 <__sprint_r>
   82af0:	103ded1e 	bne	r2,zero,822a8 <___vfprintf_internal_r+0x64c>
   82af4:	da011d17 	ldw	r8,1140(sp)
   82af8:	d8c11c17 	ldw	r3,1136(sp)
   82afc:	da400404 	addi	r9,sp,16
   82b00:	003fee06 	br	82abc <___vfprintf_internal_r+0xe60>
   82b04:	d8812e17 	ldw	r2,1208(sp)
   82b08:	d9012817 	ldw	r4,1184(sp)
   82b0c:	112fc83a 	sub	r23,r2,r4
   82b10:	05ff000e 	bge	zero,r23,82714 <___vfprintf_internal_r+0xab8>
   82b14:	07000404 	movi	fp,16
   82b18:	050002b4 	movhi	r20,10
   82b1c:	a525ea84 	addi	r20,r20,-26710
   82b20:	e5c01d0e 	bge	fp,r23,82b98 <___vfprintf_internal_r+0xf3c>
   82b24:	dc812a15 	stw	r18,1192(sp)
   82b28:	058001c4 	movi	r22,7
   82b2c:	a025883a 	mov	r18,r20
   82b30:	8029883a 	mov	r20,r16
   82b34:	dc012917 	ldw	r16,1188(sp)
   82b38:	00000306 	br	82b48 <___vfprintf_internal_r+0xeec>
   82b3c:	bdfffc04 	addi	r23,r23,-16
   82b40:	4a400204 	addi	r9,r9,8
   82b44:	e5c0110e 	bge	fp,r23,82b8c <___vfprintf_internal_r+0xf30>
   82b48:	4c800015 	stw	r18,0(r9)
   82b4c:	4f000115 	stw	fp,4(r9)
   82b50:	42000404 	addi	r8,r8,16
   82b54:	18c00044 	addi	r3,r3,1
   82b58:	da011d15 	stw	r8,1140(sp)
   82b5c:	d8c11c15 	stw	r3,1136(sp)
   82b60:	b0fff60e 	bge	r22,r3,82b3c <___vfprintf_internal_r+0xee0>
   82b64:	8809883a 	mov	r4,r17
   82b68:	800b883a 	mov	r5,r16
   82b6c:	d9811b04 	addi	r6,sp,1132
   82b70:	0081c280 	call	81c28 <__sprint_r>
   82b74:	103dcc1e 	bne	r2,zero,822a8 <___vfprintf_internal_r+0x64c>
   82b78:	bdfffc04 	addi	r23,r23,-16
   82b7c:	da011d17 	ldw	r8,1140(sp)
   82b80:	d8c11c17 	ldw	r3,1136(sp)
   82b84:	da400404 	addi	r9,sp,16
   82b88:	e5ffef16 	blt	fp,r23,82b48 <___vfprintf_internal_r+0xeec>
   82b8c:	a021883a 	mov	r16,r20
   82b90:	9029883a 	mov	r20,r18
   82b94:	dc812a17 	ldw	r18,1192(sp)
   82b98:	4d000015 	stw	r20,0(r9)
   82b9c:	4dc00115 	stw	r23,4(r9)
   82ba0:	45d1883a 	add	r8,r8,r23
   82ba4:	18c00044 	addi	r3,r3,1
   82ba8:	da011d15 	stw	r8,1140(sp)
   82bac:	d8c11c15 	stw	r3,1136(sp)
   82bb0:	008001c4 	movi	r2,7
   82bb4:	10c11716 	blt	r2,r3,83014 <___vfprintf_internal_r+0x13b8>
   82bb8:	4a400204 	addi	r9,r9,8
   82bbc:	003ed506 	br	82714 <___vfprintf_internal_r+0xab8>
   82bc0:	d9412917 	ldw	r5,1188(sp)
   82bc4:	8809883a 	mov	r4,r17
   82bc8:	d9811b04 	addi	r6,sp,1132
   82bcc:	0081c280 	call	81c28 <__sprint_r>
   82bd0:	103f4226 	beq	r2,zero,828dc <___vfprintf_internal_r+0xc80>
   82bd4:	003db406 	br	822a8 <___vfprintf_internal_r+0x64c>
   82bd8:	d9013217 	ldw	r4,1224(sp)
   82bdc:	00800044 	movi	r2,1
   82be0:	4cc00015 	stw	r19,0(r9)
   82be4:	1100e10e 	bge	r2,r4,82f6c <___vfprintf_internal_r+0x1310>
   82be8:	00800044 	movi	r2,1
   82bec:	48800115 	stw	r2,4(r9)
   82bf0:	4091883a 	add	r8,r8,r2
   82bf4:	1887883a 	add	r3,r3,r2
   82bf8:	da011d15 	stw	r8,1140(sp)
   82bfc:	d8c11c15 	stw	r3,1136(sp)
   82c00:	008001c4 	movi	r2,7
   82c04:	10c0ed16 	blt	r2,r3,82fbc <___vfprintf_internal_r+0x1360>
   82c08:	4a400204 	addi	r9,r9,8
   82c0c:	d8813717 	ldw	r2,1244(sp)
   82c10:	48800015 	stw	r2,0(r9)
   82c14:	00800044 	movi	r2,1
   82c18:	48800115 	stw	r2,4(r9)
   82c1c:	4091883a 	add	r8,r8,r2
   82c20:	1887883a 	add	r3,r3,r2
   82c24:	da011d15 	stw	r8,1140(sp)
   82c28:	d8c11c15 	stw	r3,1136(sp)
   82c2c:	008001c4 	movi	r2,7
   82c30:	10c0eb16 	blt	r2,r3,82fe0 <___vfprintf_internal_r+0x1384>
   82c34:	4c800204 	addi	r18,r9,8
   82c38:	d9013317 	ldw	r4,1228(sp)
   82c3c:	d9413417 	ldw	r5,1232(sp)
   82c40:	000d883a 	mov	r6,zero
   82c44:	000f883a 	mov	r7,zero
   82c48:	d8c13b15 	stw	r3,1260(sp)
   82c4c:	da013a15 	stw	r8,1256(sp)
   82c50:	008f5500 	call	8f550 <__nedf2>
   82c54:	d8c13b17 	ldw	r3,1260(sp)
   82c58:	da013a17 	ldw	r8,1256(sp)
   82c5c:	1000a626 	beq	r2,zero,82ef8 <___vfprintf_internal_r+0x129c>
   82c60:	d9013217 	ldw	r4,1224(sp)
   82c64:	9cc00044 	addi	r19,r19,1
   82c68:	94c00015 	stw	r19,0(r18)
   82c6c:	20bfffc4 	addi	r2,r4,-1
   82c70:	90800115 	stw	r2,4(r18)
   82c74:	4091883a 	add	r8,r8,r2
   82c78:	18c00044 	addi	r3,r3,1
   82c7c:	da011d15 	stw	r8,1140(sp)
   82c80:	d8c11c15 	stw	r3,1136(sp)
   82c84:	008001c4 	movi	r2,7
   82c88:	10c0c316 	blt	r2,r3,82f98 <___vfprintf_internal_r+0x133c>
   82c8c:	94800204 	addi	r18,r18,8
   82c90:	d9013517 	ldw	r4,1236(sp)
   82c94:	d8811fc4 	addi	r2,sp,1151
   82c98:	90800015 	stw	r2,0(r18)
   82c9c:	91000115 	stw	r4,4(r18)
   82ca0:	4111883a 	add	r8,r8,r4
   82ca4:	18c00044 	addi	r3,r3,1
   82ca8:	da011d15 	stw	r8,1140(sp)
   82cac:	d8c11c15 	stw	r3,1136(sp)
   82cb0:	008001c4 	movi	r2,7
   82cb4:	10ff2316 	blt	r2,r3,82944 <___vfprintf_internal_r+0xce8>
   82cb8:	92400204 	addi	r9,r18,8
   82cbc:	003ecf06 	br	827fc <___vfprintf_internal_r+0xba0>
   82cc0:	d9412917 	ldw	r5,1188(sp)
   82cc4:	8809883a 	mov	r4,r17
   82cc8:	d9811b04 	addi	r6,sp,1132
   82ccc:	0081c280 	call	81c28 <__sprint_r>
   82cd0:	103d751e 	bne	r2,zero,822a8 <___vfprintf_internal_r+0x64c>
   82cd4:	da011d17 	ldw	r8,1140(sp)
   82cd8:	d8c11c17 	ldw	r3,1136(sp)
   82cdc:	da400404 	addi	r9,sp,16
   82ce0:	003eba06 	br	827cc <___vfprintf_internal_r+0xb70>
   82ce4:	d9412917 	ldw	r5,1188(sp)
   82ce8:	8809883a 	mov	r4,r17
   82cec:	d9811b04 	addi	r6,sp,1132
   82cf0:	0081c280 	call	81c28 <__sprint_r>
   82cf4:	103d6c1e 	bne	r2,zero,822a8 <___vfprintf_internal_r+0x64c>
   82cf8:	da011d17 	ldw	r8,1140(sp)
   82cfc:	d8c11c17 	ldw	r3,1136(sp)
   82d00:	da400404 	addi	r9,sp,16
   82d04:	003e7306 	br	826d4 <___vfprintf_internal_r+0xa78>
   82d08:	d9412917 	ldw	r5,1188(sp)
   82d0c:	8809883a 	mov	r4,r17
   82d10:	d9811b04 	addi	r6,sp,1132
   82d14:	0081c280 	call	81c28 <__sprint_r>
   82d18:	103d631e 	bne	r2,zero,822a8 <___vfprintf_internal_r+0x64c>
   82d1c:	da011d17 	ldw	r8,1140(sp)
   82d20:	d8c11c17 	ldw	r3,1136(sp)
   82d24:	da400404 	addi	r9,sp,16
   82d28:	003e7706 	br	82708 <___vfprintf_internal_r+0xaac>
   82d2c:	d8012b15 	stw	zero,1196(sp)
   82d30:	dcc10e04 	addi	r19,sp,1080
   82d34:	003cae06 	br	81ff0 <___vfprintf_internal_r+0x394>
   82d38:	d9413617 	ldw	r5,1240(sp)
   82d3c:	d8810dc4 	addi	r2,sp,1079
   82d40:	b8c003cc 	andi	r3,r23,15
   82d44:	b008973a 	slli	r4,r22,28
   82d48:	28c7883a 	add	r3,r5,r3
   82d4c:	b82ed13a 	srli	r23,r23,4
   82d50:	18c00003 	ldbu	r3,0(r3)
   82d54:	b02cd13a 	srli	r22,r22,4
   82d58:	25eeb03a 	or	r23,r4,r23
   82d5c:	10c00005 	stb	r3,0(r2)
   82d60:	bd86b03a 	or	r3,r23,r22
   82d64:	1027883a 	mov	r19,r2
   82d68:	10bfffc4 	addi	r2,r2,-1
   82d6c:	183ff41e 	bne	r3,zero,82d40 <___vfprintf_internal_r+0x10e4>
   82d70:	003f1706 	br	829d0 <___vfprintf_internal_r+0xd74>
   82d74:	b0025826 	beq	r22,zero,836d8 <___vfprintf_internal_r+0x1a7c>
   82d78:	b807883a 	mov	r3,r23
   82d7c:	d8810dc4 	addi	r2,sp,1079
   82d80:	882f883a 	mov	r23,r17
   82d84:	04c00244 	movi	r19,9
   82d88:	8023883a 	mov	r17,r16
   82d8c:	da412815 	stw	r9,1184(sp)
   82d90:	1821883a 	mov	r16,r3
   82d94:	8009883a 	mov	r4,r16
   82d98:	b00b883a 	mov	r5,r22
   82d9c:	01800284 	movi	r6,10
   82da0:	000f883a 	mov	r7,zero
   82da4:	1029883a 	mov	r20,r2
   82da8:	008e5c40 	call	8e5c4 <__umoddi3>
   82dac:	10800c04 	addi	r2,r2,48
   82db0:	8009883a 	mov	r4,r16
   82db4:	b00b883a 	mov	r5,r22
   82db8:	a0800005 	stb	r2,0(r20)
   82dbc:	01800284 	movi	r6,10
   82dc0:	000f883a 	mov	r7,zero
   82dc4:	008dffc0 	call	8dffc <__udivdi3>
   82dc8:	1021883a 	mov	r16,r2
   82dcc:	182d883a 	mov	r22,r3
   82dd0:	a0bfffc4 	addi	r2,r20,-1
   82dd4:	183fef1e 	bne	r3,zero,82d94 <___vfprintf_internal_r+0x1138>
   82dd8:	9c3fee36 	bltu	r19,r16,82d94 <___vfprintf_internal_r+0x1138>
   82ddc:	da412817 	ldw	r9,1184(sp)
   82de0:	8005883a 	mov	r2,r16
   82de4:	8821883a 	mov	r16,r17
   82de8:	b823883a 	mov	r17,r23
   82dec:	102f883a 	mov	r23,r2
   82df0:	d8812717 	ldw	r2,1180(sp)
   82df4:	a4ffffc4 	addi	r19,r20,-1
   82df8:	bdc00c04 	addi	r23,r23,48
   82dfc:	14c5c83a 	sub	r2,r2,r19
   82e00:	a5ffffc5 	stb	r23,-1(r20)
   82e04:	d8812b15 	stw	r2,1196(sp)
   82e08:	003c7906 	br	81ff0 <___vfprintf_internal_r+0x394>
   82e0c:	00c00044 	movi	r3,1
   82e10:	bd84b03a 	or	r2,r23,r22
   82e14:	003c6806 	br	81fb8 <___vfprintf_internal_r+0x35c>
   82e18:	dc812417 	ldw	r18,1168(sp)
   82e1c:	0480ee0e 	bge	zero,r18,831d8 <___vfprintf_internal_r+0x157c>
   82e20:	d9013217 	ldw	r4,1224(sp)
   82e24:	4cc00015 	stw	r19,0(r9)
   82e28:	9100c616 	blt	r18,r4,83144 <___vfprintf_internal_r+0x14e8>
   82e2c:	49000115 	stw	r4,4(r9)
   82e30:	4111883a 	add	r8,r8,r4
   82e34:	18c00044 	addi	r3,r3,1
   82e38:	da011d15 	stw	r8,1140(sp)
   82e3c:	d8c11c15 	stw	r3,1136(sp)
   82e40:	008001c4 	movi	r2,7
   82e44:	10c20916 	blt	r2,r3,8366c <___vfprintf_internal_r+0x1a10>
   82e48:	4a400204 	addi	r9,r9,8
   82e4c:	d8813217 	ldw	r2,1224(sp)
   82e50:	90a5c83a 	sub	r18,r18,r2
   82e54:	04beae0e 	bge	zero,r18,82910 <___vfprintf_internal_r+0xcb4>
   82e58:	04c00404 	movi	r19,16
   82e5c:	d8c11c17 	ldw	r3,1136(sp)
   82e60:	050002b4 	movhi	r20,10
   82e64:	a525ea84 	addi	r20,r20,-26710
   82e68:	9c81be0e 	bge	r19,r18,83564 <___vfprintf_internal_r+0x1908>
   82e6c:	058001c4 	movi	r22,7
   82e70:	ddc12917 	ldw	r23,1188(sp)
   82e74:	00000306 	br	82e84 <___vfprintf_internal_r+0x1228>
   82e78:	4a400204 	addi	r9,r9,8
   82e7c:	94bffc04 	addi	r18,r18,-16
   82e80:	9c81b80e 	bge	r19,r18,83564 <___vfprintf_internal_r+0x1908>
   82e84:	4d000015 	stw	r20,0(r9)
   82e88:	4cc00115 	stw	r19,4(r9)
   82e8c:	42000404 	addi	r8,r8,16
   82e90:	18c00044 	addi	r3,r3,1
   82e94:	da011d15 	stw	r8,1140(sp)
   82e98:	d8c11c15 	stw	r3,1136(sp)
   82e9c:	b0fff60e 	bge	r22,r3,82e78 <___vfprintf_internal_r+0x121c>
   82ea0:	8809883a 	mov	r4,r17
   82ea4:	b80b883a 	mov	r5,r23
   82ea8:	d9811b04 	addi	r6,sp,1132
   82eac:	0081c280 	call	81c28 <__sprint_r>
   82eb0:	103cfd1e 	bne	r2,zero,822a8 <___vfprintf_internal_r+0x64c>
   82eb4:	da011d17 	ldw	r8,1140(sp)
   82eb8:	d8c11c17 	ldw	r3,1136(sp)
   82ebc:	da400404 	addi	r9,sp,16
   82ec0:	003fee06 	br	82e7c <___vfprintf_internal_r+0x1220>
   82ec4:	d9412917 	ldw	r5,1188(sp)
   82ec8:	8809883a 	mov	r4,r17
   82ecc:	d9811b04 	addi	r6,sp,1132
   82ed0:	0081c280 	call	81c28 <__sprint_r>
   82ed4:	103cf41e 	bne	r2,zero,822a8 <___vfprintf_internal_r+0x64c>
   82ed8:	da011d17 	ldw	r8,1140(sp)
   82edc:	d8c11c17 	ldw	r3,1136(sp)
   82ee0:	da400404 	addi	r9,sp,16
   82ee4:	003dee06 	br	826a0 <___vfprintf_internal_r+0xa44>
   82ee8:	00c00084 	movi	r3,2
   82eec:	bd84b03a 	or	r2,r23,r22
   82ef0:	d8012585 	stb	zero,1174(sp)
   82ef4:	003c3006 	br	81fb8 <___vfprintf_internal_r+0x35c>
   82ef8:	d8813217 	ldw	r2,1224(sp)
   82efc:	14ffffc4 	addi	r19,r2,-1
   82f00:	04ff630e 	bge	zero,r19,82c90 <___vfprintf_internal_r+0x1034>
   82f04:	05800404 	movi	r22,16
   82f08:	050002b4 	movhi	r20,10
   82f0c:	a525ea84 	addi	r20,r20,-26710
   82f10:	b4c03c0e 	bge	r22,r19,83004 <___vfprintf_internal_r+0x13a8>
   82f14:	05c001c4 	movi	r23,7
   82f18:	df012917 	ldw	fp,1188(sp)
   82f1c:	00000306 	br	82f2c <___vfprintf_internal_r+0x12d0>
   82f20:	94800204 	addi	r18,r18,8
   82f24:	9cfffc04 	addi	r19,r19,-16
   82f28:	b4c0360e 	bge	r22,r19,83004 <___vfprintf_internal_r+0x13a8>
   82f2c:	95000015 	stw	r20,0(r18)
   82f30:	95800115 	stw	r22,4(r18)
   82f34:	42000404 	addi	r8,r8,16
   82f38:	18c00044 	addi	r3,r3,1
   82f3c:	da011d15 	stw	r8,1140(sp)
   82f40:	d8c11c15 	stw	r3,1136(sp)
   82f44:	b8fff60e 	bge	r23,r3,82f20 <___vfprintf_internal_r+0x12c4>
   82f48:	8809883a 	mov	r4,r17
   82f4c:	e00b883a 	mov	r5,fp
   82f50:	d9811b04 	addi	r6,sp,1132
   82f54:	0081c280 	call	81c28 <__sprint_r>
   82f58:	103cd31e 	bne	r2,zero,822a8 <___vfprintf_internal_r+0x64c>
   82f5c:	da011d17 	ldw	r8,1140(sp)
   82f60:	d8c11c17 	ldw	r3,1136(sp)
   82f64:	dc800404 	addi	r18,sp,16
   82f68:	003fee06 	br	82f24 <___vfprintf_internal_r+0x12c8>
   82f6c:	8088703a 	and	r4,r16,r2
   82f70:	203f1d1e 	bne	r4,zero,82be8 <___vfprintf_internal_r+0xf8c>
   82f74:	48800115 	stw	r2,4(r9)
   82f78:	42000044 	addi	r8,r8,1
   82f7c:	18c00044 	addi	r3,r3,1
   82f80:	da011d15 	stw	r8,1140(sp)
   82f84:	d8c11c15 	stw	r3,1136(sp)
   82f88:	008001c4 	movi	r2,7
   82f8c:	10c00216 	blt	r2,r3,82f98 <___vfprintf_internal_r+0x133c>
   82f90:	4c800204 	addi	r18,r9,8
   82f94:	003f3e06 	br	82c90 <___vfprintf_internal_r+0x1034>
   82f98:	d9412917 	ldw	r5,1188(sp)
   82f9c:	8809883a 	mov	r4,r17
   82fa0:	d9811b04 	addi	r6,sp,1132
   82fa4:	0081c280 	call	81c28 <__sprint_r>
   82fa8:	103cbf1e 	bne	r2,zero,822a8 <___vfprintf_internal_r+0x64c>
   82fac:	dc800404 	addi	r18,sp,16
   82fb0:	da011d17 	ldw	r8,1140(sp)
   82fb4:	d8c11c17 	ldw	r3,1136(sp)
   82fb8:	003f3506 	br	82c90 <___vfprintf_internal_r+0x1034>
   82fbc:	d9412917 	ldw	r5,1188(sp)
   82fc0:	8809883a 	mov	r4,r17
   82fc4:	d9811b04 	addi	r6,sp,1132
   82fc8:	0081c280 	call	81c28 <__sprint_r>
   82fcc:	103cb61e 	bne	r2,zero,822a8 <___vfprintf_internal_r+0x64c>
   82fd0:	da011d17 	ldw	r8,1140(sp)
   82fd4:	d8c11c17 	ldw	r3,1136(sp)
   82fd8:	da400404 	addi	r9,sp,16
   82fdc:	003f0b06 	br	82c0c <___vfprintf_internal_r+0xfb0>
   82fe0:	d9412917 	ldw	r5,1188(sp)
   82fe4:	8809883a 	mov	r4,r17
   82fe8:	d9811b04 	addi	r6,sp,1132
   82fec:	0081c280 	call	81c28 <__sprint_r>
   82ff0:	103cad1e 	bne	r2,zero,822a8 <___vfprintf_internal_r+0x64c>
   82ff4:	da011d17 	ldw	r8,1140(sp)
   82ff8:	d8c11c17 	ldw	r3,1136(sp)
   82ffc:	dc800404 	addi	r18,sp,16
   83000:	003f0d06 	br	82c38 <___vfprintf_internal_r+0xfdc>
   83004:	95000015 	stw	r20,0(r18)
   83008:	94c00115 	stw	r19,4(r18)
   8300c:	44d1883a 	add	r8,r8,r19
   83010:	003f1906 	br	82c78 <___vfprintf_internal_r+0x101c>
   83014:	d9412917 	ldw	r5,1188(sp)
   83018:	8809883a 	mov	r4,r17
   8301c:	d9811b04 	addi	r6,sp,1132
   83020:	0081c280 	call	81c28 <__sprint_r>
   83024:	103ca01e 	bne	r2,zero,822a8 <___vfprintf_internal_r+0x64c>
   83028:	da011d17 	ldw	r8,1140(sp)
   8302c:	d8c11c17 	ldw	r3,1136(sp)
   83030:	da400404 	addi	r9,sp,16
   83034:	003db706 	br	82714 <___vfprintf_internal_r+0xab8>
   83038:	4d000015 	stw	r20,0(r9)
   8303c:	4c800115 	stw	r18,4(r9)
   83040:	4491883a 	add	r8,r8,r18
   83044:	003de706 	br	827e4 <___vfprintf_internal_r+0xb88>
   83048:	8080100c 	andi	r2,r16,64
   8304c:	10010226 	beq	r2,zero,83458 <___vfprintf_internal_r+0x17fc>
   83050:	d8812d17 	ldw	r2,1204(sp)
   83054:	002d883a 	mov	r22,zero
   83058:	00c00044 	movi	r3,1
   8305c:	15c0000b 	ldhu	r23,0(r2)
   83060:	10800104 	addi	r2,r2,4
   83064:	d8812d15 	stw	r2,1204(sp)
   83068:	d8012585 	stb	zero,1174(sp)
   8306c:	b805883a 	mov	r2,r23
   83070:	003bd106 	br	81fb8 <___vfprintf_internal_r+0x35c>
   83074:	d9012d17 	ldw	r4,1204(sp)
   83078:	25800017 	ldw	r22,0(r4)
   8307c:	25000117 	ldw	r20,4(r4)
   83080:	21000204 	addi	r4,r4,8
   83084:	d9012d15 	stw	r4,1204(sp)
   83088:	dd813315 	stw	r22,1228(sp)
   8308c:	dd013415 	stw	r20,1232(sp)
   83090:	003d2b06 	br	82540 <___vfprintf_internal_r+0x8e4>
   83094:	8080100c 	andi	r2,r16,64
   83098:	1000fe26 	beq	r2,zero,83494 <___vfprintf_internal_r+0x1838>
   8309c:	d9012d17 	ldw	r4,1204(sp)
   830a0:	002d883a 	mov	r22,zero
   830a4:	0007883a 	mov	r3,zero
   830a8:	25c0000b 	ldhu	r23,0(r4)
   830ac:	21000104 	addi	r4,r4,4
   830b0:	d9012d15 	stw	r4,1204(sp)
   830b4:	b805883a 	mov	r2,r23
   830b8:	d8012585 	stb	zero,1174(sp)
   830bc:	003bbe06 	br	81fb8 <___vfprintf_internal_r+0x35c>
   830c0:	8080100c 	andi	r2,r16,64
   830c4:	1000ed26 	beq	r2,zero,8347c <___vfprintf_internal_r+0x1820>
   830c8:	d9012d17 	ldw	r4,1204(sp)
   830cc:	002d883a 	mov	r22,zero
   830d0:	25c0000b 	ldhu	r23,0(r4)
   830d4:	21000104 	addi	r4,r4,4
   830d8:	d9012d15 	stw	r4,1204(sp)
   830dc:	003cd206 	br	82428 <___vfprintf_internal_r+0x7cc>
   830e0:	00c00084 	movi	r3,2
   830e4:	d8012585 	stb	zero,1174(sp)
   830e8:	003bb306 	br	81fb8 <___vfprintf_internal_r+0x35c>
   830ec:	8080040c 	andi	r2,r16,16
   830f0:	1000f11e 	bne	r2,zero,834b8 <___vfprintf_internal_r+0x185c>
   830f4:	8400100c 	andi	r16,r16,64
   830f8:	80015526 	beq	r16,zero,83650 <___vfprintf_internal_r+0x19f4>
   830fc:	da012d17 	ldw	r8,1204(sp)
   83100:	d8c12c17 	ldw	r3,1200(sp)
   83104:	40800017 	ldw	r2,0(r8)
   83108:	42000104 	addi	r8,r8,4
   8310c:	da012d15 	stw	r8,1204(sp)
   83110:	10c0000d 	sth	r3,0(r2)
   83114:	003b0706 	br	81d34 <___vfprintf_internal_r+0xd8>
   83118:	8080100c 	andi	r2,r16,64
   8311c:	1000c726 	beq	r2,zero,8343c <___vfprintf_internal_r+0x17e0>
   83120:	da012d17 	ldw	r8,1204(sp)
   83124:	45c0000f 	ldh	r23,0(r8)
   83128:	42000104 	addi	r8,r8,4
   8312c:	da012d15 	stw	r8,1204(sp)
   83130:	b82dd7fa 	srai	r22,r23,31
   83134:	b005883a 	mov	r2,r22
   83138:	003c1006 	br	8217c <___vfprintf_internal_r+0x520>
   8313c:	ac800007 	ldb	r18,0(r21)
   83140:	003b2406 	br	81dd4 <___vfprintf_internal_r+0x178>
   83144:	4c800115 	stw	r18,4(r9)
   83148:	9211883a 	add	r8,r18,r8
   8314c:	18c00044 	addi	r3,r3,1
   83150:	da011d15 	stw	r8,1140(sp)
   83154:	d8c11c15 	stw	r3,1136(sp)
   83158:	008001c4 	movi	r2,7
   8315c:	10c15416 	blt	r2,r3,836b0 <___vfprintf_internal_r+0x1a54>
   83160:	4a400204 	addi	r9,r9,8
   83164:	d8813717 	ldw	r2,1244(sp)
   83168:	9ca7883a 	add	r19,r19,r18
   8316c:	48800015 	stw	r2,0(r9)
   83170:	00800044 	movi	r2,1
   83174:	48800115 	stw	r2,4(r9)
   83178:	4091883a 	add	r8,r8,r2
   8317c:	1887883a 	add	r3,r3,r2
   83180:	da011d15 	stw	r8,1140(sp)
   83184:	d8c11c15 	stw	r3,1136(sp)
   83188:	008001c4 	movi	r2,7
   8318c:	10c14016 	blt	r2,r3,83690 <___vfprintf_internal_r+0x1a34>
   83190:	4a400204 	addi	r9,r9,8
   83194:	d9013217 	ldw	r4,1224(sp)
   83198:	da011d17 	ldw	r8,1140(sp)
   8319c:	d8c11c17 	ldw	r3,1136(sp)
   831a0:	24a5c83a 	sub	r18,r4,r18
   831a4:	4cc00015 	stw	r19,0(r9)
   831a8:	003fa406 	br	8303c <___vfprintf_internal_r+0x13e0>
   831ac:	04c002b4 	movhi	r19,10
   831b0:	9ce5d704 	addi	r19,r19,-26788
   831b4:	003cf406 	br	82588 <___vfprintf_internal_r+0x92c>
   831b8:	d9412917 	ldw	r5,1188(sp)
   831bc:	8809883a 	mov	r4,r17
   831c0:	d9811b04 	addi	r6,sp,1132
   831c4:	0081c280 	call	81c28 <__sprint_r>
   831c8:	103c371e 	bne	r2,zero,822a8 <___vfprintf_internal_r+0x64c>
   831cc:	da011d17 	ldw	r8,1140(sp)
   831d0:	da400404 	addi	r9,sp,16
   831d4:	003e1c06 	br	82a48 <___vfprintf_internal_r+0xdec>
   831d8:	008002b4 	movhi	r2,10
   831dc:	10a5e604 	addi	r2,r2,-26728
   831e0:	48800015 	stw	r2,0(r9)
   831e4:	00800044 	movi	r2,1
   831e8:	48800115 	stw	r2,4(r9)
   831ec:	4091883a 	add	r8,r8,r2
   831f0:	1887883a 	add	r3,r3,r2
   831f4:	da011d15 	stw	r8,1140(sp)
   831f8:	d8c11c15 	stw	r3,1136(sp)
   831fc:	008001c4 	movi	r2,7
   83200:	10c0c316 	blt	r2,r3,83510 <___vfprintf_internal_r+0x18b4>
   83204:	4a400204 	addi	r9,r9,8
   83208:	9000041e 	bne	r18,zero,8321c <___vfprintf_internal_r+0x15c0>
   8320c:	d8c13217 	ldw	r3,1224(sp)
   83210:	1800021e 	bne	r3,zero,8321c <___vfprintf_internal_r+0x15c0>
   83214:	8080004c 	andi	r2,r16,1
   83218:	103d7826 	beq	r2,zero,827fc <___vfprintf_internal_r+0xba0>
   8321c:	d8c11c17 	ldw	r3,1136(sp)
   83220:	d9013717 	ldw	r4,1244(sp)
   83224:	00800044 	movi	r2,1
   83228:	48800115 	stw	r2,4(r9)
   8322c:	49000015 	stw	r4,0(r9)
   83230:	4091883a 	add	r8,r8,r2
   83234:	1887883a 	add	r3,r3,r2
   83238:	da011d15 	stw	r8,1140(sp)
   8323c:	d8c11c15 	stw	r3,1136(sp)
   83240:	008001c4 	movi	r2,7
   83244:	10c12e16 	blt	r2,r3,83700 <___vfprintf_internal_r+0x1aa4>
   83248:	4a400204 	addi	r9,r9,8
   8324c:	04a5c83a 	sub	r18,zero,r18
   83250:	0480de0e 	bge	zero,r18,835cc <___vfprintf_internal_r+0x1970>
   83254:	05800404 	movi	r22,16
   83258:	050002b4 	movhi	r20,10
   8325c:	a525ea84 	addi	r20,r20,-26710
   83260:	b480e20e 	bge	r22,r18,835ec <___vfprintf_internal_r+0x1990>
   83264:	05c001c4 	movi	r23,7
   83268:	df012917 	ldw	fp,1188(sp)
   8326c:	00000306 	br	8327c <___vfprintf_internal_r+0x1620>
   83270:	4a400204 	addi	r9,r9,8
   83274:	94bffc04 	addi	r18,r18,-16
   83278:	b480dc0e 	bge	r22,r18,835ec <___vfprintf_internal_r+0x1990>
   8327c:	4d000015 	stw	r20,0(r9)
   83280:	4d800115 	stw	r22,4(r9)
   83284:	42000404 	addi	r8,r8,16
   83288:	18c00044 	addi	r3,r3,1
   8328c:	da011d15 	stw	r8,1140(sp)
   83290:	d8c11c15 	stw	r3,1136(sp)
   83294:	b8fff60e 	bge	r23,r3,83270 <___vfprintf_internal_r+0x1614>
   83298:	8809883a 	mov	r4,r17
   8329c:	e00b883a 	mov	r5,fp
   832a0:	d9811b04 	addi	r6,sp,1132
   832a4:	0081c280 	call	81c28 <__sprint_r>
   832a8:	103bff1e 	bne	r2,zero,822a8 <___vfprintf_internal_r+0x64c>
   832ac:	da011d17 	ldw	r8,1140(sp)
   832b0:	d8c11c17 	ldw	r3,1136(sp)
   832b4:	da400404 	addi	r9,sp,16
   832b8:	003fee06 	br	83274 <___vfprintf_internal_r+0x1618>
   832bc:	da413c15 	stw	r9,1264(sp)
   832c0:	008a5a00 	call	8a5a0 <__isnand>
   832c4:	da413c17 	ldw	r9,1264(sp)
   832c8:	1000851e 	bne	r2,zero,834e0 <___vfprintf_internal_r+0x1884>
   832cc:	00bfffc4 	movi	r2,-1
   832d0:	e0817626 	beq	fp,r2,838ac <___vfprintf_internal_r+0x1c50>
   832d4:	008019c4 	movi	r2,103
   832d8:	90817126 	beq	r18,r2,838a0 <___vfprintf_internal_r+0x1c44>
   832dc:	008011c4 	movi	r2,71
   832e0:	90816f26 	beq	r18,r2,838a0 <___vfprintf_internal_r+0x1c44>
   832e4:	82004014 	ori	r8,r16,256
   832e8:	da012a15 	stw	r8,1192(sp)
   832ec:	a0017116 	blt	r20,zero,838b4 <___vfprintf_internal_r+0x1c58>
   832f0:	d8012f05 	stb	zero,1212(sp)
   832f4:	00801984 	movi	r2,102
   832f8:	90811226 	beq	r18,r2,83744 <___vfprintf_internal_r+0x1ae8>
   832fc:	00801184 	movi	r2,70
   83300:	90811026 	beq	r18,r2,83744 <___vfprintf_internal_r+0x1ae8>
   83304:	00801944 	movi	r2,101
   83308:	90819b26 	beq	r18,r2,83978 <___vfprintf_internal_r+0x1d1c>
   8330c:	00801144 	movi	r2,69
   83310:	90819926 	beq	r18,r2,83978 <___vfprintf_internal_r+0x1d1c>
   83314:	e02f883a 	mov	r23,fp
   83318:	d8812404 	addi	r2,sp,1168
   8331c:	d8800115 	stw	r2,4(sp)
   83320:	d8812304 	addi	r2,sp,1164
   83324:	d8800215 	stw	r2,8(sp)
   83328:	d8812204 	addi	r2,sp,1160
   8332c:	ddc00015 	stw	r23,0(sp)
   83330:	d8800315 	stw	r2,12(sp)
   83334:	8809883a 	mov	r4,r17
   83338:	b00b883a 	mov	r5,r22
   8333c:	a00d883a 	mov	r6,r20
   83340:	01c00084 	movi	r7,2
   83344:	da413c15 	stw	r9,1264(sp)
   83348:	008552c0 	call	8552c <_dtoa_r>
   8334c:	1027883a 	mov	r19,r2
   83350:	008019c4 	movi	r2,103
   83354:	da413c17 	ldw	r9,1264(sp)
   83358:	90818c1e 	bne	r18,r2,8398c <___vfprintf_internal_r+0x1d30>
   8335c:	8080004c 	andi	r2,r16,1
   83360:	10017926 	beq	r2,zero,83948 <___vfprintf_internal_r+0x1cec>
   83364:	00801184 	movi	r2,70
   83368:	9dc7883a 	add	r3,r19,r23
   8336c:	90810626 	beq	r18,r2,83788 <___vfprintf_internal_r+0x1b2c>
   83370:	b009883a 	mov	r4,r22
   83374:	a00b883a 	mov	r5,r20
   83378:	000d883a 	mov	r6,zero
   8337c:	000f883a 	mov	r7,zero
   83380:	d8c13b15 	stw	r3,1260(sp)
   83384:	da413c15 	stw	r9,1264(sp)
   83388:	008f4f40 	call	8f4f4 <__eqdf2>
   8338c:	d8c13b17 	ldw	r3,1260(sp)
   83390:	da413c17 	ldw	r9,1264(sp)
   83394:	10000726 	beq	r2,zero,833b4 <___vfprintf_internal_r+0x1758>
   83398:	d8812217 	ldw	r2,1160(sp)
   8339c:	10c1962e 	bgeu	r2,r3,839f8 <___vfprintf_internal_r+0x1d9c>
   833a0:	01000c04 	movi	r4,48
   833a4:	11000005 	stb	r4,0(r2)
   833a8:	10800044 	addi	r2,r2,1
   833ac:	d8812215 	stw	r2,1160(sp)
   833b0:	10fffc1e 	bne	r2,r3,833a4 <___vfprintf_internal_r+0x1748>
   833b4:	1cc7c83a 	sub	r3,r3,r19
   833b8:	d8c13215 	stw	r3,1224(sp)
   833bc:	008019c4 	movi	r2,103
   833c0:	90810626 	beq	r18,r2,837dc <___vfprintf_internal_r+0x1b80>
   833c4:	008011c4 	movi	r2,71
   833c8:	90810426 	beq	r18,r2,837dc <___vfprintf_internal_r+0x1b80>
   833cc:	00801984 	movi	r2,102
   833d0:	90819a1e 	bne	r18,r2,83a3c <___vfprintf_internal_r+0x1de0>
   833d4:	d8812417 	ldw	r2,1168(sp)
   833d8:	d8812b15 	stw	r2,1196(sp)
   833dc:	0081880e 	bge	zero,r2,83a00 <___vfprintf_internal_r+0x1da4>
   833e0:	e000021e 	bne	fp,zero,833ec <___vfprintf_internal_r+0x1790>
   833e4:	8400004c 	andi	r16,r16,1
   833e8:	80000426 	beq	r16,zero,833fc <___vfprintf_internal_r+0x17a0>
   833ec:	d8812b17 	ldw	r2,1196(sp)
   833f0:	e2000044 	addi	r8,fp,1
   833f4:	1205883a 	add	r2,r2,r8
   833f8:	d8812b15 	stw	r2,1196(sp)
   833fc:	d8812815 	stw	r2,1184(sp)
   83400:	10011716 	blt	r2,zero,83860 <___vfprintf_internal_r+0x1c04>
   83404:	ddc12f07 	ldb	r23,1212(sp)
   83408:	b800ca26 	beq	r23,zero,83734 <___vfprintf_internal_r+0x1ad8>
   8340c:	00800b44 	movi	r2,45
   83410:	d8812585 	stb	r2,1174(sp)
   83414:	dc012a17 	ldw	r16,1192(sp)
   83418:	d8013115 	stw	zero,1220(sp)
   8341c:	003afe06 	br	82018 <___vfprintf_internal_r+0x3bc>
   83420:	d8812b17 	ldw	r2,1196(sp)
   83424:	d8812815 	stw	r2,1184(sp)
   83428:	10005e16 	blt	r2,zero,835a4 <___vfprintf_internal_r+0x1948>
   8342c:	d8812583 	ldbu	r2,1174(sp)
   83430:	ddc12d15 	stw	r23,1204(sp)
   83434:	d8013115 	stw	zero,1220(sp)
   83438:	003af306 	br	82008 <___vfprintf_internal_r+0x3ac>
   8343c:	d8812d17 	ldw	r2,1204(sp)
   83440:	15c00017 	ldw	r23,0(r2)
   83444:	10800104 	addi	r2,r2,4
   83448:	d8812d15 	stw	r2,1204(sp)
   8344c:	b82dd7fa 	srai	r22,r23,31
   83450:	b005883a 	mov	r2,r22
   83454:	003b4906 	br	8217c <___vfprintf_internal_r+0x520>
   83458:	d8c12d17 	ldw	r3,1204(sp)
   8345c:	002d883a 	mov	r22,zero
   83460:	1dc00017 	ldw	r23,0(r3)
   83464:	18c00104 	addi	r3,r3,4
   83468:	d8c12d15 	stw	r3,1204(sp)
   8346c:	b805883a 	mov	r2,r23
   83470:	00c00044 	movi	r3,1
   83474:	d8012585 	stb	zero,1174(sp)
   83478:	003acf06 	br	81fb8 <___vfprintf_internal_r+0x35c>
   8347c:	da012d17 	ldw	r8,1204(sp)
   83480:	002d883a 	mov	r22,zero
   83484:	45c00017 	ldw	r23,0(r8)
   83488:	42000104 	addi	r8,r8,4
   8348c:	da012d15 	stw	r8,1204(sp)
   83490:	003be506 	br	82428 <___vfprintf_internal_r+0x7cc>
   83494:	da012d17 	ldw	r8,1204(sp)
   83498:	002d883a 	mov	r22,zero
   8349c:	0007883a 	mov	r3,zero
   834a0:	45c00017 	ldw	r23,0(r8)
   834a4:	42000104 	addi	r8,r8,4
   834a8:	da012d15 	stw	r8,1204(sp)
   834ac:	b805883a 	mov	r2,r23
   834b0:	d8012585 	stb	zero,1174(sp)
   834b4:	003ac006 	br	81fb8 <___vfprintf_internal_r+0x35c>
   834b8:	d8c12d17 	ldw	r3,1204(sp)
   834bc:	d9012c17 	ldw	r4,1200(sp)
   834c0:	18800017 	ldw	r2,0(r3)
   834c4:	18c00104 	addi	r3,r3,4
   834c8:	d8c12d15 	stw	r3,1204(sp)
   834cc:	11000015 	stw	r4,0(r2)
   834d0:	003a1806 	br	81d34 <___vfprintf_internal_r+0xd8>
   834d4:	073fffc4 	movi	fp,-1
   834d8:	202b883a 	mov	r21,r4
   834dc:	003a3e06 	br	81dd8 <___vfprintf_internal_r+0x17c>
   834e0:	008011c4 	movi	r2,71
   834e4:	14809016 	blt	r2,r18,83728 <___vfprintf_internal_r+0x1acc>
   834e8:	04c002b4 	movhi	r19,10
   834ec:	9ce5d804 	addi	r19,r19,-26784
   834f0:	00c000c4 	movi	r3,3
   834f4:	00bfdfc4 	movi	r2,-129
   834f8:	80a0703a 	and	r16,r16,r2
   834fc:	d8c12815 	stw	r3,1184(sp)
   83500:	d8812583 	ldbu	r2,1174(sp)
   83504:	d8c12b15 	stw	r3,1196(sp)
   83508:	d8013115 	stw	zero,1220(sp)
   8350c:	003abe06 	br	82008 <___vfprintf_internal_r+0x3ac>
   83510:	d9412917 	ldw	r5,1188(sp)
   83514:	8809883a 	mov	r4,r17
   83518:	d9811b04 	addi	r6,sp,1132
   8351c:	0081c280 	call	81c28 <__sprint_r>
   83520:	103b611e 	bne	r2,zero,822a8 <___vfprintf_internal_r+0x64c>
   83524:	dc812417 	ldw	r18,1168(sp)
   83528:	da011d17 	ldw	r8,1140(sp)
   8352c:	da400404 	addi	r9,sp,16
   83530:	003f3506 	br	83208 <___vfprintf_internal_r+0x15ac>
   83534:	ad400044 	addi	r21,r21,1
   83538:	84000814 	ori	r16,r16,32
   8353c:	14800047 	ldb	r18,1(r2)
   83540:	003a2406 	br	81dd4 <___vfprintf_internal_r+0x178>
   83544:	d9412917 	ldw	r5,1188(sp)
   83548:	8809883a 	mov	r4,r17
   8354c:	d9811b04 	addi	r6,sp,1132
   83550:	0081c280 	call	81c28 <__sprint_r>
   83554:	103b541e 	bne	r2,zero,822a8 <___vfprintf_internal_r+0x64c>
   83558:	da011d17 	ldw	r8,1140(sp)
   8355c:	da400404 	addi	r9,sp,16
   83560:	003d4a06 	br	82a8c <___vfprintf_internal_r+0xe30>
   83564:	4d000015 	stw	r20,0(r9)
   83568:	4c800115 	stw	r18,4(r9)
   8356c:	4491883a 	add	r8,r8,r18
   83570:	18c00044 	addi	r3,r3,1
   83574:	da011d15 	stw	r8,1140(sp)
   83578:	d8c11c15 	stw	r3,1136(sp)
   8357c:	008001c4 	movi	r2,7
   83580:	10fcdc16 	blt	r2,r3,828f4 <___vfprintf_internal_r+0xc98>
   83584:	4a400204 	addi	r9,r9,8
   83588:	003ce106 	br	82910 <___vfprintf_internal_r+0xcb4>
   8358c:	da413c15 	stw	r9,1264(sp)
   83590:	0081b9c0 	call	81b9c <strlen>
   83594:	d8812b15 	stw	r2,1196(sp)
   83598:	d8812815 	stw	r2,1184(sp)
   8359c:	da413c17 	ldw	r9,1264(sp)
   835a0:	103fa20e 	bge	r2,zero,8342c <___vfprintf_internal_r+0x17d0>
   835a4:	d8012815 	stw	zero,1184(sp)
   835a8:	003fa006 	br	8342c <___vfprintf_internal_r+0x17d0>
   835ac:	d9412917 	ldw	r5,1188(sp)
   835b0:	8809883a 	mov	r4,r17
   835b4:	d9811b04 	addi	r6,sp,1132
   835b8:	0081c280 	call	81c28 <__sprint_r>
   835bc:	103b3a1e 	bne	r2,zero,822a8 <___vfprintf_internal_r+0x64c>
   835c0:	da011d17 	ldw	r8,1140(sp)
   835c4:	d8c11c17 	ldw	r3,1136(sp)
   835c8:	da400404 	addi	r9,sp,16
   835cc:	d8813217 	ldw	r2,1224(sp)
   835d0:	4cc00015 	stw	r19,0(r9)
   835d4:	48800115 	stw	r2,4(r9)
   835d8:	4091883a 	add	r8,r8,r2
   835dc:	003c8106 	br	827e4 <___vfprintf_internal_r+0xb88>
   835e0:	00800b44 	movi	r2,45
   835e4:	d8812585 	stb	r2,1174(sp)
   835e8:	003be306 	br	82578 <___vfprintf_internal_r+0x91c>
   835ec:	4d000015 	stw	r20,0(r9)
   835f0:	4c800115 	stw	r18,4(r9)
   835f4:	4491883a 	add	r8,r8,r18
   835f8:	18c00044 	addi	r3,r3,1
   835fc:	da011d15 	stw	r8,1140(sp)
   83600:	d8c11c15 	stw	r3,1136(sp)
   83604:	008001c4 	movi	r2,7
   83608:	10ffe816 	blt	r2,r3,835ac <___vfprintf_internal_r+0x1950>
   8360c:	4a400204 	addi	r9,r9,8
   83610:	003fee06 	br	835cc <___vfprintf_internal_r+0x1970>
   83614:	df012b15 	stw	fp,1196(sp)
   83618:	00800184 	movi	r2,6
   8361c:	1700072e 	bgeu	r2,fp,8363c <___vfprintf_internal_r+0x19e0>
   83620:	d8812b15 	stw	r2,1196(sp)
   83624:	d8812815 	stw	r2,1184(sp)
   83628:	ddc12d15 	stw	r23,1204(sp)
   8362c:	04c002b4 	movhi	r19,10
   83630:	9ce5e404 	addi	r19,r19,-26736
   83634:	d8013115 	stw	zero,1220(sp)
   83638:	003a7a06 	br	82024 <___vfprintf_internal_r+0x3c8>
   8363c:	d8812b17 	ldw	r2,1196(sp)
   83640:	d8812815 	stw	r2,1184(sp)
   83644:	103ff80e 	bge	r2,zero,83628 <___vfprintf_internal_r+0x19cc>
   83648:	d8012815 	stw	zero,1184(sp)
   8364c:	003ff606 	br	83628 <___vfprintf_internal_r+0x19cc>
   83650:	d9012d17 	ldw	r4,1204(sp)
   83654:	da012c17 	ldw	r8,1200(sp)
   83658:	20800017 	ldw	r2,0(r4)
   8365c:	21000104 	addi	r4,r4,4
   83660:	d9012d15 	stw	r4,1204(sp)
   83664:	12000015 	stw	r8,0(r2)
   83668:	0039b206 	br	81d34 <___vfprintf_internal_r+0xd8>
   8366c:	d9412917 	ldw	r5,1188(sp)
   83670:	8809883a 	mov	r4,r17
   83674:	d9811b04 	addi	r6,sp,1132
   83678:	0081c280 	call	81c28 <__sprint_r>
   8367c:	103b0a1e 	bne	r2,zero,822a8 <___vfprintf_internal_r+0x64c>
   83680:	dc812417 	ldw	r18,1168(sp)
   83684:	da011d17 	ldw	r8,1140(sp)
   83688:	da400404 	addi	r9,sp,16
   8368c:	003def06 	br	82e4c <___vfprintf_internal_r+0x11f0>
   83690:	d9412917 	ldw	r5,1188(sp)
   83694:	8809883a 	mov	r4,r17
   83698:	d9811b04 	addi	r6,sp,1132
   8369c:	0081c280 	call	81c28 <__sprint_r>
   836a0:	103b011e 	bne	r2,zero,822a8 <___vfprintf_internal_r+0x64c>
   836a4:	dc812417 	ldw	r18,1168(sp)
   836a8:	da400404 	addi	r9,sp,16
   836ac:	003eb906 	br	83194 <___vfprintf_internal_r+0x1538>
   836b0:	d9412917 	ldw	r5,1188(sp)
   836b4:	8809883a 	mov	r4,r17
   836b8:	d9811b04 	addi	r6,sp,1132
   836bc:	0081c280 	call	81c28 <__sprint_r>
   836c0:	103af91e 	bne	r2,zero,822a8 <___vfprintf_internal_r+0x64c>
   836c4:	dc812417 	ldw	r18,1168(sp)
   836c8:	da011d17 	ldw	r8,1140(sp)
   836cc:	d8c11c17 	ldw	r3,1136(sp)
   836d0:	da400404 	addi	r9,sp,16
   836d4:	003ea306 	br	83164 <___vfprintf_internal_r+0x1508>
   836d8:	00800244 	movi	r2,9
   836dc:	15fda636 	bltu	r2,r23,82d78 <___vfprintf_internal_r+0x111c>
   836e0:	dd010e04 	addi	r20,sp,1080
   836e4:	003dc206 	br	82df0 <___vfprintf_internal_r+0x1194>
   836e8:	df012815 	stw	fp,1184(sp)
   836ec:	d8812583 	ldbu	r2,1174(sp)
   836f0:	df012b15 	stw	fp,1196(sp)
   836f4:	ddc12d15 	stw	r23,1204(sp)
   836f8:	d8013115 	stw	zero,1220(sp)
   836fc:	003a4206 	br	82008 <___vfprintf_internal_r+0x3ac>
   83700:	d9412917 	ldw	r5,1188(sp)
   83704:	8809883a 	mov	r4,r17
   83708:	d9811b04 	addi	r6,sp,1132
   8370c:	0081c280 	call	81c28 <__sprint_r>
   83710:	103ae51e 	bne	r2,zero,822a8 <___vfprintf_internal_r+0x64c>
   83714:	dc812417 	ldw	r18,1168(sp)
   83718:	da011d17 	ldw	r8,1140(sp)
   8371c:	d8c11c17 	ldw	r3,1136(sp)
   83720:	da400404 	addi	r9,sp,16
   83724:	003ec906 	br	8324c <___vfprintf_internal_r+0x15f0>
   83728:	04c002b4 	movhi	r19,10
   8372c:	9ce5d904 	addi	r19,r19,-26780
   83730:	003f6f06 	br	834f0 <___vfprintf_internal_r+0x1894>
   83734:	d8812583 	ldbu	r2,1174(sp)
   83738:	dc012a17 	ldw	r16,1192(sp)
   8373c:	d8013115 	stw	zero,1220(sp)
   83740:	003a3106 	br	82008 <___vfprintf_internal_r+0x3ac>
   83744:	d8812404 	addi	r2,sp,1168
   83748:	d8800115 	stw	r2,4(sp)
   8374c:	d8812304 	addi	r2,sp,1164
   83750:	d8800215 	stw	r2,8(sp)
   83754:	d8812204 	addi	r2,sp,1160
   83758:	df000015 	stw	fp,0(sp)
   8375c:	d8800315 	stw	r2,12(sp)
   83760:	8809883a 	mov	r4,r17
   83764:	b00b883a 	mov	r5,r22
   83768:	a00d883a 	mov	r6,r20
   8376c:	01c000c4 	movi	r7,3
   83770:	da413c15 	stw	r9,1264(sp)
   83774:	008552c0 	call	8552c <_dtoa_r>
   83778:	da413c17 	ldw	r9,1264(sp)
   8377c:	1027883a 	mov	r19,r2
   83780:	1707883a 	add	r3,r2,fp
   83784:	e02f883a 	mov	r23,fp
   83788:	99000007 	ldb	r4,0(r19)
   8378c:	00800c04 	movi	r2,48
   83790:	20800326 	beq	r4,r2,837a0 <___vfprintf_internal_r+0x1b44>
   83794:	da812417 	ldw	r10,1168(sp)
   83798:	1a87883a 	add	r3,r3,r10
   8379c:	003ef406 	br	83370 <___vfprintf_internal_r+0x1714>
   837a0:	b009883a 	mov	r4,r22
   837a4:	a00b883a 	mov	r5,r20
   837a8:	000d883a 	mov	r6,zero
   837ac:	000f883a 	mov	r7,zero
   837b0:	d8c13b15 	stw	r3,1260(sp)
   837b4:	da413c15 	stw	r9,1264(sp)
   837b8:	008f5500 	call	8f550 <__nedf2>
   837bc:	d8c13b17 	ldw	r3,1260(sp)
   837c0:	da413c17 	ldw	r9,1264(sp)
   837c4:	103ff326 	beq	r2,zero,83794 <___vfprintf_internal_r+0x1b38>
   837c8:	00800044 	movi	r2,1
   837cc:	15d5c83a 	sub	r10,r2,r23
   837d0:	da812415 	stw	r10,1168(sp)
   837d4:	1a87883a 	add	r3,r3,r10
   837d8:	003ee506 	br	83370 <___vfprintf_internal_r+0x1714>
   837dc:	d8812417 	ldw	r2,1168(sp)
   837e0:	d8812b15 	stw	r2,1196(sp)
   837e4:	1029883a 	mov	r20,r2
   837e8:	00bfff44 	movi	r2,-3
   837ec:	a0800116 	blt	r20,r2,837f4 <___vfprintf_internal_r+0x1b98>
   837f0:	e5001d0e 	bge	fp,r20,83868 <___vfprintf_internal_r+0x1c0c>
   837f4:	94bfff84 	addi	r18,r18,-2
   837f8:	a53fffc4 	addi	r20,r20,-1
   837fc:	dd012415 	stw	r20,1168(sp)
   83800:	dc811fc5 	stb	r18,1151(sp)
   83804:	a0007816 	blt	r20,zero,839e8 <___vfprintf_internal_r+0x1d8c>
   83808:	00800ac4 	movi	r2,43
   8380c:	d8812005 	stb	r2,1152(sp)
   83810:	00800244 	movi	r2,9
   83814:	15002b16 	blt	r2,r20,838c4 <___vfprintf_internal_r+0x1c68>
   83818:	00800c04 	movi	r2,48
   8381c:	a5000c04 	addi	r20,r20,48
   83820:	d8812045 	stb	r2,1153(sp)
   83824:	dd012085 	stb	r20,1154(sp)
   83828:	d8c120c4 	addi	r3,sp,1155
   8382c:	d8811fc4 	addi	r2,sp,1151
   83830:	da013217 	ldw	r8,1224(sp)
   83834:	1885c83a 	sub	r2,r3,r2
   83838:	d8813515 	stw	r2,1236(sp)
   8383c:	4085883a 	add	r2,r8,r2
   83840:	d8812b15 	stw	r2,1196(sp)
   83844:	00800044 	movi	r2,1
   83848:	1200610e 	bge	r2,r8,839d0 <___vfprintf_internal_r+0x1d74>
   8384c:	d8812b17 	ldw	r2,1196(sp)
   83850:	10800044 	addi	r2,r2,1
   83854:	d8812b15 	stw	r2,1196(sp)
   83858:	d8812815 	stw	r2,1184(sp)
   8385c:	103ee90e 	bge	r2,zero,83404 <___vfprintf_internal_r+0x17a8>
   83860:	d8012815 	stw	zero,1184(sp)
   83864:	003ee706 	br	83404 <___vfprintf_internal_r+0x17a8>
   83868:	d8812b17 	ldw	r2,1196(sp)
   8386c:	da013217 	ldw	r8,1224(sp)
   83870:	12003716 	blt	r2,r8,83950 <___vfprintf_internal_r+0x1cf4>
   83874:	8400004c 	andi	r16,r16,1
   83878:	80000326 	beq	r16,zero,83888 <___vfprintf_internal_r+0x1c2c>
   8387c:	d8812b17 	ldw	r2,1196(sp)
   83880:	10800044 	addi	r2,r2,1
   83884:	d8812b15 	stw	r2,1196(sp)
   83888:	d8812815 	stw	r2,1184(sp)
   8388c:	10003716 	blt	r2,zero,8396c <___vfprintf_internal_r+0x1d10>
   83890:	048019c4 	movi	r18,103
   83894:	003edb06 	br	83404 <___vfprintf_internal_r+0x17a8>
   83898:	d8012815 	stw	zero,1184(sp)
   8389c:	003b6906 	br	82644 <___vfprintf_internal_r+0x9e8>
   838a0:	e03e901e 	bne	fp,zero,832e4 <___vfprintf_internal_r+0x1688>
   838a4:	07000044 	movi	fp,1
   838a8:	003e8e06 	br	832e4 <___vfprintf_internal_r+0x1688>
   838ac:	07000184 	movi	fp,6
   838b0:	003e8c06 	br	832e4 <___vfprintf_internal_r+0x1688>
   838b4:	00c00b44 	movi	r3,45
   838b8:	a520003c 	xorhi	r20,r20,32768
   838bc:	d8c12f05 	stb	r3,1212(sp)
   838c0:	003e8c06 	br	832f4 <___vfprintf_internal_r+0x1698>
   838c4:	d8c11f84 	addi	r3,sp,1150
   838c8:	102f883a 	mov	r23,r2
   838cc:	4839883a 	mov	fp,r9
   838d0:	a009883a 	mov	r4,r20
   838d4:	01400284 	movi	r5,10
   838d8:	182d883a 	mov	r22,r3
   838dc:	00819a00 	call	819a0 <__modsi3>
   838e0:	10800c04 	addi	r2,r2,48
   838e4:	a009883a 	mov	r4,r20
   838e8:	b0800005 	stb	r2,0(r22)
   838ec:	01400284 	movi	r5,10
   838f0:	00819500 	call	81950 <__divsi3>
   838f4:	1029883a 	mov	r20,r2
   838f8:	b0ffffc4 	addi	r3,r22,-1
   838fc:	b8bff416 	blt	r23,r2,838d0 <___vfprintf_internal_r+0x1c74>
   83900:	11400c04 	addi	r5,r2,48
   83904:	b17fffc5 	stb	r5,-1(r22)
   83908:	d8811fc4 	addi	r2,sp,1151
   8390c:	e013883a 	mov	r9,fp
   83910:	1880482e 	bgeu	r3,r2,83a34 <___vfprintf_internal_r+0x1dd8>
   83914:	b007883a 	mov	r3,r22
   83918:	d9012044 	addi	r4,sp,1153
   8391c:	00000206 	br	83928 <___vfprintf_internal_r+0x1ccc>
   83920:	19400003 	ldbu	r5,0(r3)
   83924:	18c00044 	addi	r3,r3,1
   83928:	21400005 	stb	r5,0(r4)
   8392c:	21000044 	addi	r4,r4,1
   83930:	10fffb1e 	bne	r2,r3,83920 <___vfprintf_internal_r+0x1cc4>
   83934:	d8c12004 	addi	r3,sp,1152
   83938:	1d87c83a 	sub	r3,r3,r22
   8393c:	d9012044 	addi	r4,sp,1153
   83940:	20c7883a 	add	r3,r4,r3
   83944:	003fba06 	br	83830 <___vfprintf_internal_r+0x1bd4>
   83948:	d8c12217 	ldw	r3,1160(sp)
   8394c:	003e9906 	br	833b4 <___vfprintf_internal_r+0x1758>
   83950:	05000b0e 	bge	zero,r20,83980 <___vfprintf_internal_r+0x1d24>
   83954:	05000044 	movi	r20,1
   83958:	da013217 	ldw	r8,1224(sp)
   8395c:	a229883a 	add	r20,r20,r8
   83960:	dd012b15 	stw	r20,1196(sp)
   83964:	dd012815 	stw	r20,1184(sp)
   83968:	a03fc90e 	bge	r20,zero,83890 <___vfprintf_internal_r+0x1c34>
   8396c:	d8012815 	stw	zero,1184(sp)
   83970:	048019c4 	movi	r18,103
   83974:	003ea306 	br	83404 <___vfprintf_internal_r+0x17a8>
   83978:	e5c00044 	addi	r23,fp,1
   8397c:	003e6606 	br	83318 <___vfprintf_internal_r+0x16bc>
   83980:	00800084 	movi	r2,2
   83984:	1529c83a 	sub	r20,r2,r20
   83988:	003ff306 	br	83958 <___vfprintf_internal_r+0x1cfc>
   8398c:	008011c4 	movi	r2,71
   83990:	90be7226 	beq	r18,r2,8335c <___vfprintf_internal_r+0x1700>
   83994:	003e7306 	br	83364 <___vfprintf_internal_r+0x1708>
   83998:	d8812d17 	ldw	r2,1204(sp)
   8399c:	ac800043 	ldbu	r18,1(r21)
   839a0:	202b883a 	mov	r21,r4
   839a4:	17000017 	ldw	fp,0(r2)
   839a8:	10800104 	addi	r2,r2,4
   839ac:	d8812d15 	stw	r2,1204(sp)
   839b0:	e0001b16 	blt	fp,zero,83a20 <___vfprintf_internal_r+0x1dc4>
   839b4:	94803fcc 	andi	r18,r18,255
   839b8:	9480201c 	xori	r18,r18,128
   839bc:	94bfe004 	addi	r18,r18,-128
   839c0:	00390406 	br	81dd4 <___vfprintf_internal_r+0x178>
   839c4:	00bfffc4 	movi	r2,-1
   839c8:	d8812c15 	stw	r2,1200(sp)
   839cc:	003a2506 	br	82264 <___vfprintf_internal_r+0x608>
   839d0:	80a0703a 	and	r16,r16,r2
   839d4:	803f9d1e 	bne	r16,zero,8384c <___vfprintf_internal_r+0x1bf0>
   839d8:	d8812b17 	ldw	r2,1196(sp)
   839dc:	d8812815 	stw	r2,1184(sp)
   839e0:	103e880e 	bge	r2,zero,83404 <___vfprintf_internal_r+0x17a8>
   839e4:	003f9e06 	br	83860 <___vfprintf_internal_r+0x1c04>
   839e8:	00800b44 	movi	r2,45
   839ec:	0529c83a 	sub	r20,zero,r20
   839f0:	d8812005 	stb	r2,1152(sp)
   839f4:	003f8606 	br	83810 <___vfprintf_internal_r+0x1bb4>
   839f8:	1007883a 	mov	r3,r2
   839fc:	003e6d06 	br	833b4 <___vfprintf_internal_r+0x1758>
   83a00:	e000021e 	bne	fp,zero,83a0c <___vfprintf_internal_r+0x1db0>
   83a04:	8400004c 	andi	r16,r16,1
   83a08:	80000e26 	beq	r16,zero,83a44 <___vfprintf_internal_r+0x1de8>
   83a0c:	e7000084 	addi	fp,fp,2
   83a10:	df012b15 	stw	fp,1196(sp)
   83a14:	df012815 	stw	fp,1184(sp)
   83a18:	e03e7a0e 	bge	fp,zero,83404 <___vfprintf_internal_r+0x17a8>
   83a1c:	003f9006 	br	83860 <___vfprintf_internal_r+0x1c04>
   83a20:	94803fcc 	andi	r18,r18,255
   83a24:	9480201c 	xori	r18,r18,128
   83a28:	073fffc4 	movi	fp,-1
   83a2c:	94bfe004 	addi	r18,r18,-128
   83a30:	0038e806 	br	81dd4 <___vfprintf_internal_r+0x178>
   83a34:	d8c12044 	addi	r3,sp,1153
   83a38:	003f7d06 	br	83830 <___vfprintf_internal_r+0x1bd4>
   83a3c:	dd012417 	ldw	r20,1168(sp)
   83a40:	003f6d06 	br	837f8 <___vfprintf_internal_r+0x1b9c>
   83a44:	00c00044 	movi	r3,1
   83a48:	d8c12815 	stw	r3,1184(sp)
   83a4c:	d8c12b15 	stw	r3,1196(sp)
   83a50:	003e6c06 	br	83404 <___vfprintf_internal_r+0x17a8>

00083a54 <__vfprintf_internal>:
   83a54:	008002b4 	movhi	r2,10
   83a58:	10b57404 	addi	r2,r2,-10800
   83a5c:	2007883a 	mov	r3,r4
   83a60:	11000017 	ldw	r4,0(r2)
   83a64:	2805883a 	mov	r2,r5
   83a68:	300f883a 	mov	r7,r6
   83a6c:	180b883a 	mov	r5,r3
   83a70:	100d883a 	mov	r6,r2
   83a74:	0081c5c1 	jmpi	81c5c <___vfprintf_internal_r>

00083a78 <__svfscanf_r>:
   83a78:	deff4c04 	addi	sp,sp,-720
   83a7c:	df00b215 	stw	fp,712(sp)
   83a80:	ddc0b115 	stw	r23,708(sp)
   83a84:	dd00ae15 	stw	r20,696(sp)
   83a88:	dc80ac15 	stw	r18,688(sp)
   83a8c:	dc40ab15 	stw	r17,684(sp)
   83a90:	dc00aa15 	stw	r16,680(sp)
   83a94:	dfc0b315 	stw	ra,716(sp)
   83a98:	dd80b015 	stw	r22,704(sp)
   83a9c:	dd40af15 	stw	r21,700(sp)
   83aa0:	dcc0ad15 	stw	r19,692(sp)
   83aa4:	30800007 	ldb	r2,0(r6)
   83aa8:	0025883a 	mov	r18,zero
   83aac:	d9c09c15 	stw	r7,624(sp)
   83ab0:	d800a015 	stw	zero,640(sp)
   83ab4:	d8009f15 	stw	zero,636(sp)
   83ab8:	d8009e15 	stw	zero,632(sp)
   83abc:	d8809b15 	stw	r2,620(sp)
   83ac0:	2023883a 	mov	r17,r4
   83ac4:	05c002b4 	movhi	r23,10
   83ac8:	bdf57204 	addi	r23,r23,-10808
   83acc:	9029883a 	mov	r20,r18
   83ad0:	2839883a 	mov	fp,r5
   83ad4:	34000044 	addi	r16,r6,1
   83ad8:	10002426 	beq	r2,zero,83b6c <__svfscanf_r+0xf4>
   83adc:	b9000017 	ldw	r4,0(r23)
   83ae0:	2087883a 	add	r3,r4,r2
   83ae4:	18c00003 	ldbu	r3,0(r3)
   83ae8:	18c0020c 	andi	r3,r3,8
   83aec:	18c03fcc 	andi	r3,r3,255
   83af0:	18c0201c 	xori	r3,r3,128
   83af4:	18ffe004 	addi	r3,r3,-128
   83af8:	18002926 	beq	r3,zero,83ba0 <__svfscanf_r+0x128>
   83afc:	e0800117 	ldw	r2,4(fp)
   83b00:	0080110e 	bge	zero,r2,83b48 <__svfscanf_r+0xd0>
   83b04:	e0c00017 	ldw	r3,0(fp)
   83b08:	b9000017 	ldw	r4,0(r23)
   83b0c:	18800003 	ldbu	r2,0(r3)
   83b10:	2085883a 	add	r2,r4,r2
   83b14:	10800003 	ldbu	r2,0(r2)
   83b18:	1080020c 	andi	r2,r2,8
   83b1c:	10803fcc 	andi	r2,r2,255
   83b20:	1080201c 	xori	r2,r2,128
   83b24:	10bfe004 	addi	r2,r2,-128
   83b28:	10000b26 	beq	r2,zero,83b58 <__svfscanf_r+0xe0>
   83b2c:	e0800117 	ldw	r2,4(fp)
   83b30:	18c00044 	addi	r3,r3,1
   83b34:	e0c00015 	stw	r3,0(fp)
   83b38:	10bfffc4 	addi	r2,r2,-1
   83b3c:	e0800115 	stw	r2,4(fp)
   83b40:	a5000044 	addi	r20,r20,1
   83b44:	00bfef16 	blt	zero,r2,83b04 <__svfscanf_r+0x8c>
   83b48:	8809883a 	mov	r4,r17
   83b4c:	e00b883a 	mov	r5,fp
   83b50:	008a37c0 	call	8a37c <__srefill_r>
   83b54:	103feb26 	beq	r2,zero,83b04 <__svfscanf_r+0x8c>
   83b58:	800d883a 	mov	r6,r16
   83b5c:	30800007 	ldb	r2,0(r6)
   83b60:	34000044 	addi	r16,r6,1
   83b64:	d8809b15 	stw	r2,620(sp)
   83b68:	103fdc1e 	bne	r2,zero,83adc <__svfscanf_r+0x64>
   83b6c:	d8809e17 	ldw	r2,632(sp)
   83b70:	dfc0b317 	ldw	ra,716(sp)
   83b74:	df00b217 	ldw	fp,712(sp)
   83b78:	ddc0b117 	ldw	r23,708(sp)
   83b7c:	dd80b017 	ldw	r22,704(sp)
   83b80:	dd40af17 	ldw	r21,700(sp)
   83b84:	dd00ae17 	ldw	r20,696(sp)
   83b88:	dcc0ad17 	ldw	r19,692(sp)
   83b8c:	dc80ac17 	ldw	r18,688(sp)
   83b90:	dc40ab17 	ldw	r17,684(sp)
   83b94:	dc00aa17 	ldw	r16,680(sp)
   83b98:	dec0b404 	addi	sp,sp,720
   83b9c:	f800283a 	ret
   83ba0:	00c00944 	movi	r3,37
   83ba4:	10c00e26 	beq	r2,r3,83be0 <__svfscanf_r+0x168>
   83ba8:	e0800117 	ldw	r2,4(fp)
   83bac:	0080e10e 	bge	zero,r2,83f34 <__svfscanf_r+0x4bc>
   83bb0:	e0800017 	ldw	r2,0(fp)
   83bb4:	80ffffc7 	ldb	r3,-1(r16)
   83bb8:	11000003 	ldbu	r4,0(r2)
   83bbc:	20ffeb1e 	bne	r4,r3,83b6c <__svfscanf_r+0xf4>
   83bc0:	e0c00117 	ldw	r3,4(fp)
   83bc4:	10800044 	addi	r2,r2,1
   83bc8:	e0800015 	stw	r2,0(fp)
   83bcc:	18bfffc4 	addi	r2,r3,-1
   83bd0:	e0800115 	stw	r2,4(fp)
   83bd4:	a5000044 	addi	r20,r20,1
   83bd8:	800d883a 	mov	r6,r16
   83bdc:	003fdf06 	br	83b5c <__svfscanf_r+0xe4>
   83be0:	31400043 	ldbu	r5,1(r6)
   83be4:	002d883a 	mov	r22,zero
   83be8:	0027883a 	mov	r19,zero
   83bec:	01801e04 	movi	r6,120
   83bf0:	01c01b04 	movi	r7,108
   83bf4:	28803fcc 	andi	r2,r5,255
   83bf8:	80c00044 	addi	r3,r16,1
   83bfc:	30804d2e 	bgeu	r6,r2,83d34 <__svfscanf_r+0x2bc>
   83c00:	29403fcc 	andi	r5,r5,255
   83c04:	2940201c 	xori	r5,r5,128
   83c08:	297fe004 	addi	r5,r5,-128
   83c0c:	2149883a 	add	r4,r4,r5
   83c10:	20800003 	ldbu	r2,0(r4)
   83c14:	d8c09d15 	stw	r3,628(sp)
   83c18:	1080004c 	andi	r2,r2,1
   83c1c:	1002d81e 	bne	r2,zero,84780 <__svfscanf_r+0xd08>
   83c20:	02000274 	movhi	r8,9
   83c24:	422fce04 	addi	r8,r8,-16584
   83c28:	da00a015 	stw	r8,640(sp)
   83c2c:	02000284 	movi	r8,10
   83c30:	da009f15 	stw	r8,636(sp)
   83c34:	040000c4 	movi	r16,3
   83c38:	e0800117 	ldw	r2,4(fp)
   83c3c:	0081bd0e 	bge	zero,r2,84334 <__svfscanf_r+0x8bc>
   83c40:	b080100c 	andi	r2,r22,64
   83c44:	1000ce26 	beq	r2,zero,83f80 <__svfscanf_r+0x508>
   83c48:	00800084 	movi	r2,2
   83c4c:	80818426 	beq	r16,r2,84260 <__svfscanf_r+0x7e8>
   83c50:	1400f716 	blt	r2,r16,84030 <__svfscanf_r+0x5b8>
   83c54:	00800044 	movi	r2,1
   83c58:	8080dc26 	beq	r16,r2,83fcc <__svfscanf_r+0x554>
   83c5c:	9800011e 	bne	r19,zero,83c64 <__svfscanf_r+0x1ec>
   83c60:	04c00044 	movi	r19,1
   83c64:	b080004c 	andi	r2,r22,1
   83c68:	10022826 	beq	r2,zero,8450c <__svfscanf_r+0xa94>
   83c6c:	b480040c 	andi	r18,r22,16
   83c70:	9004051e 	bne	r18,zero,84c88 <__svfscanf_r+0x1210>
   83c74:	d8809c17 	ldw	r2,624(sp)
   83c78:	15800017 	ldw	r22,0(r2)
   83c7c:	10800104 	addi	r2,r2,4
   83c80:	d8809c15 	stw	r2,624(sp)
   83c84:	0021883a 	mov	r16,zero
   83c88:	dd409904 	addi	r21,sp,612
   83c8c:	00c002b4 	movhi	r3,10
   83c90:	18f57504 	addi	r3,r3,-10796
   83c94:	18800017 	ldw	r2,0(r3)
   83c98:	8080aa26 	beq	r16,r2,83f44 <__svfscanf_r+0x4cc>
   83c9c:	e0800017 	ldw	r2,0(fp)
   83ca0:	e2000117 	ldw	r8,4(fp)
   83ca4:	d9000104 	addi	r4,sp,4
   83ca8:	11c00003 	ldbu	r7,0(r2)
   83cac:	423fffc4 	addi	r8,r8,-1
   83cb0:	10800044 	addi	r2,r2,1
   83cb4:	2407883a 	add	r3,r4,r16
   83cb8:	000b883a 	mov	r5,zero
   83cbc:	a809883a 	mov	r4,r21
   83cc0:	01800204 	movi	r6,8
   83cc4:	e2000115 	stw	r8,4(fp)
   83cc8:	e0800015 	stw	r2,0(fp)
   83ccc:	19c00005 	stb	r7,0(r3)
   83cd0:	84000044 	addi	r16,r16,1
   83cd4:	0088b340 	call	88b34 <memset>
   83cd8:	b00b883a 	mov	r5,r22
   83cdc:	8809883a 	mov	r4,r17
   83ce0:	dd400015 	stw	r21,0(sp)
   83ce4:	d9800104 	addi	r6,sp,4
   83ce8:	800f883a 	mov	r7,r16
   83cec:	00887340 	call	88734 <_mbrtowc_r>
   83cf0:	017fffc4 	movi	r5,-1
   83cf4:	11409326 	beq	r2,r5,83f44 <__svfscanf_r+0x4cc>
   83cf8:	10030d1e 	bne	r2,zero,84930 <__svfscanf_r+0xeb8>
   83cfc:	9000011e 	bne	r18,zero,83d04 <__svfscanf_r+0x28c>
   83d00:	b0000015 	stw	zero,0(r22)
   83d04:	a429883a 	add	r20,r20,r16
   83d08:	9cffffc4 	addi	r19,r19,-1
   83d0c:	90030d1e 	bne	r18,zero,84944 <__svfscanf_r+0xecc>
   83d10:	b5800104 	addi	r22,r22,4
   83d14:	0021883a 	mov	r16,zero
   83d18:	e0800117 	ldw	r2,4(fp)
   83d1c:	00820b0e 	bge	zero,r2,8454c <__svfscanf_r+0xad4>
   83d20:	983fda1e 	bne	r19,zero,83c8c <__svfscanf_r+0x214>
   83d24:	90012226 	beq	r18,zero,841b0 <__svfscanf_r+0x738>
   83d28:	dc009d17 	ldw	r16,628(sp)
   83d2c:	800d883a 	mov	r6,r16
   83d30:	003f8a06 	br	83b5c <__svfscanf_r+0xe4>
   83d34:	1085883a 	add	r2,r2,r2
   83d38:	1085883a 	add	r2,r2,r2
   83d3c:	02000234 	movhi	r8,8
   83d40:	420f5404 	addi	r8,r8,15696
   83d44:	1205883a 	add	r2,r2,r8
   83d48:	10800017 	ldw	r2,0(r2)
   83d4c:	1000683a 	jmp	r2
   83d50:	00083f64 	muli	zero,zero,8445
   83d54:	00083c00 	call	83c0 <__alt_mem_main_memory-0x77c40>
   83d58:	00083c00 	call	83c0 <__alt_mem_main_memory-0x77c40>
   83d5c:	00083c00 	call	83c0 <__alt_mem_main_memory-0x77c40>
   83d60:	00083c00 	call	83c0 <__alt_mem_main_memory-0x77c40>
   83d64:	00083c00 	call	83c0 <__alt_mem_main_memory-0x77c40>
   83d68:	00083c00 	call	83c0 <__alt_mem_main_memory-0x77c40>
   83d6c:	00083c00 	call	83c0 <__alt_mem_main_memory-0x77c40>
   83d70:	00083c00 	call	83c0 <__alt_mem_main_memory-0x77c40>
   83d74:	00083c00 	call	83c0 <__alt_mem_main_memory-0x77c40>
   83d78:	00083c00 	call	83c0 <__alt_mem_main_memory-0x77c40>
   83d7c:	00083c00 	call	83c0 <__alt_mem_main_memory-0x77c40>
   83d80:	00083c00 	call	83c0 <__alt_mem_main_memory-0x77c40>
   83d84:	00083c00 	call	83c0 <__alt_mem_main_memory-0x77c40>
   83d88:	00083c00 	call	83c0 <__alt_mem_main_memory-0x77c40>
   83d8c:	00083c00 	call	83c0 <__alt_mem_main_memory-0x77c40>
   83d90:	00083c00 	call	83c0 <__alt_mem_main_memory-0x77c40>
   83d94:	00083c00 	call	83c0 <__alt_mem_main_memory-0x77c40>
   83d98:	00083c00 	call	83c0 <__alt_mem_main_memory-0x77c40>
   83d9c:	00083c00 	call	83c0 <__alt_mem_main_memory-0x77c40>
   83da0:	00083c00 	call	83c0 <__alt_mem_main_memory-0x77c40>
   83da4:	00083c00 	call	83c0 <__alt_mem_main_memory-0x77c40>
   83da8:	00083c00 	call	83c0 <__alt_mem_main_memory-0x77c40>
   83dac:	00083c00 	call	83c0 <__alt_mem_main_memory-0x77c40>
   83db0:	00083c00 	call	83c0 <__alt_mem_main_memory-0x77c40>
   83db4:	00083c00 	call	83c0 <__alt_mem_main_memory-0x77c40>
   83db8:	00083c00 	call	83c0 <__alt_mem_main_memory-0x77c40>
   83dbc:	00083c00 	call	83c0 <__alt_mem_main_memory-0x77c40>
   83dc0:	00083c00 	call	83c0 <__alt_mem_main_memory-0x77c40>
   83dc4:	00083c00 	call	83c0 <__alt_mem_main_memory-0x77c40>
   83dc8:	00083c00 	call	83c0 <__alt_mem_main_memory-0x77c40>
   83dcc:	00083c00 	call	83c0 <__alt_mem_main_memory-0x77c40>
   83dd0:	00083c00 	call	83c0 <__alt_mem_main_memory-0x77c40>
   83dd4:	00083c00 	call	83c0 <__alt_mem_main_memory-0x77c40>
   83dd8:	00083c00 	call	83c0 <__alt_mem_main_memory-0x77c40>
   83ddc:	00083c00 	call	83c0 <__alt_mem_main_memory-0x77c40>
   83de0:	00083c00 	call	83c0 <__alt_mem_main_memory-0x77c40>
   83de4:	000847a8 	cmpgeui	zero,zero,8478
   83de8:	00083c00 	call	83c0 <__alt_mem_main_memory-0x77c40>
   83dec:	00083c00 	call	83c0 <__alt_mem_main_memory-0x77c40>
   83df0:	00083c00 	call	83c0 <__alt_mem_main_memory-0x77c40>
   83df4:	00083c00 	call	83c0 <__alt_mem_main_memory-0x77c40>
   83df8:	00084800 	call	8480 <__alt_mem_main_memory-0x77b80>
   83dfc:	00083c00 	call	83c0 <__alt_mem_main_memory-0x77c40>
   83e00:	00083c00 	call	83c0 <__alt_mem_main_memory-0x77c40>
   83e04:	00083c00 	call	83c0 <__alt_mem_main_memory-0x77c40>
   83e08:	00083c00 	call	83c0 <__alt_mem_main_memory-0x77c40>
   83e0c:	00083c00 	call	83c0 <__alt_mem_main_memory-0x77c40>
   83e10:	00084810 	cmplti	zero,zero,8480
   83e14:	00084810 	cmplti	zero,zero,8480
   83e18:	00084810 	cmplti	zero,zero,8480
   83e1c:	00084810 	cmplti	zero,zero,8480
   83e20:	00084810 	cmplti	zero,zero,8480
   83e24:	00084810 	cmplti	zero,zero,8480
   83e28:	00084810 	cmplti	zero,zero,8480
   83e2c:	00084810 	cmplti	zero,zero,8480
   83e30:	00084810 	cmplti	zero,zero,8480
   83e34:	00084810 	cmplti	zero,zero,8480
   83e38:	00083c00 	call	83c0 <__alt_mem_main_memory-0x77c40>
   83e3c:	00083c00 	call	83c0 <__alt_mem_main_memory-0x77c40>
   83e40:	00083c00 	call	83c0 <__alt_mem_main_memory-0x77c40>
   83e44:	00083c00 	call	83c0 <__alt_mem_main_memory-0x77c40>
   83e48:	00083c00 	call	83c0 <__alt_mem_main_memory-0x77c40>
   83e4c:	00083c00 	call	83c0 <__alt_mem_main_memory-0x77c40>
   83e50:	00083c00 	call	83c0 <__alt_mem_main_memory-0x77c40>
   83e54:	00083c00 	call	83c0 <__alt_mem_main_memory-0x77c40>
   83e58:	00083c00 	call	83c0 <__alt_mem_main_memory-0x77c40>
   83e5c:	00083c00 	call	83c0 <__alt_mem_main_memory-0x77c40>
   83e60:	000847b4 	movhi	zero,8478
   83e64:	000847c0 	call	847c <__alt_mem_main_memory-0x77b84>
   83e68:	00083c00 	call	83c0 <__alt_mem_main_memory-0x77c40>
   83e6c:	000847c0 	call	847c <__alt_mem_main_memory-0x77b84>
   83e70:	00083c00 	call	83c0 <__alt_mem_main_memory-0x77c40>
   83e74:	00083c00 	call	83c0 <__alt_mem_main_memory-0x77c40>
   83e78:	00083c00 	call	83c0 <__alt_mem_main_memory-0x77c40>
   83e7c:	00083c00 	call	83c0 <__alt_mem_main_memory-0x77c40>
   83e80:	000847cc 	andi	zero,zero,8479
   83e84:	00083c00 	call	83c0 <__alt_mem_main_memory-0x77c40>
   83e88:	00083c00 	call	83c0 <__alt_mem_main_memory-0x77c40>
   83e8c:	000847dc 	xori	zero,zero,8479
   83e90:	00083c00 	call	83c0 <__alt_mem_main_memory-0x77c40>
   83e94:	00083c00 	call	83c0 <__alt_mem_main_memory-0x77c40>
   83e98:	00083c00 	call	83c0 <__alt_mem_main_memory-0x77c40>
   83e9c:	00083c00 	call	83c0 <__alt_mem_main_memory-0x77c40>
   83ea0:	00083c00 	call	83c0 <__alt_mem_main_memory-0x77c40>
   83ea4:	00083c00 	call	83c0 <__alt_mem_main_memory-0x77c40>
   83ea8:	00083c00 	call	83c0 <__alt_mem_main_memory-0x77c40>
   83eac:	00083c00 	call	83c0 <__alt_mem_main_memory-0x77c40>
   83eb0:	00084834 	movhi	zero,8480
   83eb4:	00083c00 	call	83c0 <__alt_mem_main_memory-0x77c40>
   83eb8:	00083c00 	call	83c0 <__alt_mem_main_memory-0x77c40>
   83ebc:	00084858 	cmpnei	zero,zero,8481
   83ec0:	00083c00 	call	83c0 <__alt_mem_main_memory-0x77c40>
   83ec4:	00083c00 	call	83c0 <__alt_mem_main_memory-0x77c40>
   83ec8:	00083c00 	call	83c0 <__alt_mem_main_memory-0x77c40>
   83ecc:	00083c00 	call	83c0 <__alt_mem_main_memory-0x77c40>
   83ed0:	00083c00 	call	83c0 <__alt_mem_main_memory-0x77c40>
   83ed4:	00083c00 	call	83c0 <__alt_mem_main_memory-0x77c40>
   83ed8:	00083c00 	call	83c0 <__alt_mem_main_memory-0x77c40>
   83edc:	00084878 	rdprs	zero,zero,8481
   83ee0:	00084888 	cmpgei	zero,zero,8482
   83ee4:	000847c0 	call	847c <__alt_mem_main_memory-0x77b84>
   83ee8:	000847c0 	call	847c <__alt_mem_main_memory-0x77b84>
   83eec:	000847c0 	call	847c <__alt_mem_main_memory-0x77b84>
   83ef0:	00084890 	cmplti	zero,zero,8482
   83ef4:	000848a0 	cmpeqi	zero,zero,8482
   83ef8:	00083c00 	call	83c0 <__alt_mem_main_memory-0x77c40>
   83efc:	00083c00 	call	83c0 <__alt_mem_main_memory-0x77c40>
   83f00:	000848bc 	xorhi	zero,zero,8482
   83f04:	00083c00 	call	83c0 <__alt_mem_main_memory-0x77c40>
   83f08:	000848dc 	xori	zero,zero,8483
   83f0c:	0008491c 	xori	zero,zero,8484
   83f10:	00084910 	cmplti	zero,zero,8484
   83f14:	00083c00 	call	83c0 <__alt_mem_main_memory-0x77c40>
   83f18:	00083c00 	call	83c0 <__alt_mem_main_memory-0x77c40>
   83f1c:	00084924 	muli	zero,zero,8484
   83f20:	00083c00 	call	83c0 <__alt_mem_main_memory-0x77c40>
   83f24:	00084788 	cmpgei	zero,zero,8478
   83f28:	00083c00 	call	83c0 <__alt_mem_main_memory-0x77c40>
   83f2c:	00083c00 	call	83c0 <__alt_mem_main_memory-0x77c40>
   83f30:	00084834 	movhi	zero,8480
   83f34:	8809883a 	mov	r4,r17
   83f38:	e00b883a 	mov	r5,fp
   83f3c:	008a37c0 	call	8a37c <__srefill_r>
   83f40:	103f1b26 	beq	r2,zero,83bb0 <__svfscanf_r+0x138>
   83f44:	d8809e17 	ldw	r2,632(sp)
   83f48:	10000626 	beq	r2,zero,83f64 <__svfscanf_r+0x4ec>
   83f4c:	e080030b 	ldhu	r2,12(fp)
   83f50:	1080100c 	andi	r2,r2,64
   83f54:	10bfffcc 	andi	r2,r2,65535
   83f58:	10a0001c 	xori	r2,r2,32768
   83f5c:	10a00004 	addi	r2,r2,-32768
   83f60:	103f0226 	beq	r2,zero,83b6c <__svfscanf_r+0xf4>
   83f64:	00bfffc4 	movi	r2,-1
   83f68:	d8809e15 	stw	r2,632(sp)
   83f6c:	003eff06 	br	83b6c <__svfscanf_r+0xf4>
   83f70:	8809883a 	mov	r4,r17
   83f74:	e00b883a 	mov	r5,fp
   83f78:	008a37c0 	call	8a37c <__srefill_r>
   83f7c:	103ff11e 	bne	r2,zero,83f44 <__svfscanf_r+0x4cc>
   83f80:	b9400017 	ldw	r5,0(r23)
   83f84:	e0800017 	ldw	r2,0(fp)
   83f88:	00000206 	br	83f94 <__svfscanf_r+0x51c>
   83f8c:	10800044 	addi	r2,r2,1
   83f90:	e0800015 	stw	r2,0(fp)
   83f94:	10c00003 	ldbu	r3,0(r2)
   83f98:	28c7883a 	add	r3,r5,r3
   83f9c:	18c00003 	ldbu	r3,0(r3)
   83fa0:	18c0020c 	andi	r3,r3,8
   83fa4:	18c03fcc 	andi	r3,r3,255
   83fa8:	18c0201c 	xori	r3,r3,128
   83fac:	18ffe004 	addi	r3,r3,-128
   83fb0:	183f2526 	beq	r3,zero,83c48 <__svfscanf_r+0x1d0>
   83fb4:	e0c00117 	ldw	r3,4(fp)
   83fb8:	a5000044 	addi	r20,r20,1
   83fbc:	18ffffc4 	addi	r3,r3,-1
   83fc0:	e0c00115 	stw	r3,4(fp)
   83fc4:	00fff116 	blt	zero,r3,83f8c <__svfscanf_r+0x514>
   83fc8:	003fe906 	br	83f70 <__svfscanf_r+0x4f8>
   83fcc:	9800011e 	bne	r19,zero,83fd4 <__svfscanf_r+0x55c>
   83fd0:	04ffffc4 	movi	r19,-1
   83fd4:	b580040c 	andi	r22,r22,16
   83fd8:	b0016826 	beq	r22,zero,8457c <__svfscanf_r+0xb04>
   83fdc:	e0800017 	ldw	r2,0(fp)
   83fe0:	0021883a 	mov	r16,zero
   83fe4:	dd405884 	addi	r21,sp,354
   83fe8:	10c00003 	ldbu	r3,0(r2)
   83fec:	a8c7883a 	add	r3,r21,r3
   83ff0:	18c00007 	ldb	r3,0(r3)
   83ff4:	18036b26 	beq	r3,zero,84da4 <__svfscanf_r+0x132c>
   83ff8:	e0c00117 	ldw	r3,4(fp)
   83ffc:	10800044 	addi	r2,r2,1
   84000:	84000044 	addi	r16,r16,1
   84004:	18ffffc4 	addi	r3,r3,-1
   84008:	e0c00115 	stw	r3,4(fp)
   8400c:	e0800015 	stw	r2,0(fp)
   84010:	9c008f26 	beq	r19,r16,84250 <__svfscanf_r+0x7d8>
   84014:	00fff416 	blt	zero,r3,83fe8 <__svfscanf_r+0x570>
   84018:	8809883a 	mov	r4,r17
   8401c:	e00b883a 	mov	r5,fp
   84020:	008a37c0 	call	8a37c <__srefill_r>
   84024:	10008a1e 	bne	r2,zero,84250 <__svfscanf_r+0x7d8>
   84028:	e0800017 	ldw	r2,0(fp)
   8402c:	003fee06 	br	83fe8 <__svfscanf_r+0x570>
   84030:	008000c4 	movi	r2,3
   84034:	80806426 	beq	r16,r2,841c8 <__svfscanf_r+0x750>
   84038:	00800104 	movi	r2,4
   8403c:	80bf071e 	bne	r16,r2,83c5c <__svfscanf_r+0x1e4>
   84040:	98bfffc4 	addi	r2,r19,-1
   84044:	01005704 	movi	r4,348
   84048:	20814736 	bltu	r4,r2,84568 <__svfscanf_r+0xaf0>
   8404c:	0017883a 	mov	r11,zero
   84050:	b581e014 	ori	r22,r22,1920
   84054:	0021883a 	mov	r16,zero
   84058:	d800a115 	stw	zero,644(sp)
   8405c:	d800a315 	stw	zero,652(sp)
   84060:	002b883a 	mov	r21,zero
   84064:	d800a215 	stw	zero,648(sp)
   84068:	dc800104 	addi	r18,sp,4
   8406c:	000d883a 	mov	r6,zero
   84070:	00c01384 	movi	r3,78
   84074:	03810004 	movi	r14,1024
   84078:	033e1fc4 	movi	r12,-1921
   8407c:	03ff5fc4 	movi	r15,-641
   84080:	e1c00017 	ldw	r7,0(fp)
   84084:	39400003 	ldbu	r5,0(r7)
   84088:	28bff544 	addi	r2,r5,-43
   8408c:	10803fcc 	andi	r2,r2,255
   84090:	1880c82e 	bgeu	r3,r2,843b4 <__svfscanf_r+0x93c>
   84094:	a8000226 	beq	r21,zero,840a0 <__svfscanf_r+0x628>
   84098:	00bfbfc4 	movi	r2,-257
   8409c:	b0ac703a 	and	r22,r22,r2
   840a0:	31bfffc4 	addi	r6,r6,-1
   840a4:	00800044 	movi	r2,1
   840a8:	1183fd2e 	bgeu	r2,r6,850a0 <__svfscanf_r+0x1628>
   840ac:	80803fcc 	andi	r2,r16,255
   840b0:	1080201c 	xori	r2,r2,128
   840b4:	10bfe004 	addi	r2,r2,-128
   840b8:	10ffffc4 	addi	r3,r2,-1
   840bc:	01000184 	movi	r4,6
   840c0:	20c01036 	bltu	r4,r3,84104 <__svfscanf_r+0x68c>
   840c4:	00c00084 	movi	r3,2
   840c8:	1883e90e 	bge	r3,r2,85070 <__svfscanf_r+0x15f8>
   840cc:	00c000c4 	movi	r3,3
   840d0:	10c00c26 	beq	r2,r3,84104 <__svfscanf_r+0x68c>
   840d4:	843fff04 	addi	r16,r16,-4
   840d8:	84c03fcc 	andi	r19,r16,255
   840dc:	04c4303a 	nor	r2,zero,r19
   840e0:	90a1883a 	add	r16,r18,r2
   840e4:	94bfffc4 	addi	r18,r18,-1
   840e8:	91400007 	ldb	r5,0(r18)
   840ec:	8809883a 	mov	r4,r17
   840f0:	e00d883a 	mov	r6,fp
   840f4:	008cc1c0 	call	8cc1c <_ungetc_r>
   840f8:	943ffa1e 	bne	r18,r16,840e4 <__svfscanf_r+0x66c>
   840fc:	a27fffc4 	addi	r9,r20,-1
   84100:	4ce9c83a 	sub	r20,r9,r19
   84104:	b080400c 	andi	r2,r22,256
   84108:	10001326 	beq	r2,zero,84158 <__svfscanf_r+0x6e0>
   8410c:	b081000c 	andi	r2,r22,1024
   84110:	1003c41e 	bne	r2,zero,85024 <__svfscanf_r+0x15ac>
   84114:	917fffc7 	ldb	r5,-1(r18)
   84118:	00801944 	movi	r2,101
   8411c:	943fffc4 	addi	r16,r18,-1
   84120:	a53fffc4 	addi	r20,r20,-1
   84124:	28800826 	beq	r5,r2,84148 <__svfscanf_r+0x6d0>
   84128:	00801144 	movi	r2,69
   8412c:	28800626 	beq	r5,r2,84148 <__svfscanf_r+0x6d0>
   84130:	8809883a 	mov	r4,r17
   84134:	e00d883a 	mov	r6,fp
   84138:	008cc1c0 	call	8cc1c <_ungetc_r>
   8413c:	917fff87 	ldb	r5,-2(r18)
   84140:	943fff84 	addi	r16,r18,-2
   84144:	a53fffc4 	addi	r20,r20,-1
   84148:	8809883a 	mov	r4,r17
   8414c:	e00d883a 	mov	r6,fp
   84150:	008cc1c0 	call	8cc1c <_ungetc_r>
   84154:	8025883a 	mov	r18,r16
   84158:	b080040c 	andi	r2,r22,16
   8415c:	103ef21e 	bne	r2,zero,83d28 <__svfscanf_r+0x2b0>
   84160:	90000005 	stb	zero,0(r18)
   84164:	b0c1800c 	andi	r3,r22,1536
   84168:	00810004 	movi	r2,1024
   8416c:	18834326 	beq	r3,r2,84e7c <__svfscanf_r+0x1404>
   84170:	d8c0a317 	ldw	r3,652(sp)
   84174:	18032f1e 	bne	r3,zero,84e34 <__svfscanf_r+0x13bc>
   84178:	8809883a 	mov	r4,r17
   8417c:	d9400104 	addi	r5,sp,4
   84180:	000d883a 	mov	r6,zero
   84184:	008a9a40 	call	8a9a4 <_strtod_r>
   84188:	102b883a 	mov	r21,r2
   8418c:	b080004c 	andi	r2,r22,1
   84190:	1827883a 	mov	r19,r3
   84194:	10030526 	beq	r2,zero,84dac <__svfscanf_r+0x1334>
   84198:	d9409c17 	ldw	r5,624(sp)
   8419c:	28800017 	ldw	r2,0(r5)
   841a0:	29400104 	addi	r5,r5,4
   841a4:	d9409c15 	stw	r5,624(sp)
   841a8:	15400015 	stw	r21,0(r2)
   841ac:	10c00115 	stw	r3,4(r2)
   841b0:	d8809e17 	ldw	r2,632(sp)
   841b4:	dc009d17 	ldw	r16,628(sp)
   841b8:	10800044 	addi	r2,r2,1
   841bc:	d8809e15 	stw	r2,632(sp)
   841c0:	800d883a 	mov	r6,r16
   841c4:	003e6506 	br	83b5c <__svfscanf_r+0xe4>
   841c8:	98bfffc4 	addi	r2,r19,-1
   841cc:	01005704 	movi	r4,348
   841d0:	2080e82e 	bgeu	r4,r2,84574 <__svfscanf_r+0xafc>
   841d4:	98ffa8c4 	addi	r3,r19,-349
   841d8:	04c05744 	movi	r19,349
   841dc:	da409f17 	ldw	r9,636(sp)
   841e0:	b5836014 	ori	r22,r22,3456
   841e4:	0021883a 	mov	r16,zero
   841e8:	dc800104 	addi	r18,sp,4
   841ec:	05401344 	movi	r21,77
   841f0:	01c08004 	movi	r7,512
   841f4:	01bf7fc4 	movi	r6,-513
   841f8:	e2000017 	ldw	r8,0(fp)
   841fc:	41400003 	ldbu	r5,0(r8)
   84200:	28bff544 	addi	r2,r5,-43
   84204:	10803fcc 	andi	r2,r2,255
   84208:	a881d02e 	bgeu	r21,r2,8494c <__svfscanf_r+0xed4>
   8420c:	da409f15 	stw	r9,636(sp)
   84210:	b080400c 	andi	r2,r22,256
   84214:	10000926 	beq	r2,zero,8423c <__svfscanf_r+0x7c4>
   84218:	d9400104 	addi	r5,sp,4
   8421c:	2c80052e 	bgeu	r5,r18,84234 <__svfscanf_r+0x7bc>
   84220:	917fffc7 	ldb	r5,-1(r18)
   84224:	8809883a 	mov	r4,r17
   84228:	e00d883a 	mov	r6,fp
   8422c:	94bfffc4 	addi	r18,r18,-1
   84230:	008cc1c0 	call	8cc1c <_ungetc_r>
   84234:	da000104 	addi	r8,sp,4
   84238:	44be4c26 	beq	r8,r18,83b6c <__svfscanf_r+0xf4>
   8423c:	b080040c 	andi	r2,r22,16
   84240:	10029326 	beq	r2,zero,84c90 <__svfscanf_r+0x1218>
   84244:	d8c00104 	addi	r3,sp,4
   84248:	90e5c83a 	sub	r18,r18,r3
   8424c:	9421883a 	add	r16,r18,r16
   84250:	a429883a 	add	r20,r20,r16
   84254:	dc009d17 	ldw	r16,628(sp)
   84258:	800d883a 	mov	r6,r16
   8425c:	003e3f06 	br	83b5c <__svfscanf_r+0xe4>
   84260:	9800011e 	bne	r19,zero,84268 <__svfscanf_r+0x7f0>
   84264:	04ffffc4 	movi	r19,-1
   84268:	b080004c 	andi	r2,r22,1
   8426c:	b580040c 	andi	r22,r22,16
   84270:	10003526 	beq	r2,zero,84348 <__svfscanf_r+0x8d0>
   84274:	b002c21e 	bne	r22,zero,84d80 <__svfscanf_r+0x1308>
   84278:	d8c09c17 	ldw	r3,624(sp)
   8427c:	1d400017 	ldw	r21,0(r3)
   84280:	18c00104 	addi	r3,r3,4
   84284:	d8c09c15 	stw	r3,624(sp)
   84288:	0021883a 	mov	r16,zero
   8428c:	dc809904 	addi	r18,sp,612
   84290:	e0c00017 	ldw	r3,0(fp)
   84294:	b9400017 	ldw	r5,0(r23)
   84298:	18800003 	ldbu	r2,0(r3)
   8429c:	11003fcc 	andi	r4,r2,255
   842a0:	2909883a 	add	r4,r5,r4
   842a4:	21000003 	ldbu	r4,0(r4)
   842a8:	2100020c 	andi	r4,r4,8
   842ac:	21003fcc 	andi	r4,r4,255
   842b0:	2100201c 	xori	r4,r4,128
   842b4:	213fe004 	addi	r4,r4,-128
   842b8:	2002581e 	bne	r4,zero,84c1c <__svfscanf_r+0x11a4>
   842bc:	98025726 	beq	r19,zero,84c1c <__svfscanf_r+0x11a4>
   842c0:	014002b4 	movhi	r5,10
   842c4:	29757504 	addi	r5,r5,-10796
   842c8:	29000017 	ldw	r4,0(r5)
   842cc:	813f1d26 	beq	r16,r4,83f44 <__svfscanf_r+0x4cc>
   842d0:	e2000117 	ldw	r8,4(fp)
   842d4:	18c00044 	addi	r3,r3,1
   842d8:	d9000104 	addi	r4,sp,4
   842dc:	423fffc4 	addi	r8,r8,-1
   842e0:	240f883a 	add	r7,r4,r16
   842e4:	000b883a 	mov	r5,zero
   842e8:	9009883a 	mov	r4,r18
   842ec:	01800204 	movi	r6,8
   842f0:	e2000115 	stw	r8,4(fp)
   842f4:	e0c00015 	stw	r3,0(fp)
   842f8:	38800005 	stb	r2,0(r7)
   842fc:	84000044 	addi	r16,r16,1
   84300:	0088b340 	call	88b34 <memset>
   84304:	a80b883a 	mov	r5,r21
   84308:	8809883a 	mov	r4,r17
   8430c:	dc800015 	stw	r18,0(sp)
   84310:	d9800104 	addi	r6,sp,4
   84314:	800f883a 	mov	r7,r16
   84318:	00887340 	call	88734 <_mbrtowc_r>
   8431c:	017fffc4 	movi	r5,-1
   84320:	117f0826 	beq	r2,r5,83f44 <__svfscanf_r+0x4cc>
   84324:	1002db1e 	bne	r2,zero,84e94 <__svfscanf_r+0x141c>
   84328:	a8000015 	stw	zero,0(r21)
   8432c:	0009883a 	mov	r4,zero
   84330:	0002db06 	br	84ea0 <__svfscanf_r+0x1428>
   84334:	8809883a 	mov	r4,r17
   84338:	e00b883a 	mov	r5,fp
   8433c:	008a37c0 	call	8a37c <__srefill_r>
   84340:	103e3f26 	beq	r2,zero,83c40 <__svfscanf_r+0x1c8>
   84344:	003eff06 	br	83f44 <__svfscanf_r+0x4cc>
   84348:	b0026326 	beq	r22,zero,84cd8 <__svfscanf_r+0x1260>
   8434c:	b9400017 	ldw	r5,0(r23)
   84350:	e0800017 	ldw	r2,0(fp)
   84354:	0021883a 	mov	r16,zero
   84358:	10c00003 	ldbu	r3,0(r2)
   8435c:	28c7883a 	add	r3,r5,r3
   84360:	18c00003 	ldbu	r3,0(r3)
   84364:	18c0020c 	andi	r3,r3,8
   84368:	18c03fcc 	andi	r3,r3,255
   8436c:	18c0201c 	xori	r3,r3,128
   84370:	18ffe004 	addi	r3,r3,-128
   84374:	183fb61e 	bne	r3,zero,84250 <__svfscanf_r+0x7d8>
   84378:	e0c00117 	ldw	r3,4(fp)
   8437c:	10800044 	addi	r2,r2,1
   84380:	84000044 	addi	r16,r16,1
   84384:	18ffffc4 	addi	r3,r3,-1
   84388:	e0c00115 	stw	r3,4(fp)
   8438c:	e0800015 	stw	r2,0(fp)
   84390:	9c3faf26 	beq	r19,r16,84250 <__svfscanf_r+0x7d8>
   84394:	00fff016 	blt	zero,r3,84358 <__svfscanf_r+0x8e0>
   84398:	8809883a 	mov	r4,r17
   8439c:	e00b883a 	mov	r5,fp
   843a0:	008a37c0 	call	8a37c <__srefill_r>
   843a4:	103faa1e 	bne	r2,zero,84250 <__svfscanf_r+0x7d8>
   843a8:	b9400017 	ldw	r5,0(r23)
   843ac:	e0800017 	ldw	r2,0(fp)
   843b0:	003fe906 	br	84358 <__svfscanf_r+0x8e0>
   843b4:	1085883a 	add	r2,r2,r2
   843b8:	1085883a 	add	r2,r2,r2
   843bc:	01000234 	movhi	r4,8
   843c0:	2110f404 	addi	r4,r4,17360
   843c4:	1105883a 	add	r2,r2,r4
   843c8:	10800017 	ldw	r2,0(r2)
   843cc:	1000683a 	jmp	r2
   843d0:	00084670 	cmpltui	zero,zero,8473
   843d4:	00084094 	movui	zero,8450
   843d8:	00084670 	cmpltui	zero,zero,8473
   843dc:	0008465c 	xori	zero,zero,8473
   843e0:	00084094 	movui	zero,8450
   843e4:	00084638 	rdprs	zero,zero,8472
   843e8:	000845ec 	andhi	zero,zero,8471
   843ec:	000845ec 	andhi	zero,zero,8471
   843f0:	000845ec 	andhi	zero,zero,8471
   843f4:	000845ec 	andhi	zero,zero,8471
   843f8:	000845ec 	andhi	zero,zero,8471
   843fc:	000845ec 	andhi	zero,zero,8471
   84400:	000845ec 	andhi	zero,zero,8471
   84404:	000845ec 	andhi	zero,zero,8471
   84408:	000845ec 	andhi	zero,zero,8471
   8440c:	00084094 	movui	zero,8450
   84410:	00084094 	movui	zero,8450
   84414:	00084094 	movui	zero,8450
   84418:	00084094 	movui	zero,8450
   8441c:	00084094 	movui	zero,8450
   84420:	00084094 	movui	zero,8450
   84424:	00084094 	movui	zero,8450
   84428:	00084754 	movui	zero,8477
   8442c:	00084094 	movui	zero,8450
   84430:	00084094 	movui	zero,8450
   84434:	00084094 	movui	zero,8450
   84438:	00084718 	cmpnei	zero,zero,8476
   8443c:	00084764 	muli	zero,zero,8477
   84440:	00084094 	movui	zero,8450
   84444:	00084094 	movui	zero,8450
   84448:	000846f0 	cmpltui	zero,zero,8475
   8444c:	00084094 	movui	zero,8450
   84450:	00084094 	movui	zero,8450
   84454:	00084094 	movui	zero,8450
   84458:	00084094 	movui	zero,8450
   8445c:	000846bc 	xorhi	zero,zero,8474
   84460:	00084094 	movui	zero,8450
   84464:	00084094 	movui	zero,8450
   84468:	00084094 	movui	zero,8450
   8446c:	00084094 	movui	zero,8450
   84470:	00084094 	movui	zero,8450
   84474:	000846a0 	cmpeqi	zero,zero,8474
   84478:	00084094 	movui	zero,8450
   8447c:	00084094 	movui	zero,8450
   84480:	00084094 	movui	zero,8450
   84484:	00084094 	movui	zero,8450
   84488:	00084684 	movi	zero,8474
   8448c:	00084094 	movui	zero,8450
   84490:	00084094 	movui	zero,8450
   84494:	00084094 	movui	zero,8450
   84498:	00084094 	movui	zero,8450
   8449c:	00084094 	movui	zero,8450
   844a0:	00084094 	movui	zero,8450
   844a4:	00084094 	movui	zero,8450
   844a8:	00084754 	movui	zero,8477
   844ac:	00084094 	movui	zero,8450
   844b0:	00084094 	movui	zero,8450
   844b4:	00084094 	movui	zero,8450
   844b8:	00084718 	cmpnei	zero,zero,8476
   844bc:	00084764 	muli	zero,zero,8477
   844c0:	00084094 	movui	zero,8450
   844c4:	00084094 	movui	zero,8450
   844c8:	000846f0 	cmpltui	zero,zero,8475
   844cc:	00084094 	movui	zero,8450
   844d0:	00084094 	movui	zero,8450
   844d4:	00084094 	movui	zero,8450
   844d8:	00084094 	movui	zero,8450
   844dc:	000846bc 	xorhi	zero,zero,8474
   844e0:	00084094 	movui	zero,8450
   844e4:	00084094 	movui	zero,8450
   844e8:	00084094 	movui	zero,8450
   844ec:	00084094 	movui	zero,8450
   844f0:	00084094 	movui	zero,8450
   844f4:	000846a0 	cmpeqi	zero,zero,8474
   844f8:	00084094 	movui	zero,8450
   844fc:	00084094 	movui	zero,8450
   84500:	00084094 	movui	zero,8450
   84504:	00084094 	movui	zero,8450
   84508:	00084684 	movi	zero,8474
   8450c:	b580040c 	andi	r22,r22,16
   84510:	b0023726 	beq	r22,zero,84df0 <__svfscanf_r+0x1378>
   84514:	0021883a 	mov	r16,zero
   84518:	e0800117 	ldw	r2,4(fp)
   8451c:	14c2810e 	bge	r2,r19,84f24 <__svfscanf_r+0x14ac>
   84520:	e0c00017 	ldw	r3,0(fp)
   84524:	8809883a 	mov	r4,r17
   84528:	e00b883a 	mov	r5,fp
   8452c:	1887883a 	add	r3,r3,r2
   84530:	e0c00015 	stw	r3,0(fp)
   84534:	80a1883a 	add	r16,r16,r2
   84538:	98a7c83a 	sub	r19,r19,r2
   8453c:	008a37c0 	call	8a37c <__srefill_r>
   84540:	103ff526 	beq	r2,zero,84518 <__svfscanf_r+0xaa0>
   84544:	803f421e 	bne	r16,zero,84250 <__svfscanf_r+0x7d8>
   84548:	003e7e06 	br	83f44 <__svfscanf_r+0x4cc>
   8454c:	8809883a 	mov	r4,r17
   84550:	e00b883a 	mov	r5,fp
   84554:	008a37c0 	call	8a37c <__srefill_r>
   84558:	103df126 	beq	r2,zero,83d20 <__svfscanf_r+0x2a8>
   8455c:	803e791e 	bne	r16,zero,83f44 <__svfscanf_r+0x4cc>
   84560:	903f1326 	beq	r18,zero,841b0 <__svfscanf_r+0x738>
   84564:	003df006 	br	83d28 <__svfscanf_r+0x2b0>
   84568:	9affa8c4 	addi	r11,r19,-349
   8456c:	04c05744 	movi	r19,349
   84570:	003eb706 	br	84050 <__svfscanf_r+0x5d8>
   84574:	0007883a 	mov	r3,zero
   84578:	003f1806 	br	841dc <__svfscanf_r+0x764>
   8457c:	d8c09c17 	ldw	r3,624(sp)
   84580:	e0800017 	ldw	r2,0(fp)
   84584:	dd405884 	addi	r21,sp,354
   84588:	1c000017 	ldw	r16,0(r3)
   8458c:	1d800104 	addi	r22,r3,4
   84590:	8025883a 	mov	r18,r16
   84594:	10c00003 	ldbu	r3,0(r2)
   84598:	a8c7883a 	add	r3,r21,r3
   8459c:	18c00007 	ldb	r3,0(r3)
   845a0:	1801a726 	beq	r3,zero,84c40 <__svfscanf_r+0x11c8>
   845a4:	e0c00117 	ldw	r3,4(fp)
   845a8:	10800044 	addi	r2,r2,1
   845ac:	94800044 	addi	r18,r18,1
   845b0:	18ffffc4 	addi	r3,r3,-1
   845b4:	e0c00115 	stw	r3,4(fp)
   845b8:	10ffffc3 	ldbu	r3,-1(r2)
   845bc:	9cffffc4 	addi	r19,r19,-1
   845c0:	90ffffc5 	stb	r3,-1(r18)
   845c4:	e0800015 	stw	r2,0(fp)
   845c8:	98019d26 	beq	r19,zero,84c40 <__svfscanf_r+0x11c8>
   845cc:	e0c00117 	ldw	r3,4(fp)
   845d0:	00fff016 	blt	zero,r3,84594 <__svfscanf_r+0xb1c>
   845d4:	8809883a 	mov	r4,r17
   845d8:	e00b883a 	mov	r5,fp
   845dc:	008a37c0 	call	8a37c <__srefill_r>
   845e0:	1001961e 	bne	r2,zero,84c3c <__svfscanf_r+0x11c4>
   845e4:	e0800017 	ldw	r2,0(fp)
   845e8:	003fea06 	br	84594 <__svfscanf_r+0xb1c>
   845ec:	80803fcc 	andi	r2,r16,255
   845f0:	1080201c 	xori	r2,r2,128
   845f4:	10bfe004 	addi	r2,r2,-128
   845f8:	3085883a 	add	r2,r6,r2
   845fc:	103ea51e 	bne	r2,zero,84094 <__svfscanf_r+0x61c>
   84600:	00bf9fc4 	movi	r2,-385
   84604:	b0ac703a 	and	r22,r22,r2
   84608:	91400005 	stb	r5,0(r18)
   8460c:	94800044 	addi	r18,r18,1
   84610:	e0800117 	ldw	r2,4(fp)
   84614:	9cffffc4 	addi	r19,r19,-1
   84618:	a5000044 	addi	r20,r20,1
   8461c:	10bfffc4 	addi	r2,r2,-1
   84620:	e0800115 	stw	r2,4(fp)
   84624:	0081520e 	bge	zero,r2,84b70 <__svfscanf_r+0x10f8>
   84628:	39c00044 	addi	r7,r7,1
   8462c:	e1c00015 	stw	r7,0(fp)
   84630:	983e931e 	bne	r19,zero,84080 <__svfscanf_r+0x608>
   84634:	003e9706 	br	84094 <__svfscanf_r+0x61c>
   84638:	b080400c 	andi	r2,r22,256
   8463c:	103feb26 	beq	r2,zero,845ec <__svfscanf_r+0xb74>
   84640:	00bfdfc4 	movi	r2,-129
   84644:	b0ac703a 	and	r22,r22,r2
   84648:	ad400044 	addi	r21,r21,1
   8464c:	583ff026 	beq	r11,zero,84610 <__svfscanf_r+0xb98>
   84650:	5affffc4 	addi	r11,r11,-1
   84654:	9cc00044 	addi	r19,r19,1
   84658:	003fed06 	br	84610 <__svfscanf_r+0xb98>
   8465c:	b080800c 	andi	r2,r22,512
   84660:	103e8c26 	beq	r2,zero,84094 <__svfscanf_r+0x61c>
   84664:	b3ec703a 	and	r22,r22,r15
   84668:	dd40a215 	stw	r21,648(sp)
   8466c:	003fe606 	br	84608 <__svfscanf_r+0xb90>
   84670:	b080200c 	andi	r2,r22,128
   84674:	103e8726 	beq	r2,zero,84094 <__svfscanf_r+0x61c>
   84678:	00bfdfc4 	movi	r2,-129
   8467c:	b0ac703a 	and	r22,r22,r2
   84680:	003fe106 	br	84608 <__svfscanf_r+0xb90>
   84684:	81003fcc 	andi	r4,r16,255
   84688:	2100201c 	xori	r4,r4,128
   8468c:	213fe004 	addi	r4,r4,-128
   84690:	008001c4 	movi	r2,7
   84694:	20be7f1e 	bne	r4,r2,84094 <__svfscanf_r+0x61c>
   84698:	04000204 	movi	r16,8
   8469c:	003fda06 	br	84608 <__svfscanf_r+0xb90>
   846a0:	81003fcc 	andi	r4,r16,255
   846a4:	2100201c 	xori	r4,r4,128
   846a8:	213fe004 	addi	r4,r4,-128
   846ac:	00800184 	movi	r2,6
   846b0:	20be781e 	bne	r4,r2,84094 <__svfscanf_r+0x61c>
   846b4:	040001c4 	movi	r16,7
   846b8:	003fd306 	br	84608 <__svfscanf_r+0xb90>
   846bc:	3001681e 	bne	r6,zero,84c60 <__svfscanf_r+0x11e8>
   846c0:	b101c00c 	andi	r4,r22,1792
   846c4:	0081c004 	movi	r2,1792
   846c8:	20820126 	beq	r4,r2,84ed0 <__svfscanf_r+0x1458>
   846cc:	80803fcc 	andi	r2,r16,255
   846d0:	1080201c 	xori	r2,r2,128
   846d4:	10bfe004 	addi	r2,r2,-128
   846d8:	01000044 	movi	r4,1
   846dc:	11000226 	beq	r2,r4,846e8 <__svfscanf_r+0xc70>
   846e0:	01000104 	movi	r4,4
   846e4:	113e6b1e 	bne	r2,r4,84094 <__svfscanf_r+0x61c>
   846e8:	84000044 	addi	r16,r16,1
   846ec:	003fc606 	br	84608 <__svfscanf_r+0xb90>
   846f0:	80803fcc 	andi	r2,r16,255
   846f4:	1080201c 	xori	r2,r2,128
   846f8:	10bfe004 	addi	r2,r2,-128
   846fc:	10015c1e 	bne	r2,zero,84c70 <__svfscanf_r+0x11f8>
   84700:	b101c00c 	andi	r4,r22,1792
   84704:	0081c004 	movi	r2,1792
   84708:	20be621e 	bne	r4,r2,84094 <__svfscanf_r+0x61c>
   8470c:	b32c703a 	and	r22,r22,r12
   84710:	04000044 	movi	r16,1
   84714:	003fbc06 	br	84608 <__svfscanf_r+0xb90>
   84718:	b081400c 	andi	r2,r22,1280
   8471c:	13800326 	beq	r2,r14,8472c <__svfscanf_r+0xcb4>
   84720:	b081000c 	andi	r2,r22,1024
   84724:	103e5b26 	beq	r2,zero,84094 <__svfscanf_r+0x61c>
   84728:	a83e5d26 	beq	r21,zero,840a0 <__svfscanf_r+0x628>
   8472c:	b080800c 	andi	r2,r22,512
   84730:	1000041e 	bne	r2,zero,84744 <__svfscanf_r+0xccc>
   84734:	da00a217 	ldw	r8,648(sp)
   84738:	dc80a115 	stw	r18,644(sp)
   8473c:	aa2bc83a 	sub	r21,r21,r8
   84740:	dd40a315 	stw	r21,652(sp)
   84744:	b32c703a 	and	r22,r22,r12
   84748:	b5806014 	ori	r22,r22,384
   8474c:	002b883a 	mov	r21,zero
   84750:	003fad06 	br	84608 <__svfscanf_r+0xb90>
   84754:	00800044 	movi	r2,1
   84758:	30be4e1e 	bne	r6,r2,84094 <__svfscanf_r+0x61c>
   8475c:	01800084 	movi	r6,2
   84760:	003fa906 	br	84608 <__svfscanf_r+0xb90>
   84764:	81003fcc 	andi	r4,r16,255
   84768:	2100201c 	xori	r4,r4,128
   8476c:	213fe004 	addi	r4,r4,-128
   84770:	00800084 	movi	r2,2
   84774:	20be471e 	bne	r4,r2,84094 <__svfscanf_r+0x61c>
   84778:	040000c4 	movi	r16,3
   8477c:	003fa206 	br	84608 <__svfscanf_r+0xb90>
   84780:	b5800054 	ori	r22,r22,1
   84784:	003d2606 	br	83c20 <__svfscanf_r+0x1a8>
   84788:	02000274 	movhi	r8,9
   8478c:	42313c04 	addi	r8,r8,-15120
   84790:	da00a015 	stw	r8,640(sp)
   84794:	02000284 	movi	r8,10
   84798:	d8c09d15 	stw	r3,628(sp)
   8479c:	da009f15 	stw	r8,636(sp)
   847a0:	040000c4 	movi	r16,3
   847a4:	003d2406 	br	83c38 <__svfscanf_r+0x1c0>
   847a8:	d8c09d15 	stw	r3,628(sp)
   847ac:	1821883a 	mov	r16,r3
   847b0:	003cfd06 	br	83ba8 <__svfscanf_r+0x130>
   847b4:	d8c09d15 	stw	r3,628(sp)
   847b8:	b5800054 	ori	r22,r22,1
   847bc:	003d1806 	br	83c20 <__svfscanf_r+0x1a8>
   847c0:	d8c09d15 	stw	r3,628(sp)
   847c4:	04000104 	movi	r16,4
   847c8:	003d1b06 	br	83c38 <__svfscanf_r+0x1c0>
   847cc:	81400043 	ldbu	r5,1(r16)
   847d0:	b5800094 	ori	r22,r22,2
   847d4:	1821883a 	mov	r16,r3
   847d8:	003d0606 	br	83bf4 <__svfscanf_r+0x17c>
   847dc:	d8c09d15 	stw	r3,628(sp)
   847e0:	b5800054 	ori	r22,r22,1
   847e4:	02000274 	movhi	r8,9
   847e8:	42313c04 	addi	r8,r8,-15120
   847ec:	da00a015 	stw	r8,640(sp)
   847f0:	02000204 	movi	r8,8
   847f4:	da009f15 	stw	r8,636(sp)
   847f8:	040000c4 	movi	r16,3
   847fc:	003d0e06 	br	83c38 <__svfscanf_r+0x1c0>
   84800:	81400043 	ldbu	r5,1(r16)
   84804:	b5800414 	ori	r22,r22,16
   84808:	1821883a 	mov	r16,r3
   8480c:	003cf906 	br	83bf4 <__svfscanf_r+0x17c>
   84810:	28803fcc 	andi	r2,r5,255
   84814:	9cc002a4 	muli	r19,r19,10
   84818:	1080201c 	xori	r2,r2,128
   8481c:	10bfe004 	addi	r2,r2,-128
   84820:	98a7883a 	add	r19,r19,r2
   84824:	81400043 	ldbu	r5,1(r16)
   84828:	9cfff404 	addi	r19,r19,-48
   8482c:	1821883a 	mov	r16,r3
   84830:	003cf006 	br	83bf4 <__svfscanf_r+0x17c>
   84834:	d8c09d15 	stw	r3,628(sp)
   84838:	b5808014 	ori	r22,r22,512
   8483c:	02000274 	movhi	r8,9
   84840:	42313c04 	addi	r8,r8,-15120
   84844:	da00a015 	stw	r8,640(sp)
   84848:	02000404 	movi	r8,16
   8484c:	da009f15 	stw	r8,636(sp)
   84850:	040000c4 	movi	r16,3
   84854:	003cf806 	br	83c38 <__svfscanf_r+0x1c0>
   84858:	d9005884 	addi	r4,sp,354
   8485c:	180b883a 	mov	r5,r3
   84860:	d8c09d15 	stw	r3,628(sp)
   84864:	008a6300 	call	8a630 <__sccl>
   84868:	d8809d15 	stw	r2,628(sp)
   8486c:	b5801014 	ori	r22,r22,64
   84870:	04000044 	movi	r16,1
   84874:	003cf006 	br	83c38 <__svfscanf_r+0x1c0>
   84878:	d8c09d15 	stw	r3,628(sp)
   8487c:	b5801014 	ori	r22,r22,64
   84880:	0021883a 	mov	r16,zero
   84884:	003cec06 	br	83c38 <__svfscanf_r+0x1c0>
   84888:	d8c09d15 	stw	r3,628(sp)
   8488c:	003ce406 	br	83c20 <__svfscanf_r+0x1a8>
   84890:	81400043 	ldbu	r5,1(r16)
   84894:	b5800114 	ori	r22,r22,4
   84898:	1821883a 	mov	r16,r3
   8489c:	003cd506 	br	83bf4 <__svfscanf_r+0x17c>
   848a0:	02000274 	movhi	r8,9
   848a4:	422fce04 	addi	r8,r8,-16584
   848a8:	d8c09d15 	stw	r3,628(sp)
   848ac:	da00a015 	stw	r8,640(sp)
   848b0:	d8009f15 	stw	zero,636(sp)
   848b4:	040000c4 	movi	r16,3
   848b8:	003cdf06 	br	83c38 <__svfscanf_r+0x1c0>
   848bc:	81400043 	ldbu	r5,1(r16)
   848c0:	28803fcc 	andi	r2,r5,255
   848c4:	1080201c 	xori	r2,r2,128
   848c8:	10bfe004 	addi	r2,r2,-128
   848cc:	11c18326 	beq	r2,r7,84edc <__svfscanf_r+0x1464>
   848d0:	b5800054 	ori	r22,r22,1
   848d4:	1821883a 	mov	r16,r3
   848d8:	003cc606 	br	83bf4 <__svfscanf_r+0x17c>
   848dc:	d8c09d15 	stw	r3,628(sp)
   848e0:	b080040c 	andi	r2,r22,16
   848e4:	103d101e 	bne	r2,zero,83d28 <__svfscanf_r+0x2b0>
   848e8:	b080010c 	andi	r2,r22,4
   848ec:	10017f26 	beq	r2,zero,84eec <__svfscanf_r+0x1474>
   848f0:	d8c09c17 	ldw	r3,624(sp)
   848f4:	dc009d17 	ldw	r16,628(sp)
   848f8:	18800017 	ldw	r2,0(r3)
   848fc:	18c00104 	addi	r3,r3,4
   84900:	d8c09c15 	stw	r3,624(sp)
   84904:	1500000d 	sth	r20,0(r2)
   84908:	800d883a 	mov	r6,r16
   8490c:	003c9306 	br	83b5c <__svfscanf_r+0xe4>
   84910:	d8c09d15 	stw	r3,628(sp)
   84914:	b5808814 	ori	r22,r22,544
   84918:	003fc806 	br	8483c <__svfscanf_r+0xdc4>
   8491c:	d8c09d15 	stw	r3,628(sp)
   84920:	003fb006 	br	847e4 <__svfscanf_r+0xd6c>
   84924:	d8c09d15 	stw	r3,628(sp)
   84928:	04000084 	movi	r16,2
   8492c:	003cc206 	br	83c38 <__svfscanf_r+0x1c0>
   84930:	023fff84 	movi	r8,-2
   84934:	123cf826 	beq	r2,r8,83d18 <__svfscanf_r+0x2a0>
   84938:	a429883a 	add	r20,r20,r16
   8493c:	9cffffc4 	addi	r19,r19,-1
   84940:	903cf326 	beq	r18,zero,83d10 <__svfscanf_r+0x298>
   84944:	0021883a 	mov	r16,zero
   84948:	003cf306 	br	83d18 <__svfscanf_r+0x2a0>
   8494c:	1085883a 	add	r2,r2,r2
   84950:	1085883a 	add	r2,r2,r2
   84954:	01000234 	movhi	r4,8
   84958:	21125a04 	addi	r4,r4,18792
   8495c:	1105883a 	add	r2,r2,r4
   84960:	10800017 	ldw	r2,0(r2)
   84964:	1000683a 	jmp	r2
   84968:	00084b5c 	xori	zero,zero,8493
   8496c:	0008420c 	andi	zero,zero,8456
   84970:	00084b5c 	xori	zero,zero,8493
   84974:	0008420c 	andi	zero,zero,8456
   84978:	0008420c 	andi	zero,zero,8456
   8497c:	00084b34 	movhi	zero,8492
   84980:	00084b14 	movui	zero,8492
   84984:	00084b14 	movui	zero,8492
   84988:	00084b14 	movui	zero,8492
   8498c:	00084b14 	movui	zero,8492
   84990:	00084b14 	movui	zero,8492
   84994:	00084b14 	movui	zero,8492
   84998:	00084b14 	movui	zero,8492
   8499c:	00084af4 	movhi	zero,8491
   849a0:	00084af4 	movhi	zero,8491
   849a4:	0008420c 	andi	zero,zero,8456
   849a8:	0008420c 	andi	zero,zero,8456
   849ac:	0008420c 	andi	zero,zero,8456
   849b0:	0008420c 	andi	zero,zero,8456
   849b4:	0008420c 	andi	zero,zero,8456
   849b8:	0008420c 	andi	zero,zero,8456
   849bc:	0008420c 	andi	zero,zero,8456
   849c0:	00084ae0 	cmpeqi	zero,zero,8491
   849c4:	00084ae0 	cmpeqi	zero,zero,8491
   849c8:	00084ae0 	cmpeqi	zero,zero,8491
   849cc:	00084ae0 	cmpeqi	zero,zero,8491
   849d0:	00084ae0 	cmpeqi	zero,zero,8491
   849d4:	00084ae0 	cmpeqi	zero,zero,8491
   849d8:	0008420c 	andi	zero,zero,8456
   849dc:	0008420c 	andi	zero,zero,8456
   849e0:	0008420c 	andi	zero,zero,8456
   849e4:	0008420c 	andi	zero,zero,8456
   849e8:	0008420c 	andi	zero,zero,8456
   849ec:	0008420c 	andi	zero,zero,8456
   849f0:	0008420c 	andi	zero,zero,8456
   849f4:	0008420c 	andi	zero,zero,8456
   849f8:	0008420c 	andi	zero,zero,8456
   849fc:	0008420c 	andi	zero,zero,8456
   84a00:	0008420c 	andi	zero,zero,8456
   84a04:	0008420c 	andi	zero,zero,8456
   84a08:	0008420c 	andi	zero,zero,8456
   84a0c:	0008420c 	andi	zero,zero,8456
   84a10:	0008420c 	andi	zero,zero,8456
   84a14:	0008420c 	andi	zero,zero,8456
   84a18:	0008420c 	andi	zero,zero,8456
   84a1c:	00084aa0 	cmpeqi	zero,zero,8490
   84a20:	0008420c 	andi	zero,zero,8456
   84a24:	0008420c 	andi	zero,zero,8456
   84a28:	0008420c 	andi	zero,zero,8456
   84a2c:	0008420c 	andi	zero,zero,8456
   84a30:	0008420c 	andi	zero,zero,8456
   84a34:	0008420c 	andi	zero,zero,8456
   84a38:	0008420c 	andi	zero,zero,8456
   84a3c:	0008420c 	andi	zero,zero,8456
   84a40:	00084ae0 	cmpeqi	zero,zero,8491
   84a44:	00084ae0 	cmpeqi	zero,zero,8491
   84a48:	00084ae0 	cmpeqi	zero,zero,8491
   84a4c:	00084ae0 	cmpeqi	zero,zero,8491
   84a50:	00084ae0 	cmpeqi	zero,zero,8491
   84a54:	00084ae0 	cmpeqi	zero,zero,8491
   84a58:	0008420c 	andi	zero,zero,8456
   84a5c:	0008420c 	andi	zero,zero,8456
   84a60:	0008420c 	andi	zero,zero,8456
   84a64:	0008420c 	andi	zero,zero,8456
   84a68:	0008420c 	andi	zero,zero,8456
   84a6c:	0008420c 	andi	zero,zero,8456
   84a70:	0008420c 	andi	zero,zero,8456
   84a74:	0008420c 	andi	zero,zero,8456
   84a78:	0008420c 	andi	zero,zero,8456
   84a7c:	0008420c 	andi	zero,zero,8456
   84a80:	0008420c 	andi	zero,zero,8456
   84a84:	0008420c 	andi	zero,zero,8456
   84a88:	0008420c 	andi	zero,zero,8456
   84a8c:	0008420c 	andi	zero,zero,8456
   84a90:	0008420c 	andi	zero,zero,8456
   84a94:	0008420c 	andi	zero,zero,8456
   84a98:	0008420c 	andi	zero,zero,8456
   84a9c:	00084aa0 	cmpeqi	zero,zero,8490
   84aa0:	b081800c 	andi	r2,r22,1536
   84aa4:	11fdd91e 	bne	r2,r7,8420c <__svfscanf_r+0x794>
   84aa8:	b1ac703a 	and	r22,r22,r6
   84aac:	b5814014 	ori	r22,r22,1280
   84ab0:	02400404 	movi	r9,16
   84ab4:	91400005 	stb	r5,0(r18)
   84ab8:	94800044 	addi	r18,r18,1
   84abc:	e0800117 	ldw	r2,4(fp)
   84ac0:	10bfffc4 	addi	r2,r2,-1
   84ac4:	e0800115 	stw	r2,4(fp)
   84ac8:	00803b0e 	bge	zero,r2,84bb8 <__svfscanf_r+0x1140>
   84acc:	42000044 	addi	r8,r8,1
   84ad0:	e2000015 	stw	r8,0(fp)
   84ad4:	9cffffc4 	addi	r19,r19,-1
   84ad8:	983dc71e 	bne	r19,zero,841f8 <__svfscanf_r+0x780>
   84adc:	003dcb06 	br	8420c <__svfscanf_r+0x794>
   84ae0:	00800284 	movi	r2,10
   84ae4:	127dc90e 	bge	r2,r9,8420c <__svfscanf_r+0x794>
   84ae8:	00bd1fc4 	movi	r2,-2945
   84aec:	b0ac703a 	and	r22,r22,r2
   84af0:	003ff006 	br	84ab4 <__svfscanf_r+0x103c>
   84af4:	4a53883a 	add	r9,r9,r9
   84af8:	010002b4 	movhi	r4,10
   84afc:	2125f084 	addi	r4,r4,-26686
   84b00:	2245883a 	add	r2,r4,r9
   84b04:	1240000f 	ldh	r9,0(r2)
   84b08:	00800204 	movi	r2,8
   84b0c:	127ff616 	blt	r2,r9,84ae8 <__svfscanf_r+0x1070>
   84b10:	003dbe06 	br	8420c <__svfscanf_r+0x794>
   84b14:	4a53883a 	add	r9,r9,r9
   84b18:	010002b4 	movhi	r4,10
   84b1c:	2125f084 	addi	r4,r4,-26686
   84b20:	2245883a 	add	r2,r4,r9
   84b24:	1240000f 	ldh	r9,0(r2)
   84b28:	00bd1fc4 	movi	r2,-2945
   84b2c:	b0ac703a 	and	r22,r22,r2
   84b30:	003fe006 	br	84ab4 <__svfscanf_r+0x103c>
   84b34:	b082000c 	andi	r2,r22,2048
   84b38:	103fde26 	beq	r2,zero,84ab4 <__svfscanf_r+0x103c>
   84b3c:	4800021e 	bne	r9,zero,84b48 <__svfscanf_r+0x10d0>
   84b40:	b5808014 	ori	r22,r22,512
   84b44:	02400204 	movi	r9,8
   84b48:	b081000c 	andi	r2,r22,1024
   84b4c:	10008e26 	beq	r2,zero,84d88 <__svfscanf_r+0x1310>
   84b50:	00be9fc4 	movi	r2,-1409
   84b54:	b0ac703a 	and	r22,r22,r2
   84b58:	003fd606 	br	84ab4 <__svfscanf_r+0x103c>
   84b5c:	b080200c 	andi	r2,r22,128
   84b60:	103daa26 	beq	r2,zero,8420c <__svfscanf_r+0x794>
   84b64:	00bfdfc4 	movi	r2,-129
   84b68:	b0ac703a 	and	r22,r22,r2
   84b6c:	003fd106 	br	84ab4 <__svfscanf_r+0x103c>
   84b70:	8809883a 	mov	r4,r17
   84b74:	e00b883a 	mov	r5,fp
   84b78:	d8c0a915 	stw	r3,676(sp)
   84b7c:	d980a815 	stw	r6,672(sp)
   84b80:	dac0a715 	stw	r11,668(sp)
   84b84:	db00a515 	stw	r12,660(sp)
   84b88:	db80a415 	stw	r14,656(sp)
   84b8c:	dbc0a615 	stw	r15,664(sp)
   84b90:	008a37c0 	call	8a37c <__srefill_r>
   84b94:	d8c0a917 	ldw	r3,676(sp)
   84b98:	d980a817 	ldw	r6,672(sp)
   84b9c:	dac0a717 	ldw	r11,668(sp)
   84ba0:	db00a517 	ldw	r12,660(sp)
   84ba4:	db80a417 	ldw	r14,656(sp)
   84ba8:	dbc0a617 	ldw	r15,664(sp)
   84bac:	103d391e 	bne	r2,zero,84094 <__svfscanf_r+0x61c>
   84bb0:	983d331e 	bne	r19,zero,84080 <__svfscanf_r+0x608>
   84bb4:	003d3706 	br	84094 <__svfscanf_r+0x61c>
   84bb8:	8809883a 	mov	r4,r17
   84bbc:	e00b883a 	mov	r5,fp
   84bc0:	d8c0a915 	stw	r3,676(sp)
   84bc4:	d980a815 	stw	r6,672(sp)
   84bc8:	d9c0a415 	stw	r7,656(sp)
   84bcc:	da40a515 	stw	r9,660(sp)
   84bd0:	008a37c0 	call	8a37c <__srefill_r>
   84bd4:	d8c0a917 	ldw	r3,676(sp)
   84bd8:	d980a817 	ldw	r6,672(sp)
   84bdc:	d9c0a417 	ldw	r7,656(sp)
   84be0:	da40a517 	ldw	r9,660(sp)
   84be4:	103fbb26 	beq	r2,zero,84ad4 <__svfscanf_r+0x105c>
   84be8:	003d8806 	br	8420c <__svfscanf_r+0x794>
   84bec:	a429883a 	add	r20,r20,r16
   84bf0:	9cffffc4 	addi	r19,r19,-1
   84bf4:	b000f41e 	bne	r22,zero,84fc8 <__svfscanf_r+0x1550>
   84bf8:	ad400104 	addi	r21,r21,4
   84bfc:	0021883a 	mov	r16,zero
   84c00:	e0800117 	ldw	r2,4(fp)
   84c04:	00bda216 	blt	zero,r2,84290 <__svfscanf_r+0x818>
   84c08:	8809883a 	mov	r4,r17
   84c0c:	e00b883a 	mov	r5,fp
   84c10:	008a37c0 	call	8a37c <__srefill_r>
   84c14:	103d9e26 	beq	r2,zero,84290 <__svfscanf_r+0x818>
   84c18:	803cca1e 	bne	r16,zero,83f44 <__svfscanf_r+0x4cc>
   84c1c:	b03c421e 	bne	r22,zero,83d28 <__svfscanf_r+0x2b0>
   84c20:	d8809e17 	ldw	r2,632(sp)
   84c24:	dc009d17 	ldw	r16,628(sp)
   84c28:	a8000015 	stw	zero,0(r21)
   84c2c:	10800044 	addi	r2,r2,1
   84c30:	d8809e15 	stw	r2,632(sp)
   84c34:	800d883a 	mov	r6,r16
   84c38:	003bc806 	br	83b5c <__svfscanf_r+0xe4>
   84c3c:	84bcc126 	beq	r16,r18,83f44 <__svfscanf_r+0x4cc>
   84c40:	9421c83a 	sub	r16,r18,r16
   84c44:	803bc926 	beq	r16,zero,83b6c <__svfscanf_r+0xf4>
   84c48:	d8809e17 	ldw	r2,632(sp)
   84c4c:	90000005 	stb	zero,0(r18)
   84c50:	dd809c15 	stw	r22,624(sp)
   84c54:	10800044 	addi	r2,r2,1
   84c58:	d8809e15 	stw	r2,632(sp)
   84c5c:	003d7c06 	br	84250 <__svfscanf_r+0x7d8>
   84c60:	00800084 	movi	r2,2
   84c64:	30be991e 	bne	r6,r2,846cc <__svfscanf_r+0xc54>
   84c68:	018000c4 	movi	r6,3
   84c6c:	003e6606 	br	84608 <__svfscanf_r+0xb90>
   84c70:	010000c4 	movi	r4,3
   84c74:	113e9c26 	beq	r2,r4,846e8 <__svfscanf_r+0xc70>
   84c78:	01000144 	movi	r4,5
   84c7c:	113d051e 	bne	r2,r4,84094 <__svfscanf_r+0x61c>
   84c80:	84000044 	addi	r16,r16,1
   84c84:	003e6006 	br	84608 <__svfscanf_r+0xb90>
   84c88:	002d883a 	mov	r22,zero
   84c8c:	003bfd06 	br	83c84 <__svfscanf_r+0x20c>
   84c90:	d9c09f17 	ldw	r7,636(sp)
   84c94:	da00a017 	ldw	r8,640(sp)
   84c98:	8809883a 	mov	r4,r17
   84c9c:	d9400104 	addi	r5,sp,4
   84ca0:	000d883a 	mov	r6,zero
   84ca4:	90000005 	stb	zero,0(r18)
   84ca8:	403ee83a 	callr	r8
   84cac:	b0c0080c 	andi	r3,r22,32
   84cb0:	18004726 	beq	r3,zero,84dd0 <__svfscanf_r+0x1358>
   84cb4:	d9009c17 	ldw	r4,624(sp)
   84cb8:	20c00017 	ldw	r3,0(r4)
   84cbc:	21000104 	addi	r4,r4,4
   84cc0:	d9009c15 	stw	r4,624(sp)
   84cc4:	18800015 	stw	r2,0(r3)
   84cc8:	d8809e17 	ldw	r2,632(sp)
   84ccc:	10800044 	addi	r2,r2,1
   84cd0:	d8809e15 	stw	r2,632(sp)
   84cd4:	003d5b06 	br	84244 <__svfscanf_r+0x7cc>
   84cd8:	d8c09c17 	ldw	r3,624(sp)
   84cdc:	e0800017 	ldw	r2,0(fp)
   84ce0:	1c800017 	ldw	r18,0(r3)
   84ce4:	1d400104 	addi	r21,r3,4
   84ce8:	9021883a 	mov	r16,r18
   84cec:	10c00003 	ldbu	r3,0(r2)
   84cf0:	b9400017 	ldw	r5,0(r23)
   84cf4:	28c7883a 	add	r3,r5,r3
   84cf8:	18c00003 	ldbu	r3,0(r3)
   84cfc:	18c0020c 	andi	r3,r3,8
   84d00:	18c03fcc 	andi	r3,r3,255
   84d04:	18c0201c 	xori	r3,r3,128
   84d08:	18ffe004 	addi	r3,r3,-128
   84d0c:	1800121e 	bne	r3,zero,84d58 <__svfscanf_r+0x12e0>
   84d10:	e0c00117 	ldw	r3,4(fp)
   84d14:	10800044 	addi	r2,r2,1
   84d18:	84000044 	addi	r16,r16,1
   84d1c:	18ffffc4 	addi	r3,r3,-1
   84d20:	e0c00115 	stw	r3,4(fp)
   84d24:	10ffffc3 	ldbu	r3,-1(r2)
   84d28:	9cffffc4 	addi	r19,r19,-1
   84d2c:	80ffffc5 	stb	r3,-1(r16)
   84d30:	e0800015 	stw	r2,0(fp)
   84d34:	98000826 	beq	r19,zero,84d58 <__svfscanf_r+0x12e0>
   84d38:	e0c00117 	ldw	r3,4(fp)
   84d3c:	00ffeb16 	blt	zero,r3,84cec <__svfscanf_r+0x1274>
   84d40:	8809883a 	mov	r4,r17
   84d44:	e00b883a 	mov	r5,fp
   84d48:	008a37c0 	call	8a37c <__srefill_r>
   84d4c:	1000021e 	bne	r2,zero,84d58 <__svfscanf_r+0x12e0>
   84d50:	e0800017 	ldw	r2,0(fp)
   84d54:	003fe506 	br	84cec <__svfscanf_r+0x1274>
   84d58:	d8809e17 	ldw	r2,632(sp)
   84d5c:	84a5c83a 	sub	r18,r16,r18
   84d60:	80000005 	stb	zero,0(r16)
   84d64:	dc009d17 	ldw	r16,628(sp)
   84d68:	10800044 	addi	r2,r2,1
   84d6c:	a4a9883a 	add	r20,r20,r18
   84d70:	d8809e15 	stw	r2,632(sp)
   84d74:	dd409c15 	stw	r21,624(sp)
   84d78:	800d883a 	mov	r6,r16
   84d7c:	003b7706 	br	83b5c <__svfscanf_r+0xe4>
   84d80:	dd409b04 	addi	r21,sp,620
   84d84:	003d4006 	br	84288 <__svfscanf_r+0x810>
   84d88:	00bf1fc4 	movi	r2,-897
   84d8c:	b0ac703a 	and	r22,r22,r2
   84d90:	18000226 	beq	r3,zero,84d9c <__svfscanf_r+0x1324>
   84d94:	18ffffc4 	addi	r3,r3,-1
   84d98:	9cc00044 	addi	r19,r19,1
   84d9c:	84000044 	addi	r16,r16,1
   84da0:	003f4606 	br	84abc <__svfscanf_r+0x1044>
   84da4:	803d2a1e 	bne	r16,zero,84250 <__svfscanf_r+0x7d8>
   84da8:	003b7006 	br	83b6c <__svfscanf_r+0xf4>
   84dac:	b280008c 	andi	r10,r22,2
   84db0:	50008f26 	beq	r10,zero,84ff0 <__svfscanf_r+0x1578>
   84db4:	da009c17 	ldw	r8,624(sp)
   84db8:	40800017 	ldw	r2,0(r8)
   84dbc:	42000104 	addi	r8,r8,4
   84dc0:	da009c15 	stw	r8,624(sp)
   84dc4:	15400015 	stw	r21,0(r2)
   84dc8:	10c00115 	stw	r3,4(r2)
   84dcc:	003cf806 	br	841b0 <__svfscanf_r+0x738>
   84dd0:	b0c0010c 	andi	r3,r22,4
   84dd4:	18006226 	beq	r3,zero,84f60 <__svfscanf_r+0x14e8>
   84dd8:	d9409c17 	ldw	r5,624(sp)
   84ddc:	28c00017 	ldw	r3,0(r5)
   84de0:	29400104 	addi	r5,r5,4
   84de4:	d9409c15 	stw	r5,624(sp)
   84de8:	1880000d 	sth	r2,0(r3)
   84dec:	003fb606 	br	84cc8 <__svfscanf_r+0x1250>
   84df0:	d8c09c17 	ldw	r3,624(sp)
   84df4:	980d883a 	mov	r6,r19
   84df8:	01400044 	movi	r5,1
   84dfc:	19000017 	ldw	r4,0(r3)
   84e00:	e00f883a 	mov	r7,fp
   84e04:	00872640 	call	87264 <fread>
   84e08:	d9009c17 	ldw	r4,624(sp)
   84e0c:	24c00104 	addi	r19,r4,4
   84e10:	103c4c26 	beq	r2,zero,83f44 <__svfscanf_r+0x4cc>
   84e14:	1529883a 	add	r20,r2,r20
   84e18:	d8809e17 	ldw	r2,632(sp)
   84e1c:	dc009d17 	ldw	r16,628(sp)
   84e20:	dcc09c15 	stw	r19,624(sp)
   84e24:	10800044 	addi	r2,r2,1
   84e28:	d8809e15 	stw	r2,632(sp)
   84e2c:	800d883a 	mov	r6,r16
   84e30:	003b4a06 	br	83b5c <__svfscanf_r+0xe4>
   84e34:	da00a117 	ldw	r8,644(sp)
   84e38:	000d883a 	mov	r6,zero
   84e3c:	8809883a 	mov	r4,r17
   84e40:	41400044 	addi	r5,r8,1
   84e44:	01c00284 	movi	r7,10
   84e48:	008bf380 	call	8bf38 <_strtol_r>
   84e4c:	d8c0a317 	ldw	r3,652(sp)
   84e50:	10cdc83a 	sub	r6,r2,r3
   84e54:	d900a117 	ldw	r4,644(sp)
   84e58:	d88055c4 	addi	r2,sp,343
   84e5c:	20800236 	bltu	r4,r2,84e68 <__svfscanf_r+0x13f0>
   84e60:	d9005584 	addi	r4,sp,342
   84e64:	d900a115 	stw	r4,644(sp)
   84e68:	d900a117 	ldw	r4,644(sp)
   84e6c:	014002b4 	movhi	r5,10
   84e70:	2965ef04 	addi	r5,r5,-26692
   84e74:	008a7540 	call	8a754 <sprintf>
   84e78:	003cbf06 	br	84178 <__svfscanf_r+0x700>
   84e7c:	da00a217 	ldw	r8,648(sp)
   84e80:	aa05c83a 	sub	r2,r21,r8
   84e84:	008dc83a 	sub	r6,zero,r2
   84e88:	103cbb26 	beq	r2,zero,84178 <__svfscanf_r+0x700>
   84e8c:	dc80a115 	stw	r18,644(sp)
   84e90:	003ff006 	br	84e54 <__svfscanf_r+0x13dc>
   84e94:	023fff84 	movi	r8,-2
   84e98:	123f5926 	beq	r2,r8,84c00 <__svfscanf_r+0x1188>
   84e9c:	a9000017 	ldw	r4,0(r21)
   84ea0:	0087cf40 	call	87cf4 <iswspace>
   84ea4:	103f5126 	beq	r2,zero,84bec <__svfscanf_r+0x1174>
   84ea8:	803f5c26 	beq	r16,zero,84c1c <__svfscanf_r+0x11a4>
   84eac:	843fffc4 	addi	r16,r16,-1
   84eb0:	d8c00104 	addi	r3,sp,4
   84eb4:	1c05883a 	add	r2,r3,r16
   84eb8:	11400003 	ldbu	r5,0(r2)
   84ebc:	8809883a 	mov	r4,r17
   84ec0:	e00d883a 	mov	r6,fp
   84ec4:	008cc1c0 	call	8cc1c <_ungetc_r>
   84ec8:	803ff81e 	bne	r16,zero,84eac <__svfscanf_r+0x1434>
   84ecc:	003f5306 	br	84c1c <__svfscanf_r+0x11a4>
   84ed0:	b32c703a 	and	r22,r22,r12
   84ed4:	01800044 	movi	r6,1
   84ed8:	003dcb06 	br	84608 <__svfscanf_r+0xb90>
   84edc:	81400083 	ldbu	r5,2(r16)
   84ee0:	b5800094 	ori	r22,r22,2
   84ee4:	84000084 	addi	r16,r16,2
   84ee8:	003b4206 	br	83bf4 <__svfscanf_r+0x17c>
   84eec:	b080004c 	andi	r2,r22,1
   84ef0:	1000131e 	bne	r2,zero,84f40 <__svfscanf_r+0x14c8>
   84ef4:	b580008c 	andi	r22,r22,2
   84ef8:	b0003526 	beq	r22,zero,84fd0 <__svfscanf_r+0x1558>
   84efc:	d9409c17 	ldw	r5,624(sp)
   84f00:	a007d7fa 	srai	r3,r20,31
   84f04:	dc009d17 	ldw	r16,628(sp)
   84f08:	28800017 	ldw	r2,0(r5)
   84f0c:	29400104 	addi	r5,r5,4
   84f10:	d9409c15 	stw	r5,624(sp)
   84f14:	15000015 	stw	r20,0(r2)
   84f18:	10c00115 	stw	r3,4(r2)
   84f1c:	800d883a 	mov	r6,r16
   84f20:	003b0e06 	br	83b5c <__svfscanf_r+0xe4>
   84f24:	e1000017 	ldw	r4,0(fp)
   84f28:	14c5c83a 	sub	r2,r2,r19
   84f2c:	84e1883a 	add	r16,r16,r19
   84f30:	24c7883a 	add	r3,r4,r19
   84f34:	e0800115 	stw	r2,4(fp)
   84f38:	e0c00015 	stw	r3,0(fp)
   84f3c:	003cc406 	br	84250 <__svfscanf_r+0x7d8>
   84f40:	d9009c17 	ldw	r4,624(sp)
   84f44:	dc009d17 	ldw	r16,628(sp)
   84f48:	20800017 	ldw	r2,0(r4)
   84f4c:	21000104 	addi	r4,r4,4
   84f50:	d9009c15 	stw	r4,624(sp)
   84f54:	15000015 	stw	r20,0(r2)
   84f58:	800d883a 	mov	r6,r16
   84f5c:	003aff06 	br	83b5c <__svfscanf_r+0xe4>
   84f60:	b0c0004c 	andi	r3,r22,1
   84f64:	1800121e 	bne	r3,zero,84fb0 <__svfscanf_r+0x1538>
   84f68:	b580008c 	andi	r22,r22,2
   84f6c:	b0001026 	beq	r22,zero,84fb0 <__svfscanf_r+0x1538>
   84f70:	da00a017 	ldw	r8,640(sp)
   84f74:	00800274 	movhi	r2,9
   84f78:	10b13c04 	addi	r2,r2,-15120
   84f7c:	8809883a 	mov	r4,r17
   84f80:	d9400104 	addi	r5,sp,4
   84f84:	000d883a 	mov	r6,zero
   84f88:	d9c09f17 	ldw	r7,636(sp)
   84f8c:	40803626 	beq	r8,r2,85068 <__svfscanf_r+0x15f0>
   84f90:	008c1c00 	call	8c1c0 <_strtoll_r>
   84f94:	d9409c17 	ldw	r5,624(sp)
   84f98:	29000017 	ldw	r4,0(r5)
   84f9c:	29400104 	addi	r5,r5,4
   84fa0:	d9409c15 	stw	r5,624(sp)
   84fa4:	20800015 	stw	r2,0(r4)
   84fa8:	20c00115 	stw	r3,4(r4)
   84fac:	003f4606 	br	84cc8 <__svfscanf_r+0x1250>
   84fb0:	da009c17 	ldw	r8,624(sp)
   84fb4:	40c00017 	ldw	r3,0(r8)
   84fb8:	42000104 	addi	r8,r8,4
   84fbc:	da009c15 	stw	r8,624(sp)
   84fc0:	18800015 	stw	r2,0(r3)
   84fc4:	003f4006 	br	84cc8 <__svfscanf_r+0x1250>
   84fc8:	0021883a 	mov	r16,zero
   84fcc:	003f0c06 	br	84c00 <__svfscanf_r+0x1188>
   84fd0:	da009c17 	ldw	r8,624(sp)
   84fd4:	dc009d17 	ldw	r16,628(sp)
   84fd8:	40800017 	ldw	r2,0(r8)
   84fdc:	42000104 	addi	r8,r8,4
   84fe0:	da009c15 	stw	r8,624(sp)
   84fe4:	15000015 	stw	r20,0(r2)
   84fe8:	800d883a 	mov	r6,r16
   84fec:	003adb06 	br	83b5c <__svfscanf_r+0xe4>
   84ff0:	d8809c17 	ldw	r2,624(sp)
   84ff4:	a809883a 	mov	r4,r21
   84ff8:	180b883a 	mov	r5,r3
   84ffc:	14000104 	addi	r16,r2,4
   85000:	14800017 	ldw	r18,0(r2)
   85004:	008a5a00 	call	8a5a0 <__isnand>
   85008:	1000121e 	bne	r2,zero,85054 <__svfscanf_r+0x15dc>
   8500c:	a809883a 	mov	r4,r21
   85010:	980b883a 	mov	r5,r19
   85014:	008f8d40 	call	8f8d4 <__truncdfsf2>
   85018:	90800015 	stw	r2,0(r18)
   8501c:	dc009c15 	stw	r16,624(sp)
   85020:	003c6306 	br	841b0 <__svfscanf_r+0x738>
   85024:	d9000104 	addi	r4,sp,4
   85028:	e021883a 	mov	r16,fp
   8502c:	24bacf2e 	bgeu	r4,r18,83b6c <__svfscanf_r+0xf4>
   85030:	94bfffc4 	addi	r18,r18,-1
   85034:	dcc000c4 	addi	r19,sp,3
   85038:	91400007 	ldb	r5,0(r18)
   8503c:	8809883a 	mov	r4,r17
   85040:	94bfffc4 	addi	r18,r18,-1
   85044:	800d883a 	mov	r6,r16
   85048:	008cc1c0 	call	8cc1c <_ungetc_r>
   8504c:	94fffa1e 	bne	r18,r19,85038 <__svfscanf_r+0x15c0>
   85050:	003ac606 	br	83b6c <__svfscanf_r+0xf4>
   85054:	0009883a 	mov	r4,zero
   85058:	008a6f40 	call	8a6f4 <nanf>
   8505c:	90800015 	stw	r2,0(r18)
   85060:	dc009c15 	stw	r16,624(sp)
   85064:	003c5206 	br	841b0 <__svfscanf_r+0x738>
   85068:	008c7980 	call	8c798 <_strtoull_r>
   8506c:	003fc906 	br	84f94 <__svfscanf_r+0x151c>
   85070:	d8c00104 	addi	r3,sp,4
   85074:	e021883a 	mov	r16,fp
   85078:	1cbabc2e 	bgeu	r3,r18,83b6c <__svfscanf_r+0xf4>
   8507c:	94bfffc4 	addi	r18,r18,-1
   85080:	dcc000c4 	addi	r19,sp,3
   85084:	91400007 	ldb	r5,0(r18)
   85088:	8809883a 	mov	r4,r17
   8508c:	94bfffc4 	addi	r18,r18,-1
   85090:	800d883a 	mov	r6,r16
   85094:	008cc1c0 	call	8cc1c <_ungetc_r>
   85098:	94fffa1e 	bne	r18,r19,85084 <__svfscanf_r+0x160c>
   8509c:	003ab306 	br	83b6c <__svfscanf_r+0xf4>
   850a0:	d8800104 	addi	r2,sp,4
   850a4:	e021883a 	mov	r16,fp
   850a8:	14bab02e 	bgeu	r2,r18,83b6c <__svfscanf_r+0xf4>
   850ac:	94bfffc4 	addi	r18,r18,-1
   850b0:	dcc000c4 	addi	r19,sp,3
   850b4:	91400007 	ldb	r5,0(r18)
   850b8:	8809883a 	mov	r4,r17
   850bc:	94bfffc4 	addi	r18,r18,-1
   850c0:	800d883a 	mov	r6,r16
   850c4:	008cc1c0 	call	8cc1c <_ungetc_r>
   850c8:	94fffa1e 	bne	r18,r19,850b4 <__svfscanf_r+0x163c>
   850cc:	003aa706 	br	83b6c <__svfscanf_r+0xf4>

000850d0 <_vfscanf_r>:
   850d0:	defffb04 	addi	sp,sp,-20
   850d4:	dc000315 	stw	r16,12(sp)
   850d8:	dfc00415 	stw	ra,16(sp)
   850dc:	2021883a 	mov	r16,r4
   850e0:	20000926 	beq	r4,zero,85108 <_vfscanf_r+0x38>
   850e4:	20800e17 	ldw	r2,56(r4)
   850e8:	1000071e 	bne	r2,zero,85108 <_vfscanf_r+0x38>
   850ec:	d9400015 	stw	r5,0(sp)
   850f0:	d9800115 	stw	r6,4(sp)
   850f4:	d9c00215 	stw	r7,8(sp)
   850f8:	0086df00 	call	86df0 <__sinit>
   850fc:	d9c00217 	ldw	r7,8(sp)
   85100:	d9800117 	ldw	r6,4(sp)
   85104:	d9400017 	ldw	r5,0(sp)
   85108:	8009883a 	mov	r4,r16
   8510c:	dfc00417 	ldw	ra,16(sp)
   85110:	dc000317 	ldw	r16,12(sp)
   85114:	dec00504 	addi	sp,sp,20
   85118:	0083a781 	jmpi	83a78 <__svfscanf_r>

0008511c <__svfscanf>:
   8511c:	008002b4 	movhi	r2,10
   85120:	10b57404 	addi	r2,r2,-10800
   85124:	2007883a 	mov	r3,r4
   85128:	11000017 	ldw	r4,0(r2)
   8512c:	2805883a 	mov	r2,r5
   85130:	300f883a 	mov	r7,r6
   85134:	180b883a 	mov	r5,r3
   85138:	100d883a 	mov	r6,r2
   8513c:	0083a781 	jmpi	83a78 <__svfscanf_r>

00085140 <vfscanf>:
   85140:	defffb04 	addi	sp,sp,-20
   85144:	dc000115 	stw	r16,4(sp)
   85148:	040002b4 	movhi	r16,10
   8514c:	84357404 	addi	r16,r16,-10800
   85150:	80800017 	ldw	r2,0(r16)
   85154:	dc800315 	stw	r18,12(sp)
   85158:	dc400215 	stw	r17,8(sp)
   8515c:	dfc00415 	stw	ra,16(sp)
   85160:	2025883a 	mov	r18,r4
   85164:	2823883a 	mov	r17,r5
   85168:	300f883a 	mov	r7,r6
   8516c:	10000726 	beq	r2,zero,8518c <vfscanf+0x4c>
   85170:	10c00e17 	ldw	r3,56(r2)
   85174:	1800051e 	bne	r3,zero,8518c <vfscanf+0x4c>
   85178:	1009883a 	mov	r4,r2
   8517c:	d9800015 	stw	r6,0(sp)
   85180:	0086df00 	call	86df0 <__sinit>
   85184:	80800017 	ldw	r2,0(r16)
   85188:	d9c00017 	ldw	r7,0(sp)
   8518c:	1009883a 	mov	r4,r2
   85190:	900b883a 	mov	r5,r18
   85194:	880d883a 	mov	r6,r17
   85198:	dfc00417 	ldw	ra,16(sp)
   8519c:	dc800317 	ldw	r18,12(sp)
   851a0:	dc400217 	ldw	r17,8(sp)
   851a4:	dc000117 	ldw	r16,4(sp)
   851a8:	dec00504 	addi	sp,sp,20
   851ac:	0083a781 	jmpi	83a78 <__svfscanf_r>

000851b0 <__swsetup_r>:
   851b0:	008002b4 	movhi	r2,10
   851b4:	10b57404 	addi	r2,r2,-10800
   851b8:	10800017 	ldw	r2,0(r2)
   851bc:	defffd04 	addi	sp,sp,-12
   851c0:	dc400115 	stw	r17,4(sp)
   851c4:	dc000015 	stw	r16,0(sp)
   851c8:	dfc00215 	stw	ra,8(sp)
   851cc:	2023883a 	mov	r17,r4
   851d0:	2821883a 	mov	r16,r5
   851d4:	10000226 	beq	r2,zero,851e0 <__swsetup_r+0x30>
   851d8:	10c00e17 	ldw	r3,56(r2)
   851dc:	18003d26 	beq	r3,zero,852d4 <__swsetup_r+0x124>
   851e0:	8080030b 	ldhu	r2,12(r16)
   851e4:	10c0020c 	andi	r3,r2,8
   851e8:	18ffffcc 	andi	r3,r3,65535
   851ec:	18e0001c 	xori	r3,r3,32768
   851f0:	18e00004 	addi	r3,r3,-32768
   851f4:	18001226 	beq	r3,zero,85240 <__swsetup_r+0x90>
   851f8:	80c00417 	ldw	r3,16(r16)
   851fc:	18001f26 	beq	r3,zero,8527c <__swsetup_r+0xcc>
   85200:	1100004c 	andi	r4,r2,1
   85204:	2000261e 	bne	r4,zero,852a0 <__swsetup_r+0xf0>
   85208:	1080008c 	andi	r2,r2,2
   8520c:	10bfffcc 	andi	r2,r2,65535
   85210:	10a0001c 	xori	r2,r2,32768
   85214:	10a00004 	addi	r2,r2,-32768
   85218:	1000311e 	bne	r2,zero,852e0 <__swsetup_r+0x130>
   8521c:	80800517 	ldw	r2,20(r16)
   85220:	80800215 	stw	r2,8(r16)
   85224:	18002326 	beq	r3,zero,852b4 <__swsetup_r+0x104>
   85228:	0005883a 	mov	r2,zero
   8522c:	dfc00217 	ldw	ra,8(sp)
   85230:	dc400117 	ldw	r17,4(sp)
   85234:	dc000017 	ldw	r16,0(sp)
   85238:	dec00304 	addi	sp,sp,12
   8523c:	f800283a 	ret
   85240:	10c0040c 	andi	r3,r2,16
   85244:	18ffffcc 	andi	r3,r3,65535
   85248:	18e0001c 	xori	r3,r3,32768
   8524c:	18e00004 	addi	r3,r3,-32768
   85250:	18001e26 	beq	r3,zero,852cc <__swsetup_r+0x11c>
   85254:	10c0010c 	andi	r3,r2,4
   85258:	18ffffcc 	andi	r3,r3,65535
   8525c:	18e0001c 	xori	r3,r3,32768
   85260:	18e00004 	addi	r3,r3,-32768
   85264:	1800211e 	bne	r3,zero,852ec <__swsetup_r+0x13c>
   85268:	80c00417 	ldw	r3,16(r16)
   8526c:	11400214 	ori	r5,r2,8
   85270:	8140030d 	sth	r5,12(r16)
   85274:	2805883a 	mov	r2,r5
   85278:	183fe11e 	bne	r3,zero,85200 <__swsetup_r+0x50>
   8527c:	1140a00c 	andi	r5,r2,640
   85280:	01008004 	movi	r4,512
   85284:	293fde26 	beq	r5,r4,85200 <__swsetup_r+0x50>
   85288:	8809883a 	mov	r4,r17
   8528c:	800b883a 	mov	r5,r16
   85290:	0087e080 	call	87e08 <__smakebuf_r>
   85294:	8080030b 	ldhu	r2,12(r16)
   85298:	80c00417 	ldw	r3,16(r16)
   8529c:	003fd806 	br	85200 <__swsetup_r+0x50>
   852a0:	80800517 	ldw	r2,20(r16)
   852a4:	80000215 	stw	zero,8(r16)
   852a8:	0085c83a 	sub	r2,zero,r2
   852ac:	80800615 	stw	r2,24(r16)
   852b0:	183fdd1e 	bne	r3,zero,85228 <__swsetup_r+0x78>
   852b4:	8080030b 	ldhu	r2,12(r16)
   852b8:	1080200c 	andi	r2,r2,128
   852bc:	10bfffcc 	andi	r2,r2,65535
   852c0:	10a0001c 	xori	r2,r2,32768
   852c4:	10a00004 	addi	r2,r2,-32768
   852c8:	103fd826 	beq	r2,zero,8522c <__swsetup_r+0x7c>
   852cc:	00bfffc4 	movi	r2,-1
   852d0:	003fd606 	br	8522c <__swsetup_r+0x7c>
   852d4:	1009883a 	mov	r4,r2
   852d8:	0086df00 	call	86df0 <__sinit>
   852dc:	003fc006 	br	851e0 <__swsetup_r+0x30>
   852e0:	0005883a 	mov	r2,zero
   852e4:	80800215 	stw	r2,8(r16)
   852e8:	003fce06 	br	85224 <__swsetup_r+0x74>
   852ec:	81400c17 	ldw	r5,48(r16)
   852f0:	28000626 	beq	r5,zero,8530c <__swsetup_r+0x15c>
   852f4:	80c01004 	addi	r3,r16,64
   852f8:	28c00326 	beq	r5,r3,85308 <__swsetup_r+0x158>
   852fc:	8809883a 	mov	r4,r17
   85300:	00873e00 	call	873e0 <_free_r>
   85304:	8080030b 	ldhu	r2,12(r16)
   85308:	80000c15 	stw	zero,48(r16)
   8530c:	80c00417 	ldw	r3,16(r16)
   85310:	013ff6c4 	movi	r4,-37
   85314:	2084703a 	and	r2,r4,r2
   85318:	80000115 	stw	zero,4(r16)
   8531c:	80c00015 	stw	r3,0(r16)
   85320:	003fd206 	br	8526c <__swsetup_r+0xbc>

00085324 <quorem>:
   85324:	defff704 	addi	sp,sp,-36
   85328:	dc400115 	stw	r17,4(sp)
   8532c:	20800417 	ldw	r2,16(r4)
   85330:	2c400417 	ldw	r17,16(r5)
   85334:	dd800615 	stw	r22,24(sp)
   85338:	dd400515 	stw	r21,20(sp)
   8533c:	dfc00815 	stw	ra,32(sp)
   85340:	ddc00715 	stw	r23,28(sp)
