
Szyfrator_NET.elf:     file format elf32-littlenios2
Szyfrator_NET.elf
architecture: nios2, flags 0x00000112:
EXEC_P, HAS_SYMS, D_PAGED
start address 0x000001b8

Program Header:
    LOAD off    0x00001000 vaddr 0x00000000 paddr 0x00000000 align 2**12
         filesz 0x00000020 memsz 0x00000020 flags r-x
    LOAD off    0x00001020 vaddr 0x00000020 paddr 0x00000020 align 2**12
         filesz 0x0002cd04 memsz 0x0002cd04 flags r-x
    LOAD off    0x0002e970 vaddr 0x00205970 paddr 0x0002cd24 align 2**12
         filesz 0x00000c44 memsz 0x00000c44 flags rw-
    LOAD off    0x00030000 vaddr 0x00040000 paddr 0x0002d968 align 2**12
         filesz 0x00000080 memsz 0x00000080 flags rw-
    LOAD off    0x000305b4 vaddr 0x002065b4 paddr 0x0002d968 align 2**12
         filesz 0x00000000 memsz 0x00012b14 flags rw-
    LOAD off    0x00031000 vaddr 0x00041000 paddr 0x0002d9e8 align 2**12
         filesz 0x00000080 memsz 0x00000080 flags rw-
    LOAD off    0x00032000 vaddr 0x00042000 paddr 0x0002da68 align 2**12
         filesz 0x00000080 memsz 0x00000080 flags rw-
    LOAD off    0x00033000 vaddr 0x00043000 paddr 0x0002dae8 align 2**12
         filesz 0x00000080 memsz 0x00000080 flags rw-
    LOAD off    0x00034000 vaddr 0x00200000 paddr 0x00200000 align 2**12
         filesz 0x00005970 memsz 0x00005970 flags r--

Sections:
Idx Name          Size      VMA       LMA       File off  Algn
  0 .entry        00000020  00000000  00000000  00001000  2**5
                  CONTENTS, ALLOC, LOAD, READONLY, CODE
  1 .exceptions   00000198  00000020  00000020  00001020  2**2
                  CONTENTS, ALLOC, LOAD, READONLY, CODE
  2 .text         0002cb6c  000001b8  000001b8  000011b8  2**2
                  CONTENTS, ALLOC, LOAD, READONLY, CODE
  3 .rodata       00005970  00200000  00200000  00034000  2**2
                  CONTENTS, ALLOC, LOAD, READONLY, DATA
  4 .rwdata       00000c44  00205970  0002cd24  0002e970  2**2
                  CONTENTS, ALLOC, LOAD, DATA, SMALL_DATA
  5 .bss          00012b14  002065b4  0002d968  000305b4  2**2
                  ALLOC, SMALL_DATA
  6 .descriptor_memory_3desdecrypt 00000080  00040000  0002d968  00030000  2**0
                  CONTENTS, ALLOC, LOAD, DATA
  7 .descriptor_memory_3des 00000080  00041000  0002d9e8  00031000  2**0
                  CONTENTS, ALLOC, LOAD, DATA
  8 .descriptor_memory1 00000080  00042000  0002da68  00032000  2**0
                  CONTENTS, ALLOC, LOAD, DATA
  9 .descriptor_memory 00000080  00043000  0002dae8  00033000  2**0
                  CONTENTS, ALLOC, LOAD, DATA
 10 .comment      00000023  00000000  00000000  00039970  2**0
                  CONTENTS, READONLY
 11 .debug_aranges 00001890  00000000  00000000  00039998  2**3
                  CONTENTS, READONLY, DEBUGGING
 12 .debug_info   000471fd  00000000  00000000  0003b228  2**0
                  CONTENTS, READONLY, DEBUGGING
 13 .debug_abbrev 0000f87c  00000000  00000000  00082425  2**0
                  CONTENTS, READONLY, DEBUGGING
 14 .debug_line   00014413  00000000  00000000  00091ca1  2**0
                  CONTENTS, READONLY, DEBUGGING
 15 .debug_frame  00003cd4  00000000  00000000  000a60b4  2**2
                  CONTENTS, READONLY, DEBUGGING
 16 .debug_str    000076c2  00000000  00000000  000a9d88  2**0
                  CONTENTS, READONLY, DEBUGGING
 17 .debug_loc    0001abb1  00000000  00000000  000b144a  2**0
                  CONTENTS, READONLY, DEBUGGING
 18 .debug_alt_sim_info 00000050  00000000  00000000  000cbffc  2**2
                  CONTENTS, READONLY, DEBUGGING
 19 .debug_ranges 00000d88  00000000  00000000  000cc050  2**3
                  CONTENTS, READONLY, DEBUGGING
 20 .thread_model 00000003  00000000  00000000  000d4136  2**0
                  CONTENTS, READONLY
 21 .cpu          00000005  00000000  00000000  000d4139  2**0
                  CONTENTS, READONLY
 22 .qsys         00000001  00000000  00000000  000d413e  2**0
                  CONTENTS, READONLY
 23 .simulation_enabled 00000001  00000000  00000000  000d413f  2**0
                  CONTENTS, READONLY
 24 .sysid_hash   00000004  00000000  00000000  000d4140  2**0
                  CONTENTS, READONLY
 25 .sysid_base   00000004  00000000  00000000  000d4144  2**0
                  CONTENTS, READONLY
 26 .sysid_time   00000004  00000000  00000000  000d4148  2**0
                  CONTENTS, READONLY
 27 .stderr_dev   00000009  00000000  00000000  000d414c  2**0
                  CONTENTS, READONLY
 28 .stdin_dev    00000009  00000000  00000000  000d4155  2**0
                  CONTENTS, READONLY
 29 .stdout_dev   00000009  00000000  00000000  000d415e  2**0
                  CONTENTS, READONLY
 30 .sopc_system_name 00000005  00000000  00000000  000d4167  2**0
                  CONTENTS, READONLY
 31 .jdi          00006171  00000000  00000000  000d416c  2**0
                  CONTENTS, READONLY
 32 .sopcinfo     001103e5  00000000  00000000  000da2dd  2**0
                  CONTENTS, READONLY
SYMBOL TABLE:
00000000 l    d  .entry	00000000 .entry
00000020 l    d  .exceptions	00000000 .exceptions
000001b8 l    d  .text	00000000 .text
00200000 l    d  .rodata	00000000 .rodata
00205970 l    d  .rwdata	00000000 .rwdata
002065b4 l    d  .bss	00000000 .bss
00040000 l    d  .descriptor_memory_3desdecrypt	00000000 .descriptor_memory_3desdecrypt
00041000 l    d  .descriptor_memory_3des	00000000 .descriptor_memory_3des
00042000 l    d  .descriptor_memory1	00000000 .descriptor_memory1
00043000 l    d  .descriptor_memory	00000000 .descriptor_memory
00000000 l    d  .comment	00000000 .comment
00000000 l    d  .debug_aranges	00000000 .debug_aranges
00000000 l    d  .debug_info	00000000 .debug_info
00000000 l    d  .debug_abbrev	00000000 .debug_abbrev
00000000 l    d  .debug_line	00000000 .debug_line
00000000 l    d  .debug_frame	00000000 .debug_frame
00000000 l    d  .debug_str	00000000 .debug_str
00000000 l    d  .debug_loc	00000000 .debug_loc
00000000 l    d  .debug_alt_sim_info	00000000 .debug_alt_sim_info
00000000 l    d  .debug_ranges	00000000 .debug_ranges
00000000 l    df *ABS*	00000000 ../../Desktop/Repozytorium/SzyfratorCopy/Szyfrator_v2/software/Sztfrator_NET_BSP/obj/HAL/src/crt0.o
000001f0 l       .text	00000000 alt_after_alt_main
00000000 l    df *ABS*	00000000 alt_exception_entry.o
00000094 l       .exceptions	00000000 alt_exception_unknown
00000000 l    df *ABS*	00000000 alt_irq_handler.c
00000000 l    df *ABS*	00000000 Net_szyfr.c
002065b4 l     O .bss	00000004 ip_zero.4602
00000000 l    df *ABS*	00000000 alteraTseEthernetif.c
00002790 l     F .text	00000064 low_level_init
000027f4 l     F .text	00000208 low_level_input
00000000 l    df *ABS*	00000000 fs.c
00200d20 l     O .rodata	00000345 data_img_sics_gif
00201065 l     O .rodata	00000298 data_404_html
002012fd l     O .rodata	00000671 data_index_html
00000000 l    df *ABS*	00000000 fsdata.c
00000000 l    df *ABS*	00000000 httpd.c
00002cec l     F .text	00000040 conn_err
00002d2c l     F .text	00000060 close_conn
00002d8c l     F .text	000000f4 send_data
00002e80 l     F .text	000000cc http_poll
00002f4c l     F .text	00000070 http_sent
00002fbc l     F .text	0000024c http_recv
00003208 l     F .text	000000cc http_accept
00000000 l    df *ABS*	00000000 lwip_tse_mac.c
00000000 l    df *ABS*	00000000 api_lib.c
00000000 l    df *ABS*	00000000 api_msg.c
00000000 l    df *ABS*	00000000 err.c
00000000 l    df *ABS*	00000000 netbuf.c
00000000 l    df *ABS*	00000000 netdb.c
00000000 l    df *ABS*	00000000 netifapi.c
00000000 l    df *ABS*	00000000 sockets.c
00000000 l    df *ABS*	00000000 tcpip.c
00000000 l    df *ABS*	00000000 dhcp.c
00000000 l    df *ABS*	00000000 dns.c
00000000 l    df *ABS*	00000000 init.c
00000000 l    df *ABS*	00000000 autoip.c
00000000 l    df *ABS*	00000000 icmp.c
000046cc l     F .text	00000170 icmp_send_response
00000000 l    df *ABS*	00000000 igmp.c
00000000 l    df *ABS*	00000000 inet.c
00209b08 l     O .bss	00000010 str.2832
00000000 l    df *ABS*	00000000 inet_chksum.c
00004dd8 l     F .text	0000012c lwip_standard_chksum
00000000 l    df *ABS*	00000000 ip.c
0020665c l     O .bss	00000002 ip_id.3599
00000000 l    df *ABS*	00000000 ip_addr.c
00000000 l    df *ABS*	00000000 ip_frag.c
00206668 l     O .bss	00000004 reassdatagrams
0020666c l     O .bss	00000002 ip_reass_pbufcount
00005f80 l     F .text	000001ec ip_reass_free_complete_datagram
0000639c l     F .text	00000090 ip_reass_dequeue_datagram
0000616c l     F .text	00000154 ip_reass_remove_oldest_datagram
000062c0 l     F .text	000000dc ip_reass_enqueue_new_datagram
0000642c l     F .text	00000580 ip_reass_chain_frag_into_datagram_and_validate
00209b18 l     O .bss	000005e0 buf
00000000 l    df *ABS*	00000000 mem.c
0020a0f8 l     O .bss	00000654 ram_heap
00206670 l     O .bss	00000004 ram
00206674 l     O .bss	00000004 ram_end
00206678 l     O .bss	00000004 lfree
0020667c l     O .bss	00000001 mem_sem
000071d0 l     F .text	000001f8 plug_holes
00000000 l    df *ABS*	00000000 memp.c
0020a74c l     O .bss	00000024 memp_tab
00202220 l     O .rodata	00000012 memp_sizes
00202232 l     O .rodata	00000012 memp_num
0020a770 l     O .bss	0000cbab memp_memory
00000000 l    df *ABS*	00000000 netif.c
00206680 l     O .bss	00000001 netifnum.3490
00000000 l    df *ABS*	00000000 pbuf.c
00000000 l    df *ABS*	00000000 raw.c
0020668c l     O .bss	00000004 raw_pcbs
00000000 l    df *ABS*	00000000 asn1_dec.c
00000000 l    df *ABS*	00000000 asn1_enc.c
00000000 l    df *ABS*	00000000 mib2.c
00000000 l    df *ABS*	00000000 mib_structs.c
00000000 l    df *ABS*	00000000 msg_in.c
00000000 l    df *ABS*	00000000 msg_out.c
00000000 l    df *ABS*	00000000 stats.c
00000000 l    df *ABS*	00000000 sys.c
00000000 l    df *ABS*	00000000 tcp.c
00206690 l     O .bss	00000001 tcp_timer
0000abe4 l     F .text	00000108 tcp_new_port
0000a820 l     F .text	00000030 tcp_accept_null
00206560 l     O .rwdata	00000002 port.3585
0000ba50 l     F .text	000000d8 tcp_kill_prio
0000bb28 l     F .text	00000094 tcp_kill_timewait
0020655c l     O .rwdata	00000004 iss.3752
00000000 l    df *ABS*	00000000 tcp_in.c
0021731c l     O .bss	00000014 inseg
002066ac l     O .bss	00000004 tcphdr
002066b0 l     O .bss	00000004 iphdr
002066b4 l     O .bss	00000004 seqno
002066b8 l     O .bss	00000004 ackno
002066bc l     O .bss	00000001 flags
002066be l     O .bss	00000002 tcplen
002066c0 l     O .bss	00000001 recv_flags
002066c4 l     O .bss	00000004 recv_data
0000d230 l     F .text	00000138 tcp_timewait_input
0000cf90 l     F .text	000002a0 tcp_listen_input
0000d368 l     F .text	00000ba0 tcp_process
0000fd50 l     F .text	000001f8 tcp_parseopt
0000e124 l     F .text	00001c2c tcp_receive
0000df08 l     F .text	0000021c tcp_oos_insert_segment
00000000 l    df *ABS*	00000000 tcp_out.c
0000ff48 l     F .text	00000288 tcp_output_set_header
00011a00 l     F .text	00000390 tcp_output_segment
00000000 l    df *ABS*	00000000 udp.c
00000000 l    df *ABS*	00000000 etharp.c
00217330 l     O .bss	00000118 arp_table
002066d4 l     O .bss	00000001 etharp_cached_entry
000144d4 l     F .text	000000e0 free_etharp_q
00014738 l     F .text	0000050c find_entry
00014c44 l     F .text	000000fc etharp_send_ip
00014d40 l     F .text	000001f8 update_arp_entry
00015b54 l     F .text	00000284 etharp_raw
00000000 l    df *ABS*	00000000 ethernetif.c
00000000 l    df *ABS*	00000000 loopif.c
00000000 l    df *ABS*	00000000 auth.c
00000000 l    df *ABS*	00000000 chap.c
00000000 l    df *ABS*	00000000 chpms.c
00000000 l    df *ABS*	00000000 fsm.c
00000000 l    df *ABS*	00000000 ipcp.c
00000000 l    df *ABS*	00000000 lcp.c
00000000 l    df *ABS*	00000000 magic.c
00000000 l    df *ABS*	00000000 md5.c
00000000 l    df *ABS*	00000000 pap.c
00000000 l    df *ABS*	00000000 ppp.c
00000000 l    df *ABS*	00000000 ppp_oe.c
00000000 l    df *ABS*	00000000 randm.c
00000000 l    df *ABS*	00000000 vj.c
00000000 l    df *ABS*	00000000 slipif.c
00000000 l    df *ABS*	00000000 lib2-divmod.c
00015fb8 l     F .text	00000074 udivmodsi4
00000000 l    df *ABS*	00000000 memcpy.c
00000000 l    df *ABS*	00000000 memset.c
00000000 l    df *ABS*	00000000 printf.c
00000000 l    df *ABS*	00000000 putchar.c
00000000 l    df *ABS*	00000000 puts.c
00000000 l    df *ABS*	00000000 scanf.c
00000000 l    df *ABS*	00000000 strcmp.c
00000000 l    df *ABS*	00000000 strlen.c
00000000 l    df *ABS*	00000000 strncmp.c
00000000 l    df *ABS*	00000000 vfprintf.c
00016678 l     F .text	00000034 __sprint_r
00203606 l     O .rodata	00000010 blanks.3515
00203616 l     O .rodata	00000010 zeroes.3516
00000000 l    df *ABS*	00000000 vfscanf.c
0020362e l     O .rodata	00000022 basefix.3427
00000000 l    df *ABS*	00000000 wsetup.c
00000000 l    df *ABS*	00000000 ctype_.c
00203751 l     O .rodata	00000180 _ctype_b
00000000 l    df *ABS*	00000000 dtoa.c
00019d74 l     F .text	00000208 quorem
00000000 l    df *ABS*	00000000 fflush.c
00000000 l    df *ABS*	00000000 findfp.c
0001b7b0 l     F .text	00000008 __fp_lock
0001b7b8 l     F .text	00000008 __fp_unlock
00000000 l    df *ABS*	00000000 fread.c
00000000 l    df *ABS*	00000000 mallocr.c
00000000 l    df *ABS*	00000000 fvwrite.c
00000000 l    df *ABS*	00000000 fwalk.c
00000000 l    df *ABS*	00000000 impure.c
0020599c l     O .rwdata	00000400 impure_data
00000000 l    df *ABS*	00000000 iswspace.c
00000000 l    df *ABS*	00000000 locale.c
002038f8 l     O .rodata	00000030 lconv
00000000 l    df *ABS*	00000000 makebuf.c
00000000 l    df *ABS*	00000000 mallocr.c
00000000 l    df *ABS*	00000000 mbrtowc.c
00000000 l    df *ABS*	00000000 mbtowc_r.c
00000000 l    df *ABS*	00000000 memchr.c
00000000 l    df *ABS*	00000000 memmove.c
00000000 l    df *ABS*	00000000 mprec.c
00203a40 l     O .rodata	0000000c p05.2435
00000000 l    df *ABS*	00000000 putc.c
00000000 l    df *ABS*	00000000 mallocr.c
00000000 l    df *ABS*	00000000 refill.c
0001ebdc l     F .text	0000001c lflush
00000000 l    df *ABS*	00000000 s_isinfd.c
00000000 l    df *ABS*	00000000 s_isnand.c
00000000 l    df *ABS*	00000000 sbrkr.c
00000000 l    df *ABS*	00000000 sccl.c
00000000 l    df *ABS*	00000000 sf_nan.c
00000000 l    df *ABS*	00000000 sprintf.c
00000000 l    df *ABS*	00000000 stdio.c
00000000 l    df *ABS*	00000000 strtod.c
002061b0 l     O .rwdata	00000014 fpi.2015
00203a5c l     O .rodata	00000028 tinytens
002061c4 l     O .rwdata	00000014 fpinan.2051
00000000 l    df *ABS*	00000000 strtol.c
00000000 l    df *ABS*	00000000 strtoll_r.c
00000000 l    df *ABS*	00000000 strtoul.c
00000000 l    df *ABS*	00000000 strtoull_r.c
00000000 l    df *ABS*	00000000 ungetc.c
00000000 l    df *ABS*	00000000 wbuf.c
00000000 l    df *ABS*	00000000 writer.c
00000000 l    df *ABS*	00000000 mallocr.c
00000000 l    df *ABS*	00000000 closer.c
00000000 l    df *ABS*	00000000 fclose.c
00000000 l    df *ABS*	00000000 fstatr.c
00000000 l    df *ABS*	00000000 gdtoa-gethex.c
00021a48 l     F .text	00000110 rshift
00000000 l    df *ABS*	00000000 gdtoa-hexnan.c
00000000 l    df *ABS*	00000000 int_errno.c
00000000 l    df *ABS*	00000000 isattyr.c
00000000 l    df *ABS*	00000000 lseekr.c
00000000 l    df *ABS*	00000000 readr.c
00000000 l    df *ABS*	00000000 libgcc2.c
00000000 l    df *ABS*	00000000 libgcc2.c
00000000 l    df *ABS*	00000000 libgcc2.c
00000000 l    df *ABS*	00000000 libgcc2.c
00000000 l    df *ABS*	00000000 fp-bit.c
00000000 l    df *ABS*	00000000 fp-bit.c
00000000 l    df *ABS*	00000000 fp-bit.c
00000000 l    df *ABS*	00000000 fp-bit.c
0002342c l     F .text	00000354 _fpadd_parts
00000000 l    df *ABS*	00000000 fp-bit.c
00000000 l    df *ABS*	00000000 fp-bit.c
00000000 l    df *ABS*	00000000 fp-bit.c
00000000 l    df *ABS*	00000000 fp-bit.c
00000000 l    df *ABS*	00000000 fp-bit.c
00000000 l    df *ABS*	00000000 fp-bit.c
00000000 l    df *ABS*	00000000 fp-bit.c
00000000 l    df *ABS*	00000000 fp-bit.c
00000000 l    df *ABS*	00000000 fp-bit.c
00000000 l    df *ABS*	00000000 fp-bit.c
00000000 l    df *ABS*	00000000 fp-bit.c
00000000 l    df *ABS*	00000000 fp-bit.c
00000000 l    df *ABS*	00000000 fp-bit.c
00000000 l    df *ABS*	00000000 libgcc2.c
00000000 l    df *ABS*	00000000 libgcc2.c
00000000 l    df *ABS*	00000000 fp-bit.c
00000000 l    df *ABS*	00000000 fp-bit.c
00000000 l    df *ABS*	00000000 fp-bit.c
00000000 l    df *ABS*	00000000 fp-bit.c
00000000 l    df *ABS*	00000000 fp-bit.c
00000000 l    df *ABS*	00000000 fp-bit.c
00000000 l    df *ABS*	00000000 libgcc2.c
00000000 l    df *ABS*	00000000 libgcc2.c
00000000 l    df *ABS*	00000000 fp-bit.c
00000000 l    df *ABS*	00000000 alt_close.c
00024a30 l     F .text	00000050 alt_get_errno
00000000 l    df *ABS*	00000000 alt_dev.c
00024b48 l     F .text	0000002c alt_dev_null_write
00000000 l    df *ABS*	00000000 alt_errno.c
00000000 l    df *ABS*	00000000 alt_fstat.c
00024b74 l     F .text	00000050 alt_get_errno
00000000 l    df *ABS*	00000000 alt_isatty.c
00024c70 l     F .text	00000050 alt_get_errno
00000000 l    df *ABS*	00000000 alt_load.c
00024d60 l     F .text	0000006c alt_load_section
00000000 l    df *ABS*	00000000 alt_lseek.c
00024e4c l     F .text	00000050 alt_get_errno
00000000 l    df *ABS*	00000000 alt_main.c
00000000 l    df *ABS*	00000000 alt_malloc_lock.c
00000000 l    df *ABS*	00000000 alt_printf.c
00000000 l    df *ABS*	00000000 alt_putchar.c
00000000 l    df *ABS*	00000000 alt_read.c
000252ac l     F .text	00000050 alt_get_errno
00000000 l    df *ABS*	00000000 alt_release_fd.c
00000000 l    df *ABS*	00000000 alt_remap_uncached.c
00000000 l    df *ABS*	00000000 alt_sbrk.c
002065a0 l     O .rwdata	00000004 heap_end
00000000 l    df *ABS*	00000000 alt_uncached_malloc.c
00000000 l    df *ABS*	00000000 alt_write.c
00025594 l     F .text	00000050 alt_get_errno
00000000 l    df *ABS*	00000000 alt_sys_init.c
000256d0 l     F .text	00000038 alt_dev_reg
00206380 l     O .rwdata	0000002c jtag_uart
002063ac l     O .rwdata	00000030 sgdma_3desdecrypt_in
002063dc l     O .rwdata	00000030 sgdma_3desdecrypt_out
0020640c l     O .rwdata	00000030 sgdma_3des_in
0020643c l     O .rwdata	00000030 sgdma_3des_out
0020646c l     O .rwdata	00000030 sgdma_rx
0020649c l     O .rwdata	00000030 sgdma_rx1
002064cc l     O .rwdata	00000030 sgdma_tx
002064fc l     O .rwdata	00000030 sgdma_tx1
00000000 l    df *ABS*	00000000 altera_avalon_jtag_uart_fd.c
00000000 l    df *ABS*	00000000 altera_avalon_jtag_uart_read.c
00000000 l    df *ABS*	00000000 altera_avalon_jtag_uart_write.c
00000000 l    df *ABS*	00000000 altera_avalon_sgdma.c
00025a74 l     F .text	00000050 alt_get_errno
00026618 l     F .text	000000b8 alt_avalon_sgdma_irq
00000000 l    df *ABS*	00000000 altera_avalon_tse.c
00206703 l     O .bss	00000001 tse_system_count.3776
00206702 l     O .bss	00000001 is_init.3858
00000000 l    df *ABS*	00000000 altera_avalon_tse_system_info.c
00000000 l    df *ABS*	00000000 perf_print_formatted_report.c
00000000 l    df *ABS*	00000000 alt_dcache_flush.c
00000000 l    df *ABS*	00000000 alt_dcache_flush_all.c
00000000 l    df *ABS*	00000000 alt_dev_llist_insert.c
0002b9d8 l     F .text	00000050 alt_get_errno
00000000 l    df *ABS*	00000000 alt_do_ctors.c
00000000 l    df *ABS*	00000000 alt_do_dtors.c
00000000 l    df *ABS*	00000000 alt_find_dev.c
00000000 l    df *ABS*	00000000 alt_icache_flush_all.c
00000000 l    df *ABS*	00000000 alt_iic.c
00000000 l    df *ABS*	00000000 alt_iic_isr_register.c
00000000 l    df *ABS*	00000000 alt_io_redirect.c
0002bf08 l     F .text	000000c0 alt_open_fd
00000000 l    df *ABS*	00000000 alt_irq_vars.c
00000000 l    df *ABS*	00000000 alt_open.c
0002c040 l     F .text	00000050 alt_get_errno
0002c090 l     F .text	000000cc alt_file_locked
00000000 l    df *ABS*	00000000 alt_usleep.c
00000000 l    df *ABS*	00000000 altera_nios2_qsys_irq.c
00000000 l    df *ABS*	00000000 altera_avalon_performance_counter.c
00000000 l    df *ABS*	00000000 alt_busy_sleep.c
00000000 l    df *ABS*	00000000 alt_find_file.c
00000000 l    df *ABS*	00000000 alt_get_fd.c
00000000 l    df *ABS*	00000000 alt_icache_flush.c
00000000 l    df *ABS*	00000000 atexit.c
00000000 l    df *ABS*	00000000 exit.c
00000000 l    df *ABS*	00000000 malloc.c
00000000 l    df *ABS*	00000000 memcmp.c
00000000 l    df *ABS*	00000000 strcpy.c
00000000 l    df *ABS*	00000000 __atexit.c
00000000 l    df *ABS*	00000000 __call_atexit.c
00000000 l    df *ABS*	00000000 libgcc2.c
00000000 l    df *ABS*	00000000 alt_exit.c
00000000 l    df *ABS*	00000000 
0001632c g     F .text	0000001c putchar
00005124 g     F .text	00000044 inet_chksum
002065b8 g     O .bss	00000002 src_ip4_addr3
00009dd8 g     F .text	00000054 raw_bind
0001e2c0 g     F .text	00000074 _mprec_log10
000069ac g     F .text	00000520 ip_reass
000279dc g     F .text	000000d8 alt_tse_get_mac_info
00008d38 g     F .text	000001f4 pbuf_realloc
0000240c g     F .text	00000020 tdes_cryptpot_isr
0001e3b0 g     F .text	00000084 __any_on
000225b4 g     F .text	00000064 _isatty_r
00203928 g     O .rodata	00000028 __mprec_tinytens
002176b0 g     O .bss	00000400 dane_udp_deciph
00024f6c g     F .text	00000078 alt_main
0002c914 g     F .text	00000094 strcpy
0000c178 g     F .text	00000030 tcp_next_iss
000248c0 g     F .text	00000044 __ashldi3
00016348 g     F .text	00000084 _puts_r
00000760 g     F .text	00000304 rx_ethernet_isr
00218e38 g     O .bss	00000100 alt_irq
0000aa14 g     F .text	000000ec tcp_update_rcv_ann_wnd
00206708 g     O .bss	00000400 rx_frame1
00022618 g     F .text	0000006c _lseek_r
00206684 g     O .bss	00000004 netif_list
00201990 g     O .rodata	00000010 file_index_html
0002b5b4 g     F .text	000000f0 marvell_cfg_rgmii
0002cd24 g       *ABS*	00000000 __flash_rwdata_start
00001d6c g     F .text	00000084 przeprowadzenie_szyfrowania_sram
00023ccc g     F .text	0000005c __eqdf2
00011d90 g     F .text	000002a4 tcp_rst
00028bc4 g     F .text	00000210 alt_tse_phy_print_profile
000143a8 g     F .text	0000012c porownanie_adresow
002190c8 g       *ABS*	00000000 __alt_heap_start
0002b354 g     F .text	00000098 marvell_phy_cfg
00001a84 g     F .text	000000f4 paczka_deszyfrowanie
00015dd8 g     F .text	00000074 etharp_request
000162e8 g     F .text	0000003c printf
00025be8 g     F .text	00000110 alt_avalon_sgdma_do_sync_transfer
0000be58 g     F .text	00000030 tcp_err
0020654c g     O .rwdata	00000004 ip_addr_any
00004f04 g     F .text	00000220 inet_chksum_pseudo
00200000 g       *ABS*	00000000 __alt_mem_sram
0001f118 g     F .text	0000005c __sseek
0001b840 g     F .text	0000010c __sinit
00013d48 g     F .text	00000088 udp_remove
000101d0 g     F .text	00000054 tcp_send_ctrl
0002c458 g     F .text	00000024 alt_get_cpu_freq
000215ac g     F .text	0000013c __swbuf_r
002065bc g     O .bss	00000004 p
000058a4 g     F .text	0000049c ip_output_if
0001c77c g     F .text	0000009c _setlocale_r
00000bf0 g     F .text	0000008c init_3desdecrypt
0001b7cc g     F .text	00000064 __sfmoreglue
00021590 g     F .text	0000001c ungetc
00008110 g     F .text	000000f8 memp_free
00025004 g     F .text	00000020 __malloc_unlock
00009120 g     F .text	0000016c pbuf_free
0000bdf8 g     F .text	00000030 tcp_recv
0001f17c g     F .text	00001458 _strtod_r
00027c20 g     F .text	00000a74 getPHYSpeed
00009318 g     F .text	00000140 pbuf_cat
00041040 g     O .descriptor_memory_3des	00000020 tdesout_descriptor
000262d4 g     F .text	00000344 alt_avalon_sgdma_construct_descriptor_burst
0001d364 g     F .text	00000128 memmove
00005d40 g     F .text	000000b4 ip_output
00206f08 g     O .bss	00000400 blok_wynikow
0002b71c g     F .text	0000027c perf_print_formatted_report
0001368c g     F .text	000000ac udp_sendto
0001b830 g     F .text	00000010 _cleanup
00002348 g     F .text	000000c4 deciph_3des_pot
00040020 g     O .descriptor_memory_3desdecrypt	00000020 tdesdecryptin_descriptor_end
00042060 g     O .descriptor_memory1	00000020 rx_descriptor_end1
0001d48c g     F .text	000000a8 _Balloc
000123e0 g     F .text	00000184 tcp_keepalive
00001b78 g     F .text	000001f4 przygotowanie_danych
000145b4 g     F .text	00000184 etharp_tmr
0002a5c8 g     F .text	000001bc alt_tse_phy_set_adv_1000
002065ac g     O .rwdata	00000001 max_mac_system
0000bbbc g     F .text	000001e0 tcp_alloc
00026c94 g     F .text	000009fc alt_tse_system_add_sys
00023d84 g     F .text	00000064 __gtdf2
00000000  w      *UND*	00000000 __errno
00013738 g     F .text	000002ec udp_sendto_if
00000c7c g     F .text	00000064 ciph_3des
00000000 g     F .entry	0000001c __reset
00206544 g     O .rwdata	00000004 key31
0000bdc8 g     F .text	00000030 tcp_arg
000150c4 g     F .text	000003f4 etharp_arp_input
00206694 g     O .bss	00000004 tcp_active_pcbs
00025e44 g     F .text	00000074 alt_avalon_sgdma_construct_stream_to_mem_desc_burst
00000020 g       *ABS*	00000000 __flash_exceptions_start
002065c0 g     O .bss	00000004 p2
000219e0 g     F .text	00000068 _fstat_r
002066cc g     O .bss	00000004 udp_pcbs
00217470 g     O .bss	00000240 tse_mac_device
002065c4 g     O .bss	00000004 p7
002066f0 g     O .bss	00000004 errno
00015e4c g     F .text	0000016c ethernet_input
00019b6c g     F .text	00000024 __svfscanf
0002ae9c g     F .text	000004b8 alt_tse_phy_set_common_speed
000092d8 g     F .text	00000040 pbuf_ref
0020653c g     O .rwdata	00000004 key21
00218df8 g     O .bss	00000020 pmac_groups
00024458 g     F .text	0000002c __make_fp
00008680 g     F .text	00000050 netif_set_netmask
002066f8 g     O .bss	00000004 alt_argv
0020e52c g       *ABS*	00000000 _gp
0000b9d4 g     F .text	0000007c tcp_recv_null
0002c2b0 g     F .text	00000030 usleep
00206660 g     O .bss	00000004 current_netif
0000a1c0 g     F .text	000001f0 tcp_close
0000ab00 g     F .text	000000e4 tcp_recved
002065c8 g     O .bss	00000002 deciph_ip4_addr4
0002553c g     F .text	00000058 alt_uncached_malloc
0000befc g     F .text	000000d4 tcp_pcb_purge
000267a0 g     F .text	00000060 tse_mac_initTransInfo2
00001990 g     F .text	000000f4 paczka_szyfrowanie
00206200 g     O .rwdata	00000180 alt_fd_list
002066d0 g     O .bss	00000004 udp_pcb_tmp
0020652c g     O .rwdata	00000004 triple
00013e1c g     F .text	00000184 cipher_UDP
002065cc g     O .bss	00000004 sgdma_out_decrypt_dev
00040040 g     O .descriptor_memory_3desdecrypt	00000020 tdesdecryptout_descriptor
00206554 g     O .rwdata	00000007 tcp_persist_backoff
002065d0 g     O .bss	00000002 dest_ip4_addr2
00016324 g     F .text	00000008 _putchar_r
0002bb80 g     F .text	00000090 alt_find_dev
000160e8 g     F .text	000000f8 memcpy
00007470 g     F .text	00000180 mem_free
00026a0c g     F .text	00000054 tse_mac_setMIImode
00022328 g     F .text	0000028c __hexnan
00206698 g     O .bss	00000004 tcp_ticks
0020669c g     O .bss	00000004 tcp_listen_pcbs
00028694 g     F .text	00000048 alt_tse_phy_rd_mdio_addr
00012034 g     F .text	000000b4 tcp_rexmit_rto
0001b7c0 g     F .text	0000000c _cleanup_r
00023f04 g     F .text	000000d4 __floatsidf
002065d2 g     O .bss	00000002 src_ip4_addr1
00005df4 g     F .text	000000f0 ip_addr_isbroadcast
00026800 g     F .text	000000e0 tse_mac_sTxWrite
0002bfc8 g     F .text	00000078 alt_io_redirect
002065d4 g     O .bss	00000002 total_ip_len
0000bd9c g     F .text	0000002c tcp_new
00023e4c g     F .text	0000005c __ltdf2
00013ca0 g     F .text	00000068 udp_disconnect
00009888 g     F .text	0000019c pbuf_copy_partial
002065d6 g     O .bss	00000002 ciph_ip4_addr1
0002cd24 g       *ABS*	00000000 __DTOR_END__
000163cc g     F .text	00000014 puts
00000dec g     F .text	000004a4 weryfikacja_szyfrowania
002065d8 g     O .bss	00000002 src_ip4_port
0001d1e8 g     F .text	00000040 mbrtowc
00002278 g     F .text	000000d0 ciph_3des_pot
00019b20 g     F .text	0000004c _vfscanf_r
0001e21c g     F .text	000000a4 __ratio
00205970 g     O .rwdata	0000002c tcp_state_str
0000a038 g     F .text	00000044 raw_send
00005168 g     F .text	0000010c inet_chksum_pbuf
00009a24 g     F .text	000001b8 pbuf_take
00025f34 g     F .text	00000088 alt_avalon_sgdma_construct_mem_to_stream_desc_burst
00041000 g     O .descriptor_memory_3des	00000020 tdesin_descriptor
000258e8 g     F .text	000000f4 altera_avalon_jtag_uart_read
0002c870 g     F .text	00000014 malloc
000162bc g     F .text	0000002c _printf_r
000160d8 g     F .text	00000008 __udivsi3
00218ae0 g     O .bss	00000100 tse
00024cc0 g     F .text	000000a0 isatty
00027690 g     F .text	00000164 alt_tse_sys_enable_mdio_sharing
00004038 g     F .text	0000060c icmp_input
0001c744 g     F .text	00000038 iswspace
00203978 g     O .rodata	000000c8 __mprec_tens
00001f2c g     F .text	00000130 wprowadzenie_kluczy
0002795c g     F .text	00000080 alt_tse_get_mac_info_index
00008208 g     F .text	000000dc netif_add
0001c818 g     F .text	0000000c __locale_charset
00022750 g     F .text	00000084 __fixunsdfsi
0000b870 g     F .text	00000064 tcp_segs_free
00207b08 g     O .bss	00001000 dane
0002c798 g     F .text	0000008c alt_icache_flush
002066ec g     O .bss	00000004 __malloc_top_pad
00042020 g     O .descriptor_memory1	00000020 tx_descriptor_end1
0002c3f8 g     F .text	0000003c perf_get_num_starts
00002c58 g     F .text	00000094 fs_open
00020f4c g     F .text	00000024 strtoul
0020657c g     O .rwdata	00000004 __mb_cur_max
0001c824 g     F .text	0000000c _localeconv_r
00020f70 g     F .text	00000394 _strtoull_r
000084d8 g     F .text	00000158 netif_set_ipaddr
0001d88c g     F .text	0000003c __i2b
0001c100 g     F .text	000004e4 __sfvwrite_r
00026060 g     F .text	00000058 alt_avalon_sgdma_stop
00028734 g     F .text	0000012c alt_tse_phy_wr_mdio_reg
0001ee48 g     F .text	00000064 _sbrk_r
00028dd4 g     F .text	0000069c alt_tse_mac_group_init
00010224 g     F .text	000000b8 tcp_write
00003340 g     F .text	000008e8 tse_mac_init
002065da g     O .bss	00000002 dest_ip4_addr1
0000218c g     F .text	000000ec init_3des_decrypt_pot
00014f38 g     F .text	000000bc etharp_find_addr
00022684 g     F .text	0000006c _read_r
0002b998 g     F .text	00000024 alt_dcache_flush
00205d9c g     O .rwdata	0000000c __lc_ctype
00206598 g     O .rwdata	00000004 alt_max_fd
000246a8 g     F .text	00000104 __unpack_d
00021890 g     F .text	0000013c _fclose_r
0000a544 g     F .text	000002dc tcp_bind
0001b780 g     F .text	00000030 fflush
002066e8 g     O .bss	00000004 __malloc_max_sbrked_mem
00004688 g     F .text	00000044 icmp_time_exceeded
00000000 g       *ABS*	00000000 __alt_mem_main_memory
00006ecc g     F .text	00000304 ip_frag
00023780 g     F .text	00000054 __adddf3
00201970 g     O .rodata	00000010 file_img_sics_gif
0001df90 g     F .text	00000148 __b2d
00022d9c g     F .text	0000058c __umoddi3
00024e9c g     F .text	000000d0 lseek
00009ec0 g     F .text	00000178 raw_sendto
002065dc g     O .bss	00000004 p5
0002892c g     F .text	00000298 alt_tse_phy_add_profile_default
0002a030 g     F .text	00000598 alt_tse_phy_get_cap
00040060 g     O .descriptor_memory_3desdecrypt	00000020 tdesdecryptout_descriptor_end
002065e0 g     O .bss	00000002 ciph_ip4_addr3
00206574 g     O .rwdata	00000004 _global_impure_ptr
0000276c g     F .text	00000024 inicjalizacja_netif
0001e5e0 g     F .text	000005fc _realloc_r
002190c8 g       *ABS*	00000000 __bss_end
0002be18 g     F .text	000000f0 alt_iic_isr_register
00025ac4 g     F .text	00000124 alt_avalon_sgdma_do_async_transfer
002065e2 g     O .bss	00000002 deciph_ip4_port
00043060 g     O .descriptor_memory	00000020 rx_descriptor_end
00218cf8 g     O .bss	00000100 __hexdig
000227d4 g     F .text	000005c8 __udivdi3
00029ed0 g     F .text	00000160 alt_tse_phy_check_link
00203950 g     O .rodata	00000028 __mprec_bigtens
0001d670 g     F .text	00000104 __s2b
0002410c g     F .text	0000011c __floatunsidf
0002b4d0 g     F .text	000000e4 marvell_cfg_sgmii
000095c4 g     F .text	000002c4 pbuf_copy
00029d0c g     F .text	000001c4 alt_tse_phy_restart_an
0001dd30 g     F .text	00000058 __mcmp
000120e8 g     F .text	000001d4 tcp_rexmit
00206570 g     O .rwdata	00000004 __ctype_ptr
0001ba58 g     F .text	00000018 __fp_lock_all
0002bdcc g     F .text	0000004c alt_ic_irq_enabled
00218e18 g     O .bss	00000020 pphy_profiles
000086f8 g     F .text	0000007c netif_set_up
00020974 g     F .text	00000024 strtol
00043000 g       *ABS*	00000000 __alt_mem_descriptor_memory
00206704 g     O .bss	00000004 alt_irq_active
00217ab0 g     O .bss	00000400 tx_frame
000000ec g     F .exceptions	000000cc alt_irq_handler
00000a64 g     F .text	00000100 rx_ethernet_isr1
002061d8 g     O .rwdata	00000028 alt_dev_null
002066a0 g     O .bss	00000004 tcp_tmp_pcb
00029bf4 g     F .text	00000118 alt_tse_phy_init
000242d4 g     F .text	000000c8 __unpack_f
000260b8 g     F .text	00000064 alt_avalon_sgdma_check_descriptor_status
0002b9bc g     F .text	0000001c alt_dcache_flush_all
0001d774 g     F .text	00000068 __hi0bits
00206548 g     O .rwdata	00000004 key32
00023fd8 g     F .text	000000d4 __fixdfsi
00003d28 g     F .text	00000170 tse_mac_raw_send
000073c8 g     F .text	000000a8 mem_init
00043040 g     O .descriptor_memory	00000020 rx_descriptor
00041060 g     O .descriptor_memory_3des	00000020 tdesout_descriptor_end
000205d4 g     F .text	0000001c strtod
002065e4 g     O .bss	00000004 p1
002065b4 g       *ABS*	00000000 __ram_rwdata_end
0001116c g     F .text	00000894 tcp_output
00206590 g     O .rwdata	00000008 alt_dev_list
000255e4 g     F .text	000000ec write
000261f4 g     F .text	00000080 alt_avalon_sgdma_enable_desc_poll
0001e434 g     F .text	000000bc _putc_r
0002337c g     F .text	0000005c __gtsf2
00205970 g       *ABS*	00000000 __ram_rodata_end
00024bc4 g     F .text	000000ac fstat
0002487c g     F .text	00000044 __lshrdi3
002066c8 g     O .bss	00000004 tcp_input_pcb
00206534 g     O .rwdata	00000004 key11
00207708 g     O .bss	00000400 blok_wynikow_deszyfracja
00009c94 g     F .text	00000144 raw_input
00023ea8 g     F .text	0000005c __ledf2
0002b6a4 g     F .text	00000078 DP83848C_link_status_read
00011010 g     F .text	0000015c tcp_send_empty_ack
000122bc g     F .text	00000124 tcp_rexmit_fast
0001daa8 g     F .text	0000012c __pow5mult
002066e0 g     O .bss	00000004 __nlocale_changed
000160e0 g     F .text	00000008 __umodsi3
0000483c g     F .text	00000044 inet_addr
00042000 g       *ABS*	00000000 __alt_mem_descriptor_memory1
00016420 g     F .text	0000002c _scanf_r
000086d0 g     F .text	00000028 netif_set_default
00013d08 g     F .text	00000040 udp_recv
00025eb8 g     F .text	0000007c alt_avalon_sgdma_construct_mem_to_stream_desc
00025fbc g     F .text	00000050 alt_avalon_sgdma_register_callback
002190c8 g       *ABS*	00000000 end
00206530 g     O .rwdata	00000004 triple1
00024904 g     F .text	0000012c __pack_f
002065e8 g     O .bss	00000004 pklen
002065ec g     O .bss	00000004 p8
000032d4 g     F .text	0000006c httpd_init
00000d98 g     F .text	00000054 deciph_3des_read
00008774 g     F .text	00000050 netif_set_down
000087f8 g     F .text	00000540 pbuf_alloc
00026ab0 g     F .text	000001e4 alt_tse_phy_add_profile
0002cd24 g       *ABS*	00000000 __CTOR_LIST__
00400000 g       *ABS*	00000000 __alt_stack_pointer
00026274 g     F .text	00000060 alt_avalon_sgdma_disable_desc_poll
00024228 g     F .text	000000ac __clzsi2
000259dc g     F .text	00000098 altera_avalon_jtag_uart_write
00025cf8 g     F .text	00000070 alt_avalon_sgdma_construct_mem_to_mem_desc
002065f0 g     O .bss	00000004 p6
002065f4 g     O .bss	00000004 result1
0001ba48 g     F .text	00000004 __sfp_lock_acquire
0001d26c g     F .text	000000f8 memchr
00206550 g     O .rwdata	00000004 ip_addr_broadcast
000166ac g     F .text	00001df8 ___vfprintf_internal_r
002065f8 g     O .bss	00000004 result2
0001ef78 g     F .text	00000058 _sprintf_r
00005ee4 g     F .text	0000009c ip_reass_tmr
00025de8 g     F .text	0000005c alt_avalon_sgdma_construct_stream_to_mem_desc
00201980 g     O .rodata	00000010 file_404_html
002065fc g     O .bss	00000002 ciph_ip4_port
0001be30 g     F .text	000002d0 _free_r
00025024 g     F .text	00000244 alt_printf
00042000 g     O .descriptor_memory1	00000020 tx_descriptor1
00013b8c g     F .text	00000114 udp_connect
0002cad8 g     F .text	000001a0 __call_exitprocs
00206664 g     O .bss	00000004 current_header
00003c88 g     F .text	000000a0 tse_sgdmaRx_isr
002065fe g     O .bss	00000002 udplen
002066dc g     O .bss	00000004 __mlocale_changed
00003e98 g     F .text	00000174 tse_mac_rcv
000082e4 g     F .text	00000058 netif_set_addr
00206580 g     O .rwdata	00000004 __malloc_sbrk_base
000001b8 g     F .text	0000003c _start
00020998 g     F .text	00000330 _strtoll_r
00206600 g     O .bss	00000002 deciph_ip4_addr1
00206604 g     O .bss	00000004 sgdma_tx_dev
0002611c g     F .text	00000050 alt_avalon_sgdma_open
00013fa0 g     F .text	00000258 decipher_UDP
0002cc78 g     F .text	00000070 __floatundidf
0000244c g     F .text	00000190 test_wydajnosci_3des_pot
00007f34 g     F .text	000001dc memp_malloc
0001dbd4 g     F .text	0000015c __lshift
00012564 g     F .text	00000238 tcp_zero_window_probe
00206608 g     O .bss	00000004 text_length
00028860 g     F .text	000000cc alt_tse_phy_rd_mdio_reg
000252fc g     F .text	000000f0 read
0002573c g     F .text	000000ec alt_sys_init
0020660c g     O .bss	00000002 dest_ip4_addr3
0002c9a8 g     F .text	00000130 __register_exitproc
000141f8 g     F .text	000001b0 wyslij_UDP
00206700 g     O .bss	00000001 phy_profile_count
0001657c g     F .text	000000fc strncmp
000278e8 g     F .text	00000074 alt_tse_get_mac_group_index
00206610 g     O .bss	00000004 ifdecipher_udp
0002544c g     F .text	00000040 alt_remap_uncached
00206614 g     O .bss	00000002 src_ip4_addr2
0001d8c8 g     F .text	000001e0 __multiply
00205970 g       *ABS*	00000000 __ram_rwdata_start
00200000 g       *ABS*	00000000 __ram_rodata_start
00217448 g     O .bss	00000028 __malloc_current_mallinfo
002066a4 g     O .bss	00000004 tcp_bound_pcbs
00023328 g     F .text	00000054 __eqsf2
0001e0d8 g     F .text	00000144 __d2b
0000b8d4 g     F .text	00000064 tcp_seg_free
00208b08 g     O .bss	00001000 wyniki
000286dc g     F .text	00000058 alt_tse_phy_wr_mdio_addr
00025828 g     F .text	00000060 altera_avalon_jtag_uart_read_fd
00020cc8 g     F .text	00000284 _strtoul_r
0002c6e4 g     F .text	000000b4 alt_get_fd
0002c47c g     F .text	00000154 alt_busy_sleep
000247ac g     F .text	000000d0 __fpcmp_parts_d
0000acec g     F .text	00000248 tcp_connect
0002182c g     F .text	00000064 _close_r
00007914 g     F .text	000003ec mem_malloc
00206618 g     O .bss	00000004 sgdma_out_dev
0002ab74 g     F .text	00000328 alt_tse_phy_get_common_speed
0002c300 g     F .text	000000ac perf_get_section_time
0002c898 g     F .text	0000007c memcmp
002190c8 g       *ABS*	00000000 __alt_stack_base
0000205c g     F .text	00000130 init_3des_pot
00206701 g     O .bss	00000001 mac_group_count
00217eb0 g     O .bss	00000030 TSE1netif
0020661c g     O .bss	00000002 ciph_ip4_addr2
00019c00 g     F .text	00000174 __swsetup_r
00003c28 g     F .text	00000060 tse_sgdma_read_init
00023b18 g     F .text	000001b4 __divdf3
0001b94c g     F .text	000000fc __sfp
0020661e g     O .bss	00000002 deciph_ip4_addr3
0000242c g     F .text	00000020 tdes_decryptpot_isr
0001e334 g     F .text	0000007c __copybits
0002c3ac g     F .text	0000004c perf_get_total_time
000102dc g     F .text	00000d34 tcp_enqueue
0000c1a8 g     F .text	00000084 tcp_eff_send_mss
00205da8 g     O .rwdata	00000408 __malloc_av_
0001ba54 g     F .text	00000004 __sinit_lock_release
00206620 g     O .bss	00000002 ip_header_len
00001df0 g     F .text	00000084 przeprowadzenie_deszyfrowania_sram
00023834 g     F .text	000002e4 __muldf3
0001f03c g     F .text	00000054 __sread
00040000 g       *ABS*	00000000 __alt_mem_descriptor_memory_3desdecrypt
0001bcb4 g     F .text	00000040 fread
00029470 g     F .text	0000041c alt_tse_mac_get_phy
0002c5d0 g     F .text	00000114 alt_find_file
0002ba28 g     F .text	000000a0 alt_dev_llist_insert
00024fe4 g     F .text	00000020 __malloc_lock
0002548c g     F .text	000000b0 sbrk
0002600c g     F .text	00000054 alt_avalon_sgdma_start
0001b598 g     F .text	000001e8 _fflush_r
00004880 g     F .text	000003f8 inet_aton
00027b94 g     F .text	0000008c alt_tse_mac_set_duplex
00021770 g     F .text	000000bc _calloc_r
00009e2c g     F .text	00000054 raw_connect
000025dc g     F .text	00000134 wyswietl_wyniki_sz_dsz
002065b4 g       *ABS*	00000000 __bss_start
000161e0 g     F .text	000000dc memset
000001f4 g     F .text	0000056c main
002066fc g     O .bss	00000004 alt_envp
002066e4 g     O .bss	00000004 __malloc_max_total_mem
00025888 g     F .text	00000060 altera_avalon_jtag_uart_write_fd
00206624 g     O .bss	00000004 ifcipher_udp
000216e8 g     F .text	0000001c __swbuf
000233d8 g     F .text	00000054 __ltsf2
0001ba88 g     F .text	0000022c _fread_r
00004644 g     F .text	00000044 icmp_dest_unreach
002065a4 g     O .rwdata	00000008 alt_sgdma_list
0000be28 g     F .text	00000030 tcp_sent
00001730 g     F .text	00000260 test_wydajnosc
000087c4 g     F .text	00000034 netif_is_up
0001f174 g     F .text	00000008 __sclose
00400000 g       *ABS*	00000000 __alt_heap_limit
000219cc g     F .text	00000014 fclose
00206628 g     O .bss	00000004 sgdma_tx_dev1
00020710 g     F .text	00000264 _strtol_r
000240ac g     F .text	00000060 __truncdfsf2
00004c78 g     F .text	00000160 inet_ntoa
00218f38 g     O .bss	00000190 _atexit0
00019f7c g     F .text	0000161c _dtoa_r
0001ca00 g     F .text	00000784 _malloc_r
0000a104 g     F .text	00000074 raw_new
00026984 g     F .text	00000088 tse_mac_SwReset
000029fc g     F .text	000000e4 ethernetif_input
0020659c g     O .rwdata	00000004 alt_errno
00043000 g     O .descriptor_memory	00000020 tx_descriptor
0020662c g     O .bss	00000004 sgdma_in_dev
00217ee0 g     O .bss	00000400 rx_frame
00021304 g     F .text	000000f0 __submore
0001c5e4 g     F .text	000000a8 _fwalk
0001d228 g     F .text	00000044 _mbtowc_r
0001e4f0 g     F .text	000000f0 putc
0001602c g     F .text	00000050 __divsi3
00027834 g     F .text	00000048 alt_tse_mac_set_common_speed
0000a07c g     F .text	00000088 raw_remove
00203aa0 g     O .rodata	00000014 __thenan_df
0001bcf4 g     F .text	0000013c _malloc_trim_r
0002cd24 g       *ABS*	00000000 __CTOR_END__
00013a24 g     F .text	00000168 udp_bind
0000a178 g     F .text	00000048 tcp_tmr
00015728 g     F .text	0000042c etharp_query
0001644c g     F .text	000000a4 strcmp
0000400c g     F .text	0000002c lwip_init
00200000 g       *ABS*	00000000 __flash_rodata_start
0002cd24 g       *ABS*	00000000 __DTOR_LIST__
000154b8 g     F .text	00000270 etharp_output
00023d28 g     F .text	0000005c __nedf2
00002710 g     F .text	0000005c definicja_szyfrowania_UDP
00025708 g     F .text	00000034 alt_irq_init
000277f4 g     F .text	00000040 alt_tse_mac_get_common_speed
000253ec g     F .text	00000060 alt_release_fd
0001efd0 g     F .text	0000006c sprintf
00206630 g     O .bss	00000004 p10
00008630 g     F .text	00000050 netif_set_gw
00203ab4 g     O .rodata	00000100 __clz_tab
0000928c g     F .text	0000004c pbuf_clen
002066d8 g     O .bss	00000004 _PathLocale
000205f0 g     F .text	00000120 strtof
0002c824 g     F .text	00000014 atexit
00021704 g     F .text	0000006c _write_r
0000b938 g     F .text	00000034 tcp_setprio
0001362c g     F .text	00000060 udp_send
0001c830 g     F .text	0000001c setlocale
00009bdc g     F .text	000000b8 pbuf_coalesce
00009e80 g     F .text	00000040 raw_recv
000163e0 g     F .text	00000040 scanf
00041000 g       *ABS*	00000000 __alt_mem_descriptor_memory_3des
0001ef70 g     F .text	00000008 nanf
0000833c g     F .text	000000bc netif_remove
00206578 g     O .rwdata	00000004 _impure_ptr
002066f4 g     O .bss	00000004 alt_argc
0000af34 g     F .text	0000082c tcp_slowtmr
00207308 g     O .bss	00000400 blok_testowy_deszyfracja
0001d184 g     F .text	00000064 _mbrtowc_r
0002bb24 g     F .text	0000005c _do_dtors
0001ebf8 g     F .text	000001ec __srefill_r
00000020 g       .exceptions	00000000 alt_irq_entry
0001df30 g     F .text	00000060 __ulp
0001ede4 g     F .text	00000038 __isinfd
0000be88 g     F .text	00000030 tcp_accept
00206634 g     O .bss	00000004 sgdma_in_decrypt_dev
0001ba70 g     F .text	00000018 __fp_unlock_all
00002ae0 g     F .text	00000178 ethernetif_init
00206588 g     O .rwdata	00000008 alt_fs_list
00001e74 g     F .text	000000b8 test_wydajnosci_sram
00000020 g       *ABS*	00000000 __ram_exceptions_start
0001c84c g     F .text	0000000c localeconv
00206638 g     O .bss	00000004 p3
002066a8 g     O .bss	00000004 tcp_tw_pcbs
0002a9cc g     F .text	000001a8 alt_tse_phy_set_adv_10
0020663c g     O .bss	00000002 dest_ip4_port
0002bc40 g     F .text	00000050 alt_ic_isr_register
0001279c g     F .text	00000e90 udp_input
00021b58 g     F .text	00000090 __hexdig_init
002065b4 g       *ABS*	00000000 _edata
00206b08 g     O .bss	00000400 blok_testowy
002182e0 g     O .bss	00000400 udp_data
002190c8 g       *ABS*	00000000 _end
00206640 g     O .bss	00000004 p9
0002988c g     F .text	00000240 alt_tse_mac_associate_phy
00206644 g     O .bss	00000004 sgdma_rx_dev1
000001b8 g       *ABS*	00000000 __ram_exceptions_end
00019b90 g     F .text	00000070 vfscanf
00005274 g     F .text	000000a8 ip_route
00206540 g     O .rwdata	00000004 key22
0000a850 g     F .text	000001c4 tcp_listen_with_backlog
00218be0 g     O .bss	00000118 lwip_stats
00206648 g     O .bss	00000002 dest_ip4_addr4
00008f2c g     F .text	000001f4 pbuf_header
000075f0 g     F .text	00000324 mem_realloc
00206688 g     O .bss	00000004 netif_default
0002bd2c g     F .text	000000a0 alt_ic_irq_disable
0000bfd0 g     F .text	000001a8 tcp_pcb_remove
00042040 g     O .descriptor_memory1	00000020 rx_descriptor1
0020664a g     O .bss	00000002 src_ip4_addr4
00043020 g     O .descriptor_memory	00000020 tx_descriptor_end
0002616c g     F .text	00000088 alt_avalon_sgdma_construct_descriptor
0001f090 g     F .text	00000088 __swrite
00206584 g     O .rwdata	00000004 __malloc_trim_threshold
00009458 g     F .text	00000040 pbuf_chain
0002c434 g     F .text	00000024 alt_get_performance_counter_base
0002c2e0 g     F .text	00000020 altera_nios2_qsys_irq_init
0002c838 g     F .text	00000038 exit
0000a3b0 g     F .text	00000194 tcp_abandon
0000c22c g     F .text	0000003c tcp_debug_state_str
0001c68c g     F .text	000000b8 _fwalk_reent
00007d78 g     F .text	000001bc memp_init
0001dd88 g     F .text	000001a8 __mdiff
00007d00 g     F .text	00000078 mem_calloc
0000b760 g     F .text	00000110 tcp_fasttmr
00206538 g     O .rwdata	00000004 key12
0001607c g     F .text	0000005c __modsi3
00040000 g     O .descriptor_memory_3desdecrypt	00000020 tdesdecryptin_descriptor
00000ce0 g     F .text	00000064 deciph_3des
00026a60 g     F .text	00000050 tse_mac_setGMIImode
0002b3ec g     F .text	000000e4 marvell_cfg_gmii
00400000 g       *ABS*	00000000 __alt_data_end
00000020 g     F .exceptions	00000000 alt_exception
0001ba4c g     F .text	00000004 __sfp_lock_release
00029acc g     F .text	00000128 alt_tse_phy_cfg_pcs
00041020 g     O .descriptor_memory_3des	00000020 tdesin_descriptor_end
0001eeac g     F .text	000000c4 __sccl
00014ff4 g     F .text	000000d0 etharp_ip_input
002186e0 g     O .bss	00000400 dane_udp_ciph
00203650 g     O .rodata	00000101 _ctype_
0020664c g     O .bss	00000004 sgdma_rx_dev
0002439c g     F .text	000000bc __fpcmp_parts_f
0002cce8 g     F .text	0000003c _exit
0001ee1c g     F .text	0000002c __isnand
0000b96c g     F .text	00000068 tcp_seg_copy
000226f0 g     F .text	00000060 __muldi3
0001c858 g     F .text	000001a8 __smakebuf_r
00001290 g     F .text	000004a0 weryfikacja_deszyfrowania
0000beb8 g     F .text	00000044 tcp_poll
000164f0 g     F .text	0000008c strlen
0002c15c g     F .text	00000154 open
00023de8 g     F .text	00000064 __gedf2
00013dd0 g     F .text	0000004c udp_new
00025268 g     F .text	00000044 alt_putchar
00021be8 g     F .text	00000740 __gethex
00206650 g     O .bss	00000002 deciph_ip4_addr2
0002bc10 g     F .text	00000030 alt_icache_flush_all
000268e0 g     F .text	000000a4 tse_mac_aRxRead
00206564 g     O .rwdata	00000006 ethbroadcast
002028c2 g     O .rodata	0000000d tcp_backoff
00206654 g     O .bss	00000004 p4
002065b0 g     O .rwdata	00000004 alt_priority_mask
0002bc90 g     F .text	0000009c alt_ic_irq_enable
000184a4 g     F .text	00000024 __vfprintf_internal
00027ab4 g     F .text	000000e0 alt_tse_mac_set_speed
00025d68 g     F .text	00000080 alt_avalon_sgdma_construct_mem_to_mem_desc_burst
000237d4 g     F .text	00000060 __subdf3
0001d7dc g     F .text	000000b0 __lo0bits
000184c8 g     F .text	00001658 __svfscanf_r
000213f4 g     F .text	0000019c _ungetc_r
0002bac8 g     F .text	0000005c _do_ctors
0002a784 g     F .text	00000248 alt_tse_phy_set_adv_100
0000c268 g     F .text	00000d28 tcp_input
00000b64 g     F .text	0000008c init_3des
00024a80 g     F .text	000000c8 close
00000d44 g     F .text	00000054 ciph_3des_read
0000531c g     F .text	00000588 ip_input
00024dcc g     F .text	00000080 alt_load
0020656a g     O .rwdata	00000006 ethzero
00024484 g     F .text	00000224 __pack_d
00206658 g     O .bss	00000002 ciph_ip4_addr4
0002787c g     F .text	0000006c alt_tse_get_system_index
000266d0 g     F .text	000000a4 alt_avalon_sgdma_init
0002c884 g     F .text	00000014 free
000083f8 g     F .text	000000e0 netif_find
0001ba50 g     F .text	00000004 __sinit_lock_acquire
0001d55c g     F .text	00000114 __multadd
0001d534 g     F .text	00000028 _Bfree
00026774 g     F .text	0000002c no_printf
00009498 g     F .text	0000012c pbuf_dechain



Disassembly of section .entry:

00000000 <__reset>:
   0:	00840014 	movui	r2,4096
   4:	1001483a 	initi	r2
   8:	10bff804 	addi	r2,r2,-32
   c:	00bffd16 	blt	zero,r2,4 <__reset+0x4>
  10:	00400034 	movhi	at,0
  14:	08406e14 	ori	at,at,440
  18:	0800683a 	jmp	at
  1c:	00000000 	call	0 <__reset>

Disassembly of section .exceptions:

00000020 <alt_exception>:
  20:	deffed04 	addi	sp,sp,-76
  24:	dfc00015 	stw	ra,0(sp)
  28:	d8400215 	stw	at,8(sp)
  2c:	d8800315 	stw	r2,12(sp)
  30:	d8c00415 	stw	r3,16(sp)
  34:	d9000515 	stw	r4,20(sp)
  38:	d9400615 	stw	r5,24(sp)
  3c:	d9800715 	stw	r6,28(sp)
  40:	d9c00815 	stw	r7,32(sp)
  44:	000b307a 	rdctl	r5,estatus
  48:	da000915 	stw	r8,36(sp)
  4c:	da400a15 	stw	r9,40(sp)
  50:	da800b15 	stw	r10,44(sp)
  54:	dac00c15 	stw	r11,48(sp)
  58:	db000d15 	stw	r12,52(sp)
  5c:	db400e15 	stw	r13,56(sp)
  60:	db800f15 	stw	r14,60(sp)
  64:	dbc01015 	stw	r15,64(sp)
  68:	d9401115 	stw	r5,68(sp)
  6c:	ebffff04 	addi	r15,ea,-4
  70:	dbc01215 	stw	r15,72(sp)
  74:	0009313a 	rdctl	r4,ipending
  78:	2880004c 	andi	r2,r5,1
  7c:	10000326 	beq	r2,zero,8c <alt_exception+0x6c>
  80:	20000226 	beq	r4,zero,8c <alt_exception+0x6c>
  84:	00000ec0 	call	ec <alt_irq_handler>
  88:	00000306 	br	98 <alt_exception_unknown+0x4>
  8c:	df401215 	stw	ea,72(sp)
  90:	e8bfff17 	ldw	r2,-4(ea)

00000094 <alt_exception_unknown>:
  94:	003da03a 	break	0
  98:	d9401117 	ldw	r5,68(sp)
  9c:	df401217 	ldw	ea,72(sp)
  a0:	dfc00017 	ldw	ra,0(sp)
  a4:	2801707a 	wrctl	estatus,r5
  a8:	d8400217 	ldw	at,8(sp)
  ac:	d8800317 	ldw	r2,12(sp)
  b0:	d8c00417 	ldw	r3,16(sp)
  b4:	d9000517 	ldw	r4,20(sp)
  b8:	d9400617 	ldw	r5,24(sp)
  bc:	d9800717 	ldw	r6,28(sp)
  c0:	d9c00817 	ldw	r7,32(sp)
  c4:	da000917 	ldw	r8,36(sp)
  c8:	da400a17 	ldw	r9,40(sp)
  cc:	da800b17 	ldw	r10,44(sp)
  d0:	dac00c17 	ldw	r11,48(sp)
  d4:	db000d17 	ldw	r12,52(sp)
  d8:	db400e17 	ldw	r13,56(sp)
  dc:	db800f17 	ldw	r14,60(sp)
  e0:	dbc01017 	ldw	r15,64(sp)
  e4:	dec01304 	addi	sp,sp,76
  e8:	ef80083a 	eret

000000ec <alt_irq_handler>:
  ec:	defff904 	addi	sp,sp,-28
  f0:	dfc00615 	stw	ra,24(sp)
  f4:	df000515 	stw	fp,20(sp)
  f8:	df000504 	addi	fp,sp,20
  fc:	0001883a 	nop
 100:	0005313a 	rdctl	r2,ipending
 104:	e0bffe15 	stw	r2,-8(fp)
 108:	e0bffe17 	ldw	r2,-8(fp)
 10c:	e0bffb15 	stw	r2,-20(fp)
 110:	e03ffd15 	stw	zero,-12(fp)
 114:	00800044 	movi	r2,1
 118:	e0bffc15 	stw	r2,-16(fp)
 11c:	e0fffb17 	ldw	r3,-20(fp)
 120:	e0bffc17 	ldw	r2,-16(fp)
 124:	1884703a 	and	r2,r3,r2
 128:	10001726 	beq	r2,zero,188 <alt_irq_handler+0x9c>
 12c:	00c008b4 	movhi	r3,34
 130:	18e38e04 	addi	r3,r3,-29128
 134:	e0bffd17 	ldw	r2,-12(fp)
 138:	100490fa 	slli	r2,r2,3
 13c:	1885883a 	add	r2,r3,r2
 140:	10c00017 	ldw	r3,0(r2)
 144:	010008b4 	movhi	r4,34
 148:	21238e04 	addi	r4,r4,-29128
 14c:	e0bffd17 	ldw	r2,-12(fp)
 150:	100490fa 	slli	r2,r2,3
 154:	2085883a 	add	r2,r4,r2
 158:	10800104 	addi	r2,r2,4
 15c:	10800017 	ldw	r2,0(r2)
 160:	1009883a 	mov	r4,r2
 164:	183ee83a 	callr	r3
 168:	0001883a 	nop
 16c:	0005313a 	rdctl	r2,ipending
 170:	e0bfff15 	stw	r2,-4(fp)
 174:	e0bfff17 	ldw	r2,-4(fp)
 178:	e0bffb15 	stw	r2,-20(fp)
 17c:	e0bffb17 	ldw	r2,-20(fp)
 180:	103fe31e 	bne	r2,zero,110 <alt_irq_handler+0x24>
 184:	00000706 	br	1a4 <alt_irq_handler+0xb8>
 188:	e0bffc17 	ldw	r2,-16(fp)
 18c:	1085883a 	add	r2,r2,r2
 190:	e0bffc15 	stw	r2,-16(fp)
 194:	e0bffd17 	ldw	r2,-12(fp)
 198:	10800044 	addi	r2,r2,1
 19c:	e0bffd15 	stw	r2,-12(fp)
 1a0:	003fde06 	br	11c <alt_irq_handler+0x30>
 1a4:	e037883a 	mov	sp,fp
 1a8:	dfc00117 	ldw	ra,4(sp)
 1ac:	df000017 	ldw	fp,0(sp)
 1b0:	dec00204 	addi	sp,sp,8
 1b4:	f800283a 	ret

Disassembly of section .text:

000001b8 <_start>:
     1b8:	06c01034 	movhi	sp,64
     1bc:	dec00014 	ori	sp,sp,0
     1c0:	06800834 	movhi	gp,32
     1c4:	d6b94b14 	ori	gp,gp,58668
     1c8:	00800834 	movhi	r2,32
     1cc:	10996d14 	ori	r2,r2,26036
     1d0:	00c00874 	movhi	r3,33
     1d4:	18e43214 	ori	r3,r3,37064
     1d8:	10c00326 	beq	r2,r3,1e8 <_start+0x30>
     1dc:	10000015 	stw	zero,0(r2)
     1e0:	10800104 	addi	r2,r2,4
     1e4:	10fffd36 	bltu	r2,r3,1dc <_start+0x24>
     1e8:	0024dcc0 	call	24dcc <alt_load>
     1ec:	0024f6c0 	call	24f6c <alt_main>

000001f0 <alt_after_alt_main>:
     1f0:	003fff06 	br	1f0 <alt_after_alt_main>

000001f4 <main>:
     1f4:	defff604 	addi	sp,sp,-40
     1f8:	dfc00915 	stw	ra,36(sp)
     1fc:	df000815 	stw	fp,32(sp)
     200:	df000804 	addi	fp,sp,32
     204:	e13ffd15 	stw	r4,-12(fp)
     208:	e17ffe15 	stw	r5,-8(fp)
     20c:	e1bfff15 	stw	r6,-4(fp)
     210:	00800874 	movhi	r2,33
     214:	109fac04 	addi	r2,r2,32432
     218:	00c00444 	movi	r3,17
     21c:	10c008c5 	stb	r3,35(r2)
     220:	00800874 	movhi	r2,33
     224:	109fac04 	addi	r2,r2,32432
     228:	00c01b84 	movi	r3,110
     22c:	10c00905 	stb	r3,36(r2)
     230:	00800874 	movhi	r2,33
     234:	109fac04 	addi	r2,r2,32432
     238:	00c01804 	movi	r3,96
     23c:	10c00945 	stb	r3,37(r2)
     240:	00800874 	movhi	r2,33
     244:	109fac04 	addi	r2,r2,32432
     248:	00c00044 	movi	r3,1
     24c:	10c00985 	stb	r3,38(r2)
     250:	00800874 	movhi	r2,33
     254:	109fac04 	addi	r2,r2,32432
     258:	00c003c4 	movi	r3,15
     25c:	10c009c5 	stb	r3,39(r2)
     260:	00800874 	movhi	r2,33
     264:	109fac04 	addi	r2,r2,32432
     268:	00c00084 	movi	r3,2
     26c:	10c00a05 	stb	r3,40(r2)
     270:	01000834 	movhi	r4,32
     274:	21000004 	addi	r4,r4,0
     278:	00163cc0 	call	163cc <puts>
     27c:	00800874 	movhi	r2,33
     280:	109fac04 	addi	r2,r2,32432
     284:	10800717 	ldw	r2,28(r2)
     288:	d8800015 	stw	r2,0(sp)
     28c:	00800034 	movhi	r2,0
     290:	108ab804 	addi	r2,r2,10976
     294:	d8800115 	stw	r2,4(sp)
     298:	00800074 	movhi	r2,1
     29c:	10979304 	addi	r2,r2,24140
     2a0:	d8800215 	stw	r2,8(sp)
     2a4:	01000874 	movhi	r4,33
     2a8:	211fac04 	addi	r4,r4,32432
     2ac:	d1602204 	addi	r5,gp,-32632
     2b0:	d1a02204 	addi	r6,gp,-32632
     2b4:	d1e02204 	addi	r7,gp,-32632
     2b8:	00082080 	call	8208 <netif_add>
     2bc:	1000031e 	bne	r2,zero,2cc <main+0xd8>
     2c0:	01000834 	movhi	r4,32
     2c4:	21000804 	addi	r4,r4,32
     2c8:	00163cc0 	call	163cc <puts>
     2cc:	01000834 	movhi	r4,32
     2d0:	21000f04 	addi	r4,r4,60
     2d4:	00162e80 	call	162e8 <printf>
     2d8:	01000834 	movhi	r4,32
     2dc:	21001404 	addi	r4,r4,80
     2e0:	00163cc0 	call	163cc <puts>
     2e4:	01000834 	movhi	r4,32
     2e8:	21001504 	addi	r4,r4,84
     2ec:	002611c0 	call	2611c <alt_avalon_sgdma_open>
     2f0:	d0a03615 	stw	r2,-32552(gp)
     2f4:	d0a03617 	ldw	r2,-32552(gp)
     2f8:	1000051e 	bne	r2,zero,310 <main+0x11c>
     2fc:	01000834 	movhi	r4,32
     300:	21001904 	addi	r4,r4,100
     304:	00250240 	call	25024 <alt_printf>
     308:	00bfffc4 	movi	r2,-1
     30c:	00010f06 	br	74c <main+0x558>
     310:	01000834 	movhi	r4,32
     314:	21002b04 	addi	r4,r4,172
     318:	00250240 	call	25024 <alt_printf>
     31c:	01000834 	movhi	r4,32
     320:	21003904 	addi	r4,r4,228
     324:	002611c0 	call	2611c <alt_avalon_sgdma_open>
     328:	d0a04815 	stw	r2,-32480(gp)
     32c:	d0a04817 	ldw	r2,-32480(gp)
     330:	1000051e 	bne	r2,zero,348 <main+0x154>
     334:	01000834 	movhi	r4,32
     338:	21003d04 	addi	r4,r4,244
     33c:	00250240 	call	25024 <alt_printf>
     340:	00bfffc4 	movi	r2,-1
     344:	00010106 	br	74c <main+0x558>
     348:	01000834 	movhi	r4,32
     34c:	21004f04 	addi	r4,r4,316
     350:	00250240 	call	25024 <alt_printf>
     354:	01000834 	movhi	r4,32
     358:	21005c04 	addi	r4,r4,368
     35c:	00163cc0 	call	163cc <puts>
     360:	d0a04817 	ldw	r2,-32480(gp)
     364:	1009883a 	mov	r4,r2
     368:	01400034 	movhi	r5,0
     36c:	2941d804 	addi	r5,r5,1888
     370:	01800504 	movi	r6,20
     374:	000f883a 	mov	r7,zero
     378:	0025fbc0 	call	25fbc <alt_avalon_sgdma_register_callback>
     37c:	d8000015 	stw	zero,0(sp)
     380:	01000134 	movhi	r4,4
     384:	210c1004 	addi	r4,r4,12352
     388:	01400134 	movhi	r5,4
     38c:	294c1804 	addi	r5,r5,12384
     390:	01800874 	movhi	r6,33
     394:	319fb804 	addi	r6,r6,32480
     398:	000f883a 	mov	r7,zero
     39c:	0025de80 	call	25de8 <alt_avalon_sgdma_construct_stream_to_mem_desc>
     3a0:	d0a04817 	ldw	r2,-32480(gp)
     3a4:	1009883a 	mov	r4,r2
     3a8:	01400134 	movhi	r5,4
     3ac:	294c1004 	addi	r5,r5,12352
     3b0:	0025ac40 	call	25ac4 <alt_avalon_sgdma_do_async_transfer>
     3b4:	d0a04617 	ldw	r2,-32488(gp)
     3b8:	1009883a 	mov	r4,r2
     3bc:	01400134 	movhi	r5,4
     3c0:	29481004 	addi	r5,r5,8256
     3c4:	0025ac40 	call	25ac4 <alt_avalon_sgdma_do_async_transfer>
     3c8:	01000834 	movhi	r4,32
     3cc:	21006104 	addi	r4,r4,388
     3d0:	002611c0 	call	2611c <alt_avalon_sgdma_open>
     3d4:	d0a03f15 	stw	r2,-32516(gp)
     3d8:	d0a03f17 	ldw	r2,-32516(gp)
     3dc:	1000051e 	bne	r2,zero,3f4 <main+0x200>
     3e0:	01000834 	movhi	r4,32
     3e4:	21006504 	addi	r4,r4,404
     3e8:	00250240 	call	25024 <alt_printf>
     3ec:	00bfffc4 	movi	r2,-1
     3f0:	0000d606 	br	74c <main+0x558>
     3f4:	01000834 	movhi	r4,32
     3f8:	21007704 	addi	r4,r4,476
     3fc:	00250240 	call	25024 <alt_printf>
     400:	01000834 	movhi	r4,32
     404:	21008504 	addi	r4,r4,532
     408:	002611c0 	call	2611c <alt_avalon_sgdma_open>
     40c:	d0a04615 	stw	r2,-32488(gp)
     410:	d0a04617 	ldw	r2,-32488(gp)
     414:	1000051e 	bne	r2,zero,42c <main+0x238>
     418:	01000834 	movhi	r4,32
     41c:	21008904 	addi	r4,r4,548
     420:	00250240 	call	25024 <alt_printf>
     424:	00bfffc4 	movi	r2,-1
     428:	0000c806 	br	74c <main+0x558>
     42c:	01000834 	movhi	r4,32
     430:	21009b04 	addi	r4,r4,620
     434:	00250240 	call	25024 <alt_printf>
     438:	01000834 	movhi	r4,32
     43c:	21005c04 	addi	r4,r4,368
     440:	00163cc0 	call	163cc <puts>
     444:	d0a04617 	ldw	r2,-32488(gp)
     448:	1009883a 	mov	r4,r2
     44c:	01400034 	movhi	r5,0
     450:	29429904 	addi	r5,r5,2660
     454:	01800504 	movi	r6,20
     458:	000f883a 	mov	r7,zero
     45c:	0025fbc0 	call	25fbc <alt_avalon_sgdma_register_callback>
     460:	d8000015 	stw	zero,0(sp)
     464:	01000134 	movhi	r4,4
     468:	21081004 	addi	r4,r4,8256
     46c:	01400134 	movhi	r5,4
     470:	29481804 	addi	r5,r5,8288
     474:	01800834 	movhi	r6,32
     478:	3199c204 	addi	r6,r6,26376
     47c:	000f883a 	mov	r7,zero
     480:	0025de80 	call	25de8 <alt_avalon_sgdma_construct_stream_to_mem_desc>
     484:	d0a04617 	ldw	r2,-32488(gp)
     488:	1009883a 	mov	r4,r2
     48c:	01400134 	movhi	r5,4
     490:	29481004 	addi	r5,r5,8256
     494:	0025ac40 	call	25ac4 <alt_avalon_sgdma_do_async_transfer>
     498:	01000834 	movhi	r4,32
     49c:	2100a804 	addi	r4,r4,672
     4a0:	002611c0 	call	2611c <alt_avalon_sgdma_open>
     4a4:	d0a03b15 	stw	r2,-32532(gp)
     4a8:	d0a03b17 	ldw	r2,-32532(gp)
     4ac:	1000051e 	bne	r2,zero,4c4 <main+0x2d0>
     4b0:	01000834 	movhi	r4,32
     4b4:	2100ad04 	addi	r4,r4,692
     4b8:	00250240 	call	25024 <alt_printf>
     4bc:	00bfffc4 	movi	r2,-1
     4c0:	0000a206 	br	74c <main+0x558>
     4c4:	01000834 	movhi	r4,32
     4c8:	2100c204 	addi	r4,r4,776
     4cc:	00250240 	call	25024 <alt_printf>
     4d0:	01000834 	movhi	r4,32
     4d4:	2100d904 	addi	r4,r4,868
     4d8:	002611c0 	call	2611c <alt_avalon_sgdma_open>
     4dc:	d0a04015 	stw	r2,-32512(gp)
     4e0:	d0a04017 	ldw	r2,-32512(gp)
     4e4:	1000051e 	bne	r2,zero,4fc <main+0x308>
     4e8:	01000834 	movhi	r4,32
     4ec:	2100de04 	addi	r4,r4,888
     4f0:	00250240 	call	25024 <alt_printf>
     4f4:	00bfffc4 	movi	r2,-1
     4f8:	00009406 	br	74c <main+0x558>
     4fc:	01000834 	movhi	r4,32
     500:	2100f704 	addi	r4,r4,988
     504:	00250240 	call	25024 <alt_printf>
     508:	d8000015 	stw	zero,0(sp)
     50c:	01000134 	movhi	r4,4
     510:	21041004 	addi	r4,r4,4160
     514:	01400134 	movhi	r5,4
     518:	29441804 	addi	r5,r5,4192
     51c:	01800834 	movhi	r6,32
     520:	319bc204 	addi	r6,r6,28424
     524:	000f883a 	mov	r7,zero
     528:	0025de80 	call	25de8 <alt_avalon_sgdma_construct_stream_to_mem_desc>
     52c:	d0a03b17 	ldw	r2,-32532(gp)
     530:	1009883a 	mov	r4,r2
     534:	01400134 	movhi	r5,4
     538:	29441004 	addi	r5,r5,4160
     53c:	0025ac40 	call	25ac4 <alt_avalon_sgdma_do_async_transfer>
     540:	01000834 	movhi	r4,32
     544:	21010c04 	addi	r4,r4,1072
     548:	002611c0 	call	2611c <alt_avalon_sgdma_open>
     54c:	d0a02815 	stw	r2,-32608(gp)
     550:	d0a02817 	ldw	r2,-32608(gp)
     554:	1000051e 	bne	r2,zero,56c <main+0x378>
     558:	01000834 	movhi	r4,32
     55c:	21011304 	addi	r4,r4,1100
     560:	00250240 	call	25024 <alt_printf>
     564:	00bfffc4 	movi	r2,-1
     568:	00007806 	br	74c <main+0x558>
     56c:	01000834 	movhi	r4,32
     570:	21012804 	addi	r4,r4,1184
     574:	00250240 	call	25024 <alt_printf>
     578:	01000834 	movhi	r4,32
     57c:	21013f04 	addi	r4,r4,1276
     580:	002611c0 	call	2611c <alt_avalon_sgdma_open>
     584:	d0a04215 	stw	r2,-32504(gp)
     588:	d0a04217 	ldw	r2,-32504(gp)
     58c:	1000051e 	bne	r2,zero,5a4 <main+0x3b0>
     590:	01000834 	movhi	r4,32
     594:	21014604 	addi	r4,r4,1304
     598:	00250240 	call	25024 <alt_printf>
     59c:	00bfffc4 	movi	r2,-1
     5a0:	00006a06 	br	74c <main+0x558>
     5a4:	01000834 	movhi	r4,32
     5a8:	21016004 	addi	r4,r4,1408
     5ac:	00250240 	call	25024 <alt_printf>
     5b0:	d8000015 	stw	zero,0(sp)
     5b4:	01000134 	movhi	r4,4
     5b8:	21001004 	addi	r4,r4,64
     5bc:	01400134 	movhi	r5,4
     5c0:	29401804 	addi	r5,r5,96
     5c4:	01800834 	movhi	r6,32
     5c8:	319dc204 	addi	r6,r6,30472
     5cc:	000f883a 	mov	r7,zero
     5d0:	0025de80 	call	25de8 <alt_avalon_sgdma_construct_stream_to_mem_desc>
     5d4:	d0a02817 	ldw	r2,-32608(gp)
     5d8:	1009883a 	mov	r4,r2
     5dc:	01400134 	movhi	r5,4
     5e0:	29401004 	addi	r5,r5,64
     5e4:	0025ac40 	call	25ac4 <alt_avalon_sgdma_do_async_transfer>
     5e8:	01000834 	movhi	r4,32
     5ec:	21017604 	addi	r4,r4,1496
     5f0:	00163cc0 	call	163cc <puts>
     5f4:	00800134 	movhi	r2,4
     5f8:	10950004 	addi	r2,r2,21504
     5fc:	e0bffb15 	stw	r2,-20(fp)
     600:	00800134 	movhi	r2,4
     604:	10940004 	addi	r2,r2,20480
     608:	e0bffc15 	stw	r2,-16(fp)
     60c:	e0bffb17 	ldw	r2,-20(fp)
     610:	10800304 	addi	r2,r2,12
     614:	00c45bb4 	movhi	r3,4462
     618:	18d80044 	addi	r3,r3,24577
     61c:	10c00015 	stw	r3,0(r2)
     620:	e0bffb17 	ldw	r2,-20(fp)
     624:	10800404 	addi	r2,r2,16
     628:	00c3c084 	movi	r3,3842
     62c:	10c00015 	stw	r3,0(r2)
     630:	e0bffc17 	ldw	r2,-16(fp)
     634:	10800304 	addi	r2,r2,12
     638:	00c45bb4 	movhi	r3,4462
     63c:	18d80044 	addi	r3,r3,24577
     640:	10c00015 	stw	r3,0(r2)
     644:	e0bffc17 	ldw	r2,-16(fp)
     648:	10800404 	addi	r2,r2,16
     64c:	00c3c044 	movi	r3,3841
     650:	10c00015 	stw	r3,0(r2)
     654:	01000834 	movhi	r4,32
     658:	21017c04 	addi	r4,r4,1520
     65c:	00163cc0 	call	163cc <puts>
     660:	e0bffb17 	ldw	r2,-20(fp)
     664:	10800f04 	addi	r2,r2,60
     668:	00c00404 	movi	r3,16
     66c:	10c00015 	stw	r3,0(r2)
     670:	e0bffb17 	ldw	r2,-20(fp)
     674:	10801004 	addi	r2,r2,64
     678:	00c00444 	movi	r3,17
     67c:	10c00015 	stw	r3,0(r2)
     680:	e0bffb17 	ldw	r2,-20(fp)
     684:	10809404 	addi	r2,r2,592
     688:	00d00004 	movi	r3,16384
     68c:	10c00015 	stw	r3,0(r2)
     690:	e0bffb17 	ldw	r2,-20(fp)
     694:	10809004 	addi	r2,r2,576
     698:	e0fffb17 	ldw	r3,-20(fp)
     69c:	18c09004 	addi	r3,r3,576
     6a0:	18c00017 	ldw	r3,0(r3)
     6a4:	18c01814 	ori	r3,r3,96
     6a8:	10c00015 	stw	r3,0(r2)
     6ac:	e0bffb17 	ldw	r2,-20(fp)
     6b0:	10809404 	addi	r2,r2,592
     6b4:	e0fffb17 	ldw	r3,-20(fp)
     6b8:	18c09404 	addi	r3,r3,592
     6bc:	18c00017 	ldw	r3,0(r3)
     6c0:	18c02094 	ori	r3,r3,130
     6c4:	10c00015 	stw	r3,0(r2)
     6c8:	e0bffb17 	ldw	r2,-20(fp)
     6cc:	10808004 	addi	r2,r2,512
     6d0:	e0fffb17 	ldw	r3,-20(fp)
     6d4:	18c08004 	addi	r3,r3,512
     6d8:	18c00017 	ldw	r3,0(r3)
     6dc:	18e00014 	ori	r3,r3,32768
     6e0:	10c00015 	stw	r3,0(r2)
     6e4:	0001883a 	nop
     6e8:	e0bffb17 	ldw	r2,-20(fp)
     6ec:	10808004 	addi	r2,r2,512
     6f0:	10800017 	ldw	r2,0(r2)
     6f4:	10a0000c 	andi	r2,r2,32768
     6f8:	103ffb1e 	bne	r2,zero,6e8 <main+0x4f4>
     6fc:	01000834 	movhi	r4,32
     700:	21018204 	addi	r4,r4,1544
     704:	00162e80 	call	162e8 <printf>
     708:	e0bffb17 	ldw	r2,-20(fp)
     70c:	10800204 	addi	r2,r2,8
     710:	e0fffb17 	ldw	r3,-20(fp)
     714:	18c00204 	addi	r3,r3,8
     718:	19000017 	ldw	r4,0(r3)
     71c:	00c10034 	movhi	r3,1024
     720:	18c07cc4 	addi	r3,r3,499
     724:	20c6b03a 	or	r3,r4,r3
     728:	10c00015 	stw	r3,0(r2)
     72c:	01000834 	movhi	r4,32
     730:	21018804 	addi	r4,r4,1568
     734:	00250240 	call	25024 <alt_printf>
     738:	d0203715 	stw	zero,-32548(gp)
     73c:	0000dec0 	call	dec <weryfikacja_szyfrowania>
     740:	00012900 	call	1290 <weryfikacja_deszyfrowania>
     744:	00027100 	call	2710 <definicja_szyfrowania_UDP>
     748:	003fff06 	br	748 <main+0x554>
     74c:	e037883a 	mov	sp,fp
     750:	dfc00117 	ldw	ra,4(sp)
     754:	df000017 	ldw	fp,0(sp)
     758:	dec00204 	addi	sp,sp,8
     75c:	f800283a 	ret

00000760 <rx_ethernet_isr>:
     760:	defff504 	addi	sp,sp,-44
     764:	dfc00a15 	stw	ra,40(sp)
     768:	df000915 	stw	fp,36(sp)
     76c:	df000904 	addi	fp,sp,36
     770:	e13fff15 	stw	r4,-4(fp)
     774:	00800874 	movhi	r2,33
     778:	109fac04 	addi	r2,r2,32432
     77c:	e0bffc15 	stw	r2,-16(fp)
     780:	e0bfff17 	ldw	r2,-4(fp)
     784:	e0bffd15 	stw	r2,-12(fp)
     788:	0001883a 	nop
     78c:	01000134 	movhi	r4,4
     790:	210c1004 	addi	r4,r4,12352
     794:	00260b80 	call	260b8 <alt_avalon_sgdma_check_descriptor_status>
     798:	103ffc1e 	bne	r2,zero,78c <rx_ethernet_isr+0x2c>
     79c:	00800134 	movhi	r2,4
     7a0:	108c1704 	addi	r2,r2,12380
     7a4:	1080002b 	ldhuio	r2,0(r2)
     7a8:	10bfffcc 	andi	r2,r2,65535
     7ac:	d0a02f15 	stw	r2,-32580(gp)
     7b0:	d0a02f17 	ldw	r2,-32580(gp)
     7b4:	01000834 	movhi	r4,32
     7b8:	21018a04 	addi	r4,r4,1576
     7bc:	100b883a 	mov	r5,r2
     7c0:	00162e80 	call	162e8 <printf>
     7c4:	e03ffb15 	stw	zero,-20(fp)
     7c8:	00000706 	br	7e8 <rx_ethernet_isr+0x88>
     7cc:	01000834 	movhi	r4,32
     7d0:	21019304 	addi	r4,r4,1612
     7d4:	01400204 	movi	r5,8
     7d8:	00250240 	call	25024 <alt_printf>
     7dc:	e0bffb17 	ldw	r2,-20(fp)
     7e0:	10800044 	addi	r2,r2,1
     7e4:	e0bffb15 	stw	r2,-20(fp)
     7e8:	e0fffb17 	ldw	r3,-20(fp)
     7ec:	d0a03717 	ldw	r2,-32548(gp)
     7f0:	10800184 	addi	r2,r2,6
     7f4:	18bff536 	bltu	r3,r2,7cc <rx_ethernet_isr+0x6c>
     7f8:	e03ffb15 	stw	zero,-20(fp)
     7fc:	01000134 	movhi	r4,4
     800:	21150004 	addi	r4,r4,21504
     804:	00277f40 	call	277f4 <alt_tse_mac_get_common_speed>
     808:	e0bffe15 	stw	r2,-8(fp)
     80c:	01000834 	movhi	r4,32
     810:	21019404 	addi	r4,r4,1616
     814:	e17ffe17 	ldw	r5,-8(fp)
     818:	00162e80 	call	162e8 <printf>
     81c:	01000284 	movi	r4,10
     820:	001632c0 	call	1632c <putchar>
     824:	01000284 	movi	r4,10
     828:	001632c0 	call	1632c <putchar>
     82c:	01000834 	movhi	r4,32
     830:	21019904 	addi	r4,r4,1636
     834:	00163cc0 	call	163cc <puts>
     838:	00001706 	br	898 <rx_ethernet_isr+0x138>
     83c:	00c00874 	movhi	r3,33
     840:	18dfb804 	addi	r3,r3,32480
     844:	e0bffb17 	ldw	r2,-20(fp)
     848:	1885883a 	add	r2,r3,r2
     84c:	10800003 	ldbu	r2,0(r2)
     850:	10803fcc 	andi	r2,r2,255
     854:	01000834 	movhi	r4,32
     858:	21019d04 	addi	r4,r4,1652
     85c:	100b883a 	mov	r5,r2
     860:	00250240 	call	25024 <alt_printf>
     864:	e0bffb17 	ldw	r2,-20(fp)
     868:	10800044 	addi	r2,r2,1
     86c:	e0bffb15 	stw	r2,-20(fp)
     870:	00c00874 	movhi	r3,33
     874:	18dfb804 	addi	r3,r3,32480
     878:	e0bffb17 	ldw	r2,-20(fp)
     87c:	1885883a 	add	r2,r3,r2
     880:	10800003 	ldbu	r2,0(r2)
     884:	10803fcc 	andi	r2,r2,255
     888:	10800298 	cmpnei	r2,r2,10
     88c:	1000021e 	bne	r2,zero,898 <rx_ethernet_isr+0x138>
     890:	00810004 	movi	r2,1024
     894:	e0bffb15 	stw	r2,-20(fp)
     898:	d0a02f17 	ldw	r2,-32580(gp)
     89c:	e0fffb17 	ldw	r3,-20(fp)
     8a0:	18bfe616 	blt	r3,r2,83c <rx_ethernet_isr+0xdc>
     8a4:	d0a02417 	ldw	r2,-32624(gp)
     8a8:	00c00874 	movhi	r3,33
     8ac:	18dfb804 	addi	r3,r3,32480
     8b0:	10c00115 	stw	r3,4(r2)
     8b4:	d0a02417 	ldw	r2,-32624(gp)
     8b8:	1009883a 	mov	r4,r2
     8bc:	e17ffc17 	ldw	r5,-16(fp)
     8c0:	0015e4c0 	call	15e4c <ethernet_input>
     8c4:	e03ffb15 	stw	zero,-20(fp)
     8c8:	00000906 	br	8f0 <rx_ethernet_isr+0x190>
     8cc:	00c00874 	movhi	r3,33
     8d0:	18dfb804 	addi	r3,r3,32480
     8d4:	e0bffb17 	ldw	r2,-20(fp)
     8d8:	1885883a 	add	r2,r3,r2
     8dc:	00ffffc4 	movi	r3,-1
     8e0:	10c00005 	stb	r3,0(r2)
     8e4:	e0bffb17 	ldw	r2,-20(fp)
     8e8:	10800044 	addi	r2,r2,1
     8ec:	e0bffb15 	stw	r2,-20(fp)
     8f0:	e0bffb17 	ldw	r2,-20(fp)
     8f4:	10800210 	cmplti	r2,r2,8
     8f8:	103ff41e 	bne	r2,zero,8cc <rx_ethernet_isr+0x16c>
     8fc:	00800874 	movhi	r2,33
     900:	109fb804 	addi	r2,r2,32480
     904:	10000005 	stb	zero,0(r2)
     908:	00800874 	movhi	r2,33
     90c:	109fb804 	addi	r2,r2,32480
     910:	10000045 	stb	zero,1(r2)
     914:	00800874 	movhi	r2,33
     918:	109fb804 	addi	r2,r2,32480
     91c:	00c00044 	movi	r3,1
     920:	10c00205 	stb	r3,8(r2)
     924:	00800874 	movhi	r2,33
     928:	109fb804 	addi	r2,r2,32480
     92c:	00c01804 	movi	r3,96
     930:	10c00245 	stb	r3,9(r2)
     934:	00800874 	movhi	r2,33
     938:	109fb804 	addi	r2,r2,32480
     93c:	00c01b84 	movi	r3,110
     940:	10c00285 	stb	r3,10(r2)
     944:	00800874 	movhi	r2,33
     948:	109fb804 	addi	r2,r2,32480
     94c:	00c00444 	movi	r3,17
     950:	10c002c5 	stb	r3,11(r2)
     954:	00800874 	movhi	r2,33
     958:	109fb804 	addi	r2,r2,32480
     95c:	00c00084 	movi	r3,2
     960:	10c00305 	stb	r3,12(r2)
     964:	00800874 	movhi	r2,33
     968:	109fb804 	addi	r2,r2,32480
     96c:	00c003c4 	movi	r3,15
     970:	10c00345 	stb	r3,13(r2)
     974:	d0a02f17 	ldw	r2,-32580(gp)
     978:	01000874 	movhi	r4,33
     97c:	211eac04 	addi	r4,r4,31408
     980:	01400874 	movhi	r5,33
     984:	295fb804 	addi	r5,r5,32480
     988:	100d883a 	mov	r6,r2
     98c:	00160e80 	call	160e8 <memcpy>
     990:	00800384 	movi	r2,14
     994:	e0bffb15 	stw	r2,-20(fp)
     998:	d0a02f17 	ldw	r2,-32580(gp)
     99c:	10bfff04 	addi	r2,r2,-4
     9a0:	10bfffcc 	andi	r2,r2,65535
     9a4:	d8000015 	stw	zero,0(sp)
     9a8:	00c00044 	movi	r3,1
     9ac:	d8c00115 	stw	r3,4(sp)
     9b0:	00c00044 	movi	r3,1
     9b4:	d8c00215 	stw	r3,8(sp)
     9b8:	d8000315 	stw	zero,12(sp)
     9bc:	01000134 	movhi	r4,4
     9c0:	210c0004 	addi	r4,r4,12288
     9c4:	01400134 	movhi	r5,4
     9c8:	294c0804 	addi	r5,r5,12320
     9cc:	01800874 	movhi	r6,33
     9d0:	319eac04 	addi	r6,r6,31408
     9d4:	100f883a 	mov	r7,r2
     9d8:	0025eb80 	call	25eb8 <alt_avalon_sgdma_construct_mem_to_stream_desc>
     9dc:	d0a03617 	ldw	r2,-32552(gp)
     9e0:	1009883a 	mov	r4,r2
     9e4:	01400134 	movhi	r5,4
     9e8:	294c0004 	addi	r5,r5,12288
     9ec:	0025ac40 	call	25ac4 <alt_avalon_sgdma_do_async_transfer>
     9f0:	0001883a 	nop
     9f4:	01000134 	movhi	r4,4
     9f8:	210c0004 	addi	r4,r4,12288
     9fc:	00260b80 	call	260b8 <alt_avalon_sgdma_check_descriptor_status>
     a00:	103ffc1e 	bne	r2,zero,9f4 <rx_ethernet_isr+0x294>
     a04:	d8000015 	stw	zero,0(sp)
     a08:	01000134 	movhi	r4,4
     a0c:	210c1004 	addi	r4,r4,12352
     a10:	01400134 	movhi	r5,4
     a14:	294c1804 	addi	r5,r5,12384
     a18:	01800874 	movhi	r6,33
     a1c:	319fb804 	addi	r6,r6,32480
     a20:	000f883a 	mov	r7,zero
     a24:	0025de80 	call	25de8 <alt_avalon_sgdma_construct_stream_to_mem_desc>
     a28:	d0a04817 	ldw	r2,-32480(gp)
     a2c:	1009883a 	mov	r4,r2
     a30:	01400134 	movhi	r5,4
     a34:	294c1004 	addi	r5,r5,12352
     a38:	0025ac40 	call	25ac4 <alt_avalon_sgdma_do_async_transfer>
     a3c:	01000284 	movi	r4,10
     a40:	001632c0 	call	1632c <putchar>
     a44:	01000834 	movhi	r4,32
     a48:	21019e04 	addi	r4,r4,1656
     a4c:	00163cc0 	call	163cc <puts>
     a50:	e037883a 	mov	sp,fp
     a54:	dfc00117 	ldw	ra,4(sp)
     a58:	df000017 	ldw	fp,0(sp)
     a5c:	dec00204 	addi	sp,sp,8
     a60:	f800283a 	ret

00000a64 <rx_ethernet_isr1>:
     a64:	defffb04 	addi	sp,sp,-20
     a68:	dfc00415 	stw	ra,16(sp)
     a6c:	df000315 	stw	fp,12(sp)
     a70:	df000304 	addi	fp,sp,12
     a74:	e13fff15 	stw	r4,-4(fp)
     a78:	0001883a 	nop
     a7c:	01000134 	movhi	r4,4
     a80:	21081004 	addi	r4,r4,8256
     a84:	00260b80 	call	260b8 <alt_avalon_sgdma_check_descriptor_status>
     a88:	103ffc1e 	bne	r2,zero,a7c <rx_ethernet_isr1+0x18>
     a8c:	e03ffe15 	stw	zero,-8(fp)
     a90:	00000706 	br	ab0 <rx_ethernet_isr1+0x4c>
     a94:	01000834 	movhi	r4,32
     a98:	21019304 	addi	r4,r4,1612
     a9c:	01400204 	movi	r5,8
     aa0:	00250240 	call	25024 <alt_printf>
     aa4:	e0bffe17 	ldw	r2,-8(fp)
     aa8:	10800044 	addi	r2,r2,1
     aac:	e0bffe15 	stw	r2,-8(fp)
     ab0:	e0fffe17 	ldw	r3,-8(fp)
     ab4:	d0a03717 	ldw	r2,-32548(gp)
     ab8:	10800184 	addi	r2,r2,6
     abc:	18bff536 	bltu	r3,r2,a94 <rx_ethernet_isr1+0x30>
     ac0:	e03ffe15 	stw	zero,-8(fp)
     ac4:	00000d06 	br	afc <rx_ethernet_isr1+0x98>
     ac8:	00c00834 	movhi	r3,32
     acc:	18d9c204 	addi	r3,r3,26376
     ad0:	e0bffe17 	ldw	r2,-8(fp)
     ad4:	1885883a 	add	r2,r3,r2
     ad8:	10800003 	ldbu	r2,0(r2)
     adc:	10803fcc 	andi	r2,r2,255
     ae0:	01000834 	movhi	r4,32
     ae4:	21019304 	addi	r4,r4,1612
     ae8:	100b883a 	mov	r5,r2
     aec:	00250240 	call	25024 <alt_printf>
     af0:	e0bffe17 	ldw	r2,-8(fp)
     af4:	10800044 	addi	r2,r2,1
     af8:	e0bffe15 	stw	r2,-8(fp)
     afc:	00c00834 	movhi	r3,32
     b00:	18d9c204 	addi	r3,r3,26376
     b04:	e0bffe17 	ldw	r2,-8(fp)
     b08:	1885883a 	add	r2,r3,r2
     b0c:	10800003 	ldbu	r2,0(r2)
     b10:	10803fcc 	andi	r2,r2,255
     b14:	103fec1e 	bne	r2,zero,ac8 <rx_ethernet_isr1+0x64>
     b18:	d8000015 	stw	zero,0(sp)
     b1c:	01000134 	movhi	r4,4
     b20:	21081004 	addi	r4,r4,8256
     b24:	01400134 	movhi	r5,4
     b28:	29481804 	addi	r5,r5,8288
     b2c:	01800834 	movhi	r6,32
     b30:	3199c204 	addi	r6,r6,26376
     b34:	000f883a 	mov	r7,zero
     b38:	0025de80 	call	25de8 <alt_avalon_sgdma_construct_stream_to_mem_desc>
     b3c:	d0a04617 	ldw	r2,-32488(gp)
     b40:	1009883a 	mov	r4,r2
     b44:	01400134 	movhi	r5,4
     b48:	29481004 	addi	r5,r5,8256
     b4c:	0025ac40 	call	25ac4 <alt_avalon_sgdma_do_async_transfer>
     b50:	e037883a 	mov	sp,fp
     b54:	dfc00117 	ldw	ra,4(sp)
     b58:	df000017 	ldw	fp,0(sp)
     b5c:	dec00204 	addi	sp,sp,8
     b60:	f800283a 	ret

00000b64 <init_3des>:
     b64:	defffb04 	addi	sp,sp,-20
     b68:	df000415 	stw	fp,16(sp)
     b6c:	df000404 	addi	fp,sp,16
     b70:	e13ffc15 	stw	r4,-16(fp)
     b74:	e17ffd15 	stw	r5,-12(fp)
     b78:	e1bffe15 	stw	r6,-8(fp)
     b7c:	e1ffff15 	stw	r7,-4(fp)
     b80:	e0fffc17 	ldw	r3,-16(fp)
     b84:	00800134 	movhi	r2,4
     b88:	10962004 	addi	r2,r2,22656
     b8c:	10c00035 	stwio	r3,0(r2)
     b90:	e0fffd17 	ldw	r3,-12(fp)
     b94:	00800134 	movhi	r2,4
     b98:	10962104 	addi	r2,r2,22660
     b9c:	10c00035 	stwio	r3,0(r2)
     ba0:	e0fffe17 	ldw	r3,-8(fp)
     ba4:	00800134 	movhi	r2,4
     ba8:	10962204 	addi	r2,r2,22664
     bac:	10c00035 	stwio	r3,0(r2)
     bb0:	e0ffff17 	ldw	r3,-4(fp)
     bb4:	00800134 	movhi	r2,4
     bb8:	10962304 	addi	r2,r2,22668
     bbc:	10c00035 	stwio	r3,0(r2)
     bc0:	e0c00117 	ldw	r3,4(fp)
     bc4:	00800134 	movhi	r2,4
     bc8:	10962404 	addi	r2,r2,22672
     bcc:	10c00035 	stwio	r3,0(r2)
     bd0:	e0c00217 	ldw	r3,8(fp)
     bd4:	00800134 	movhi	r2,4
     bd8:	10962504 	addi	r2,r2,22676
     bdc:	10c00035 	stwio	r3,0(r2)
     be0:	e037883a 	mov	sp,fp
     be4:	df000017 	ldw	fp,0(sp)
     be8:	dec00104 	addi	sp,sp,4
     bec:	f800283a 	ret

00000bf0 <init_3desdecrypt>:
     bf0:	defffb04 	addi	sp,sp,-20
     bf4:	df000415 	stw	fp,16(sp)
     bf8:	df000404 	addi	fp,sp,16
     bfc:	e13ffc15 	stw	r4,-16(fp)
     c00:	e17ffd15 	stw	r5,-12(fp)
     c04:	e1bffe15 	stw	r6,-8(fp)
     c08:	e1ffff15 	stw	r7,-4(fp)
     c0c:	e0fffc17 	ldw	r3,-16(fp)
     c10:	00800134 	movhi	r2,4
     c14:	10960004 	addi	r2,r2,22528
     c18:	10c00035 	stwio	r3,0(r2)
     c1c:	e0fffd17 	ldw	r3,-12(fp)
     c20:	00800134 	movhi	r2,4
     c24:	10960104 	addi	r2,r2,22532
     c28:	10c00035 	stwio	r3,0(r2)
     c2c:	e0fffe17 	ldw	r3,-8(fp)
     c30:	00800134 	movhi	r2,4
     c34:	10960204 	addi	r2,r2,22536
     c38:	10c00035 	stwio	r3,0(r2)
     c3c:	e0ffff17 	ldw	r3,-4(fp)
     c40:	00800134 	movhi	r2,4
     c44:	10960304 	addi	r2,r2,22540
     c48:	10c00035 	stwio	r3,0(r2)
     c4c:	e0c00117 	ldw	r3,4(fp)
     c50:	00800134 	movhi	r2,4
     c54:	10960404 	addi	r2,r2,22544
     c58:	10c00035 	stwio	r3,0(r2)
     c5c:	e0c00217 	ldw	r3,8(fp)
     c60:	00800134 	movhi	r2,4
     c64:	10960504 	addi	r2,r2,22548
     c68:	10c00035 	stwio	r3,0(r2)
     c6c:	e037883a 	mov	sp,fp
     c70:	df000017 	ldw	fp,0(sp)
     c74:	dec00104 	addi	sp,sp,4
     c78:	f800283a 	ret

00000c7c <ciph_3des>:
     c7c:	defffd04 	addi	sp,sp,-12
     c80:	df000215 	stw	fp,8(sp)
     c84:	df000204 	addi	fp,sp,8
     c88:	e13ffe15 	stw	r4,-8(fp)
     c8c:	e17fff15 	stw	r5,-4(fp)
     c90:	e0fffe17 	ldw	r3,-8(fp)
     c94:	00800134 	movhi	r2,4
     c98:	10962604 	addi	r2,r2,22680
     c9c:	10c00035 	stwio	r3,0(r2)
     ca0:	e0ffff17 	ldw	r3,-4(fp)
     ca4:	00800134 	movhi	r2,4
     ca8:	10962704 	addi	r2,r2,22684
     cac:	10c00035 	stwio	r3,0(r2)
     cb0:	00ffffc4 	movi	r3,-1
     cb4:	00800134 	movhi	r2,4
     cb8:	10962904 	addi	r2,r2,22692
     cbc:	10c00035 	stwio	r3,0(r2)
     cc0:	0007883a 	mov	r3,zero
     cc4:	00800134 	movhi	r2,4
     cc8:	10962904 	addi	r2,r2,22692
     ccc:	10c00035 	stwio	r3,0(r2)
     cd0:	e037883a 	mov	sp,fp
     cd4:	df000017 	ldw	fp,0(sp)
     cd8:	dec00104 	addi	sp,sp,4
     cdc:	f800283a 	ret

00000ce0 <deciph_3des>:
     ce0:	defffd04 	addi	sp,sp,-12
     ce4:	df000215 	stw	fp,8(sp)
     ce8:	df000204 	addi	fp,sp,8
     cec:	e13ffe15 	stw	r4,-8(fp)
     cf0:	e17fff15 	stw	r5,-4(fp)
     cf4:	e0fffe17 	ldw	r3,-8(fp)
     cf8:	00800134 	movhi	r2,4
     cfc:	10960604 	addi	r2,r2,22552
     d00:	10c00035 	stwio	r3,0(r2)
     d04:	e0ffff17 	ldw	r3,-4(fp)
     d08:	00800134 	movhi	r2,4
     d0c:	10960704 	addi	r2,r2,22556
     d10:	10c00035 	stwio	r3,0(r2)
     d14:	00ffffc4 	movi	r3,-1
     d18:	00800134 	movhi	r2,4
     d1c:	10960904 	addi	r2,r2,22564
     d20:	10c00035 	stwio	r3,0(r2)
     d24:	0007883a 	mov	r3,zero
     d28:	00800134 	movhi	r2,4
     d2c:	10960904 	addi	r2,r2,22564
     d30:	10c00035 	stwio	r3,0(r2)
     d34:	e037883a 	mov	sp,fp
     d38:	df000017 	ldw	fp,0(sp)
     d3c:	dec00104 	addi	sp,sp,4
     d40:	f800283a 	ret

00000d44 <ciph_3des_read>:
     d44:	defffd04 	addi	sp,sp,-12
     d48:	df000215 	stw	fp,8(sp)
     d4c:	df000204 	addi	fp,sp,8
     d50:	e13ffe15 	stw	r4,-8(fp)
     d54:	e17fff15 	stw	r5,-4(fp)
     d58:	00800134 	movhi	r2,4
     d5c:	10963004 	addi	r2,r2,22720
     d60:	10800037 	ldwio	r2,0(r2)
     d64:	1007883a 	mov	r3,r2
     d68:	e0bffe17 	ldw	r2,-8(fp)
     d6c:	10c00015 	stw	r3,0(r2)
     d70:	00800134 	movhi	r2,4
     d74:	10963104 	addi	r2,r2,22724
     d78:	10800037 	ldwio	r2,0(r2)
     d7c:	1007883a 	mov	r3,r2
     d80:	e0bfff17 	ldw	r2,-4(fp)
     d84:	10c00015 	stw	r3,0(r2)
     d88:	e037883a 	mov	sp,fp
     d8c:	df000017 	ldw	fp,0(sp)
     d90:	dec00104 	addi	sp,sp,4
     d94:	f800283a 	ret

00000d98 <deciph_3des_read>:
     d98:	defffd04 	addi	sp,sp,-12
     d9c:	df000215 	stw	fp,8(sp)
     da0:	df000204 	addi	fp,sp,8
     da4:	e13ffe15 	stw	r4,-8(fp)
     da8:	e17fff15 	stw	r5,-4(fp)
     dac:	00800134 	movhi	r2,4
     db0:	10961004 	addi	r2,r2,22592
     db4:	10800037 	ldwio	r2,0(r2)
     db8:	1007883a 	mov	r3,r2
     dbc:	e0bffe17 	ldw	r2,-8(fp)
     dc0:	10c00015 	stw	r3,0(r2)
     dc4:	00800134 	movhi	r2,4
     dc8:	10961104 	addi	r2,r2,22596
     dcc:	10800037 	ldwio	r2,0(r2)
     dd0:	1007883a 	mov	r3,r2
     dd4:	e0bfff17 	ldw	r2,-4(fp)
     dd8:	10c00015 	stw	r3,0(r2)
     ddc:	e037883a 	mov	sp,fp
     de0:	df000017 	ldw	fp,0(sp)
     de4:	dec00104 	addi	sp,sp,4
     de8:	f800283a 	ret

00000dec <weryfikacja_szyfrowania>:
     dec:	defffb04 	addi	sp,sp,-20
     df0:	dfc00415 	stw	ra,16(sp)
     df4:	df000315 	stw	fp,12(sp)
     df8:	df000304 	addi	fp,sp,12
     dfc:	e03fff15 	stw	zero,-4(fp)
     e00:	00915a34 	movhi	r2,17768
     e04:	10a26ac4 	addi	r2,r2,-30293
     e08:	d8800015 	stw	r2,0(sp)
     e0c:	00b37bf4 	movhi	r2,52719
     e10:	108048c4 	addi	r2,r2,291
     e14:	d8800115 	stw	r2,4(sp)
     e18:	010048f4 	movhi	r4,291
     e1c:	211159c4 	addi	r4,r4,17767
     e20:	01626b34 	movhi	r5,35244
     e24:	29737bc4 	addi	r5,r5,-12817
     e28:	0188d174 	movhi	r6,9029
     e2c:	3199e244 	addi	r6,r6,26505
     e30:	01eaf3b4 	movhi	r7,43982
     e34:	39fbc044 	addi	r7,r7,-4351
     e38:	0000b640 	call	b64 <init_3des>
     e3c:	00915a34 	movhi	r2,17768
     e40:	10a26ac4 	addi	r2,r2,-30293
     e44:	d8800015 	stw	r2,0(sp)
     e48:	00b37bf4 	movhi	r2,52719
     e4c:	108048c4 	addi	r2,r2,291
     e50:	d8800115 	stw	r2,4(sp)
     e54:	010048f4 	movhi	r4,291
     e58:	211159c4 	addi	r4,r4,17767
     e5c:	01626b34 	movhi	r5,35244
     e60:	29737bc4 	addi	r5,r5,-12817
     e64:	0188d174 	movhi	r6,9029
     e68:	3199e244 	addi	r6,r6,26505
     e6c:	01eaf3b4 	movhi	r7,43982
     e70:	39fbc044 	addi	r7,r7,-4351
     e74:	000205c0 	call	205c <init_3des_pot>
     e78:	01151a34 	movhi	r4,21608
     e7c:	21194804 	addi	r4,r4,25888
     e80:	015c5d74 	movhi	r5,29045
     e84:	295998c4 	addi	r5,r5,26211
     e88:	0000c7c0 	call	c7c <ciph_3des>
     e8c:	00800834 	movhi	r2,32
     e90:	109ac204 	addi	r2,r2,27400
     e94:	00c01504 	movi	r3,84
     e98:	10c00005 	stb	r3,0(r2)
     e9c:	00800834 	movhi	r2,32
     ea0:	109ac204 	addi	r2,r2,27400
     ea4:	00c01a04 	movi	r3,104
     ea8:	10c00045 	stb	r3,1(r2)
     eac:	00800834 	movhi	r2,32
     eb0:	109ac204 	addi	r2,r2,27400
     eb4:	00c01944 	movi	r3,101
     eb8:	10c00085 	stb	r3,2(r2)
     ebc:	00800834 	movhi	r2,32
     ec0:	109ac204 	addi	r2,r2,27400
     ec4:	00c00804 	movi	r3,32
     ec8:	10c000c5 	stb	r3,3(r2)
     ecc:	00800834 	movhi	r2,32
     ed0:	109ac204 	addi	r2,r2,27400
     ed4:	00c01c44 	movi	r3,113
     ed8:	10c00105 	stb	r3,4(r2)
     edc:	00800834 	movhi	r2,32
     ee0:	109ac204 	addi	r2,r2,27400
     ee4:	00c01d44 	movi	r3,117
     ee8:	10c00145 	stb	r3,5(r2)
     eec:	00800834 	movhi	r2,32
     ef0:	109ac204 	addi	r2,r2,27400
     ef4:	00c01984 	movi	r3,102
     ef8:	10c00185 	stb	r3,6(r2)
     efc:	00800834 	movhi	r2,32
     f00:	109ac204 	addi	r2,r2,27400
     f04:	00c018c4 	movi	r3,99
     f08:	10c001c5 	stb	r3,7(r2)
     f0c:	00800834 	movhi	r2,32
     f10:	109ac204 	addi	r2,r2,27400
     f14:	00c01ac4 	movi	r3,107
     f18:	10c00205 	stb	r3,8(r2)
     f1c:	00800834 	movhi	r2,32
     f20:	109ac204 	addi	r2,r2,27400
     f24:	00c00804 	movi	r3,32
     f28:	10c00245 	stb	r3,9(r2)
     f2c:	00800834 	movhi	r2,32
     f30:	109ac204 	addi	r2,r2,27400
     f34:	00c01884 	movi	r3,98
     f38:	10c00285 	stb	r3,10(r2)
     f3c:	00800834 	movhi	r2,32
     f40:	109ac204 	addi	r2,r2,27400
     f44:	00c01c84 	movi	r3,114
     f48:	10c002c5 	stb	r3,11(r2)
     f4c:	00800834 	movhi	r2,32
     f50:	109ac204 	addi	r2,r2,27400
     f54:	00c01bc4 	movi	r3,111
     f58:	10c00305 	stb	r3,12(r2)
     f5c:	00800834 	movhi	r2,32
     f60:	109ac204 	addi	r2,r2,27400
     f64:	00c01dc4 	movi	r3,119
     f68:	10c00345 	stb	r3,13(r2)
     f6c:	00800834 	movhi	r2,32
     f70:	109ac204 	addi	r2,r2,27400
     f74:	00c01b84 	movi	r3,110
     f78:	10c00385 	stb	r3,14(r2)
     f7c:	00800834 	movhi	r2,32
     f80:	109ac204 	addi	r2,r2,27400
     f84:	00c00804 	movi	r3,32
     f88:	10c003c5 	stb	r3,15(r2)
     f8c:	00800834 	movhi	r2,32
     f90:	109ac204 	addi	r2,r2,27400
     f94:	00c01984 	movi	r3,102
     f98:	10c00405 	stb	r3,16(r2)
     f9c:	00800834 	movhi	r2,32
     fa0:	109ac204 	addi	r2,r2,27400
     fa4:	00c01bc4 	movi	r3,111
     fa8:	10c00445 	stb	r3,17(r2)
     fac:	00800834 	movhi	r2,32
     fb0:	109ac204 	addi	r2,r2,27400
     fb4:	00c01e04 	movi	r3,120
     fb8:	10c00485 	stb	r3,18(r2)
     fbc:	00800834 	movhi	r2,32
     fc0:	109ac204 	addi	r2,r2,27400
     fc4:	00c00804 	movi	r3,32
     fc8:	10c004c5 	stb	r3,19(r2)
     fcc:	00800834 	movhi	r2,32
     fd0:	109ac204 	addi	r2,r2,27400
     fd4:	00c01a84 	movi	r3,106
     fd8:	10c00505 	stb	r3,20(r2)
     fdc:	00800834 	movhi	r2,32
     fe0:	109ac204 	addi	r2,r2,27400
     fe4:	00c01d44 	movi	r3,117
     fe8:	10c00545 	stb	r3,21(r2)
     fec:	00800834 	movhi	r2,32
     ff0:	109ac204 	addi	r2,r2,27400
     ff4:	00c01b44 	movi	r3,109
     ff8:	10c00585 	stb	r3,22(r2)
     ffc:	00800834 	movhi	r2,32
    1000:	109ac204 	addi	r2,r2,27400
    1004:	00c01c04 	movi	r3,112
    1008:	10c005c5 	stb	r3,23(r2)
    100c:	00800834 	movhi	r2,32
    1010:	109ac204 	addi	r2,r2,27400
    1014:	00c01504 	movi	r3,84
    1018:	10c00605 	stb	r3,24(r2)
    101c:	00800834 	movhi	r2,32
    1020:	109ac204 	addi	r2,r2,27400
    1024:	00c01a04 	movi	r3,104
    1028:	10c00645 	stb	r3,25(r2)
    102c:	00800834 	movhi	r2,32
    1030:	109ac204 	addi	r2,r2,27400
    1034:	00c01944 	movi	r3,101
    1038:	10c00685 	stb	r3,26(r2)
    103c:	00800834 	movhi	r2,32
    1040:	109ac204 	addi	r2,r2,27400
    1044:	00c00804 	movi	r3,32
    1048:	10c006c5 	stb	r3,27(r2)
    104c:	00800834 	movhi	r2,32
    1050:	109ac204 	addi	r2,r2,27400
    1054:	00c01c44 	movi	r3,113
    1058:	10c00705 	stb	r3,28(r2)
    105c:	00800834 	movhi	r2,32
    1060:	109ac204 	addi	r2,r2,27400
    1064:	00c01d44 	movi	r3,117
    1068:	10c00745 	stb	r3,29(r2)
    106c:	00800834 	movhi	r2,32
    1070:	109ac204 	addi	r2,r2,27400
    1074:	00c01984 	movi	r3,102
    1078:	10c00785 	stb	r3,30(r2)
    107c:	00800834 	movhi	r2,32
    1080:	109ac204 	addi	r2,r2,27400
    1084:	00c018c4 	movi	r3,99
    1088:	10c007c5 	stb	r3,31(r2)
    108c:	00800834 	movhi	r2,32
    1090:	109ac204 	addi	r2,r2,27400
    1094:	00c01ac4 	movi	r3,107
    1098:	10c00805 	stb	r3,32(r2)
    109c:	00800834 	movhi	r2,32
    10a0:	109ac204 	addi	r2,r2,27400
    10a4:	00c00804 	movi	r3,32
    10a8:	10c00845 	stb	r3,33(r2)
    10ac:	00800834 	movhi	r2,32
    10b0:	109ac204 	addi	r2,r2,27400
    10b4:	00c01884 	movi	r3,98
    10b8:	10c00885 	stb	r3,34(r2)
    10bc:	00800834 	movhi	r2,32
    10c0:	109ac204 	addi	r2,r2,27400
    10c4:	00c01c84 	movi	r3,114
    10c8:	10c008c5 	stb	r3,35(r2)
    10cc:	00800834 	movhi	r2,32
    10d0:	109ac204 	addi	r2,r2,27400
    10d4:	00c01bc4 	movi	r3,111
    10d8:	10c00905 	stb	r3,36(r2)
    10dc:	00800834 	movhi	r2,32
    10e0:	109ac204 	addi	r2,r2,27400
    10e4:	00c01dc4 	movi	r3,119
    10e8:	10c00945 	stb	r3,37(r2)
    10ec:	00800834 	movhi	r2,32
    10f0:	109ac204 	addi	r2,r2,27400
    10f4:	00c01b84 	movi	r3,110
    10f8:	10c00985 	stb	r3,38(r2)
    10fc:	00800834 	movhi	r2,32
    1100:	109ac204 	addi	r2,r2,27400
    1104:	00c00804 	movi	r3,32
    1108:	10c009c5 	stb	r3,39(r2)
    110c:	01000834 	movhi	r4,32
    1110:	2101a404 	addi	r4,r4,1680
    1114:	00163cc0 	call	163cc <puts>
    1118:	d1203204 	addi	r4,gp,-32568
    111c:	d1603304 	addi	r5,gp,-32564
    1120:	0000d440 	call	d44 <ciph_3des_read>
    1124:	d0e03217 	ldw	r3,-32568(gp)
    1128:	d0a03317 	ldw	r2,-32564(gp)
    112c:	01000834 	movhi	r4,32
    1130:	2101b204 	addi	r4,r4,1736
    1134:	180b883a 	mov	r5,r3
    1138:	100d883a 	mov	r6,r2
    113c:	00162e80 	call	162e8 <printf>
    1140:	01000834 	movhi	r4,32
    1144:	2101ba04 	addi	r4,r4,1768
    1148:	00163cc0 	call	163cc <puts>
    114c:	e03fff15 	stw	zero,-4(fp)
    1150:	01000834 	movhi	r4,32
    1154:	211ac204 	addi	r4,r4,27400
    1158:	01400834 	movhi	r5,32
    115c:	295bc204 	addi	r5,r5,28424
    1160:	01800a04 	movi	r6,40
    1164:	00022780 	call	2278 <ciph_3des_pot>
    1168:	01000834 	movhi	r4,32
    116c:	2101e104 	addi	r4,r4,1924
    1170:	00163cc0 	call	163cc <puts>
    1174:	00003c06 	br	1268 <weryfikacja_szyfrowania+0x47c>
    1178:	00c00834 	movhi	r3,32
    117c:	18dbc204 	addi	r3,r3,28424
    1180:	e0bfff17 	ldw	r2,-4(fp)
    1184:	1885883a 	add	r2,r3,r2
    1188:	10800003 	ldbu	r2,0(r2)
    118c:	10803fcc 	andi	r2,r2,255
    1190:	10800430 	cmpltui	r2,r2,16
    1194:	1000191e 	bne	r2,zero,11fc <weryfikacja_szyfrowania+0x410>
    1198:	e0bfff17 	ldw	r2,-4(fp)
    119c:	108001cc 	andi	r2,r2,7
    11a0:	10000b1e 	bne	r2,zero,11d0 <weryfikacja_szyfrowania+0x3e4>
    11a4:	00c00834 	movhi	r3,32
    11a8:	18dbc204 	addi	r3,r3,28424
    11ac:	e0bfff17 	ldw	r2,-4(fp)
    11b0:	1885883a 	add	r2,r3,r2
    11b4:	10800003 	ldbu	r2,0(r2)
    11b8:	10803fcc 	andi	r2,r2,255
    11bc:	01000834 	movhi	r4,32
    11c0:	2101ea04 	addi	r4,r4,1960
    11c4:	100b883a 	mov	r5,r2
    11c8:	00162e80 	call	162e8 <printf>
    11cc:	00002306 	br	125c <weryfikacja_szyfrowania+0x470>
    11d0:	00c00834 	movhi	r3,32
    11d4:	18dbc204 	addi	r3,r3,28424
    11d8:	e0bfff17 	ldw	r2,-4(fp)
    11dc:	1885883a 	add	r2,r3,r2
    11e0:	10800003 	ldbu	r2,0(r2)
    11e4:	10803fcc 	andi	r2,r2,255
    11e8:	01000834 	movhi	r4,32
    11ec:	2101ec04 	addi	r4,r4,1968
    11f0:	100b883a 	mov	r5,r2
    11f4:	00162e80 	call	162e8 <printf>
    11f8:	00001806 	br	125c <weryfikacja_szyfrowania+0x470>
    11fc:	e0bfff17 	ldw	r2,-4(fp)
    1200:	108001cc 	andi	r2,r2,7
    1204:	10000b1e 	bne	r2,zero,1234 <weryfikacja_szyfrowania+0x448>
    1208:	00c00834 	movhi	r3,32
    120c:	18dbc204 	addi	r3,r3,28424
    1210:	e0bfff17 	ldw	r2,-4(fp)
    1214:	1885883a 	add	r2,r3,r2
    1218:	10800003 	ldbu	r2,0(r2)
    121c:	10803fcc 	andi	r2,r2,255
    1220:	01000834 	movhi	r4,32
    1224:	2101ed04 	addi	r4,r4,1972
    1228:	100b883a 	mov	r5,r2
    122c:	00162e80 	call	162e8 <printf>
    1230:	00000a06 	br	125c <weryfikacja_szyfrowania+0x470>
    1234:	00c00834 	movhi	r3,32
    1238:	18dbc204 	addi	r3,r3,28424
    123c:	e0bfff17 	ldw	r2,-4(fp)
    1240:	1885883a 	add	r2,r3,r2
    1244:	10800003 	ldbu	r2,0(r2)
    1248:	10803fcc 	andi	r2,r2,255
    124c:	01000834 	movhi	r4,32
    1250:	2101ef04 	addi	r4,r4,1980
    1254:	100b883a 	mov	r5,r2
    1258:	00162e80 	call	162e8 <printf>
    125c:	e0bfff17 	ldw	r2,-4(fp)
    1260:	10800044 	addi	r2,r2,1
    1264:	e0bfff15 	stw	r2,-4(fp)
    1268:	e0bfff17 	ldw	r2,-4(fp)
    126c:	10800a10 	cmplti	r2,r2,40
    1270:	103fc11e 	bne	r2,zero,1178 <weryfikacja_szyfrowania+0x38c>
    1274:	01000284 	movi	r4,10
    1278:	001632c0 	call	1632c <putchar>
    127c:	e037883a 	mov	sp,fp
    1280:	dfc00117 	ldw	ra,4(sp)
    1284:	df000017 	ldw	fp,0(sp)
    1288:	dec00204 	addi	sp,sp,8
    128c:	f800283a 	ret

00001290 <weryfikacja_deszyfrowania>:
    1290:	defff904 	addi	sp,sp,-28
    1294:	dfc00615 	stw	ra,24(sp)
    1298:	df000515 	stw	fp,20(sp)
    129c:	df000504 	addi	fp,sp,20
    12a0:	00915a34 	movhi	r2,17768
    12a4:	10a26ac4 	addi	r2,r2,-30293
    12a8:	d8800015 	stw	r2,0(sp)
    12ac:	00b37bf4 	movhi	r2,52719
    12b0:	108048c4 	addi	r2,r2,291
    12b4:	d8800115 	stw	r2,4(sp)
    12b8:	010048f4 	movhi	r4,291
    12bc:	211159c4 	addi	r4,r4,17767
    12c0:	01626b34 	movhi	r5,35244
    12c4:	29737bc4 	addi	r5,r5,-12817
    12c8:	0188d174 	movhi	r6,9029
    12cc:	3199e244 	addi	r6,r6,26505
    12d0:	01eaf3b4 	movhi	r7,43982
    12d4:	39fbc044 	addi	r7,r7,-4351
    12d8:	0000bf00 	call	bf0 <init_3desdecrypt>
    12dc:	008048f4 	movhi	r2,291
    12e0:	109159c4 	addi	r2,r2,17767
    12e4:	d8800015 	stw	r2,0(sp)
    12e8:	00a26b34 	movhi	r2,35244
    12ec:	10b37bc4 	addi	r2,r2,-12817
    12f0:	d8800115 	stw	r2,4(sp)
    12f4:	01115a34 	movhi	r4,17768
    12f8:	21226ac4 	addi	r4,r4,-30293
    12fc:	01737bf4 	movhi	r5,52719
    1300:	294048c4 	addi	r5,r5,291
    1304:	0188d174 	movhi	r6,9029
    1308:	3199e244 	addi	r6,r6,26505
    130c:	01eaf3b4 	movhi	r7,43982
    1310:	39fbc044 	addi	r7,r7,-4351
    1314:	000218c0 	call	218c <init_3des_decrypt_pot>
    1318:	d0e03217 	ldw	r3,-32568(gp)
    131c:	d0a03317 	ldw	r2,-32564(gp)
    1320:	1809883a 	mov	r4,r3
    1324:	100b883a 	mov	r5,r2
    1328:	0000ce00 	call	ce0 <deciph_3des>
    132c:	01000834 	movhi	r4,32
    1330:	2101f004 	addi	r4,r4,1984
    1334:	00163cc0 	call	163cc <puts>
    1338:	e0fffe04 	addi	r3,fp,-8
    133c:	e0bfff04 	addi	r2,fp,-4
    1340:	1809883a 	mov	r4,r3
    1344:	100b883a 	mov	r5,r2
    1348:	0000d980 	call	d98 <deciph_3des_read>
    134c:	e0fffe17 	ldw	r3,-8(fp)
    1350:	e0bfff17 	ldw	r2,-4(fp)
    1354:	01000834 	movhi	r4,32
    1358:	2101ff04 	addi	r4,r4,2044
    135c:	180b883a 	mov	r5,r3
    1360:	100d883a 	mov	r6,r2
    1364:	00162e80 	call	162e8 <printf>
    1368:	00800834 	movhi	r2,32
    136c:	109cc204 	addi	r2,r2,29448
    1370:	00ffea04 	movi	r3,-88
    1374:	10c00005 	stb	r3,0(r2)
    1378:	00800834 	movhi	r2,32
    137c:	109cc204 	addi	r2,r2,29448
    1380:	00c00984 	movi	r3,38
    1384:	10c00045 	stb	r3,1(r2)
    1388:	00800834 	movhi	r2,32
    138c:	109cc204 	addi	r2,r2,29448
    1390:	00ffff44 	movi	r3,-3
    1394:	10c00085 	stb	r3,2(r2)
    1398:	00800834 	movhi	r2,32
    139c:	109cc204 	addi	r2,r2,29448
    13a0:	00ffe304 	movi	r3,-116
    13a4:	10c000c5 	stb	r3,3(r2)
    13a8:	00800834 	movhi	r2,32
    13ac:	109cc204 	addi	r2,r2,29448
    13b0:	00fff944 	movi	r3,-27
    13b4:	10c00105 	stb	r3,4(r2)
    13b8:	00800834 	movhi	r2,32
    13bc:	109cc204 	addi	r2,r2,29448
    13c0:	00c00ec4 	movi	r3,59
    13c4:	10c00145 	stb	r3,5(r2)
    13c8:	00800834 	movhi	r2,32
    13cc:	109cc204 	addi	r2,r2,29448
    13d0:	00ffe144 	movi	r3,-123
    13d4:	10c00185 	stb	r3,6(r2)
    13d8:	00800834 	movhi	r2,32
    13dc:	109cc204 	addi	r2,r2,29448
    13e0:	00c017c4 	movi	r3,95
    13e4:	10c001c5 	stb	r3,7(r2)
    13e8:	00800834 	movhi	r2,32
    13ec:	109cc204 	addi	r2,r2,29448
    13f0:	00fff304 	movi	r3,-52
    13f4:	10c00205 	stb	r3,8(r2)
    13f8:	00800834 	movhi	r2,32
    13fc:	109cc204 	addi	r2,r2,29448
    1400:	00fff884 	movi	r3,-30
    1404:	10c00245 	stb	r3,9(r2)
    1408:	00800834 	movhi	r2,32
    140c:	109cc204 	addi	r2,r2,29448
    1410:	00c00704 	movi	r3,28
    1414:	10c00285 	stb	r3,10(r2)
    1418:	00800834 	movhi	r2,32
    141c:	109cc204 	addi	r2,r2,29448
    1420:	00ffe044 	movi	r3,-127
    1424:	10c002c5 	stb	r3,11(r2)
    1428:	00800834 	movhi	r2,32
    142c:	109cc204 	addi	r2,r2,29448
    1430:	00c00484 	movi	r3,18
    1434:	10c00305 	stb	r3,12(r2)
    1438:	00800834 	movhi	r2,32
    143c:	109cc204 	addi	r2,r2,29448
    1440:	00c00944 	movi	r3,37
    1444:	10c00345 	stb	r3,13(r2)
    1448:	00800834 	movhi	r2,32
    144c:	109cc204 	addi	r2,r2,29448
    1450:	00c01bc4 	movi	r3,111
    1454:	10c00385 	stb	r3,14(r2)
    1458:	00800834 	movhi	r2,32
    145c:	109cc204 	addi	r2,r2,29448
    1460:	00fff984 	movi	r3,-26
    1464:	10c003c5 	stb	r3,15(r2)
    1468:	00800834 	movhi	r2,32
    146c:	109cc204 	addi	r2,r2,29448
    1470:	00c01a04 	movi	r3,104
    1474:	10c00405 	stb	r3,16(r2)
    1478:	00800834 	movhi	r2,32
    147c:	109cc204 	addi	r2,r2,29448
    1480:	00fff544 	movi	r3,-43
    1484:	10c00445 	stb	r3,17(r2)
    1488:	00800834 	movhi	r2,32
    148c:	109cc204 	addi	r2,r2,29448
    1490:	00fff004 	movi	r3,-64
    1494:	10c00485 	stb	r3,18(r2)
    1498:	00800834 	movhi	r2,32
    149c:	109cc204 	addi	r2,r2,29448
    14a0:	00c01744 	movi	r3,93
    14a4:	10c004c5 	stb	r3,19(r2)
    14a8:	00800834 	movhi	r2,32
    14ac:	109cc204 	addi	r2,r2,29448
    14b0:	00fff644 	movi	r3,-39
    14b4:	10c00505 	stb	r3,20(r2)
    14b8:	00800834 	movhi	r2,32
    14bc:	109cc204 	addi	r2,r2,29448
    14c0:	00ffed84 	movi	r3,-74
    14c4:	10c00545 	stb	r3,21(r2)
    14c8:	00800834 	movhi	r2,32
    14cc:	109cc204 	addi	r2,r2,29448
    14d0:	00ffee44 	movi	r3,-71
    14d4:	10c00585 	stb	r3,22(r2)
    14d8:	00800834 	movhi	r2,32
    14dc:	109cc204 	addi	r2,r2,29448
    14e0:	100005c5 	stb	zero,23(r2)
    14e4:	00800834 	movhi	r2,32
    14e8:	109cc204 	addi	r2,r2,29448
    14ec:	00c01a04 	movi	r3,104
    14f0:	10c00605 	stb	r3,24(r2)
    14f4:	00800834 	movhi	r2,32
    14f8:	109cc204 	addi	r2,r2,29448
    14fc:	00fff544 	movi	r3,-43
    1500:	10c00645 	stb	r3,25(r2)
    1504:	00800834 	movhi	r2,32
    1508:	109cc204 	addi	r2,r2,29448
    150c:	00fff004 	movi	r3,-64
    1510:	10c00685 	stb	r3,26(r2)
    1514:	00800834 	movhi	r2,32
    1518:	109cc204 	addi	r2,r2,29448
    151c:	00c01744 	movi	r3,93
    1520:	10c006c5 	stb	r3,27(r2)
    1524:	00800834 	movhi	r2,32
    1528:	109cc204 	addi	r2,r2,29448
    152c:	00fff644 	movi	r3,-39
    1530:	10c00705 	stb	r3,28(r2)
    1534:	00800834 	movhi	r2,32
    1538:	109cc204 	addi	r2,r2,29448
    153c:	00ffed84 	movi	r3,-74
    1540:	10c00745 	stb	r3,29(r2)
    1544:	00800834 	movhi	r2,32
    1548:	109cc204 	addi	r2,r2,29448
    154c:	00ffee44 	movi	r3,-71
    1550:	10c00785 	stb	r3,30(r2)
    1554:	00800834 	movhi	r2,32
    1558:	109cc204 	addi	r2,r2,29448
    155c:	100007c5 	stb	zero,31(r2)
    1560:	00800834 	movhi	r2,32
    1564:	109cc204 	addi	r2,r2,29448
    1568:	00ffea04 	movi	r3,-88
    156c:	10c00805 	stb	r3,32(r2)
    1570:	00800834 	movhi	r2,32
    1574:	109cc204 	addi	r2,r2,29448
    1578:	00c00984 	movi	r3,38
    157c:	10c00845 	stb	r3,33(r2)
    1580:	00800834 	movhi	r2,32
    1584:	109cc204 	addi	r2,r2,29448
    1588:	00ffff44 	movi	r3,-3
    158c:	10c00885 	stb	r3,34(r2)
    1590:	00800834 	movhi	r2,32
    1594:	109cc204 	addi	r2,r2,29448
    1598:	00ffe304 	movi	r3,-116
    159c:	10c008c5 	stb	r3,35(r2)
    15a0:	00800834 	movhi	r2,32
    15a4:	109cc204 	addi	r2,r2,29448
    15a8:	00fff944 	movi	r3,-27
    15ac:	10c00905 	stb	r3,36(r2)
    15b0:	00800834 	movhi	r2,32
    15b4:	109cc204 	addi	r2,r2,29448
    15b8:	00c00ec4 	movi	r3,59
    15bc:	10c00945 	stb	r3,37(r2)
    15c0:	00800834 	movhi	r2,32
    15c4:	109cc204 	addi	r2,r2,29448
    15c8:	00ffe144 	movi	r3,-123
    15cc:	10c00985 	stb	r3,38(r2)
    15d0:	00800834 	movhi	r2,32
    15d4:	109cc204 	addi	r2,r2,29448
    15d8:	00c017c4 	movi	r3,95
    15dc:	10c009c5 	stb	r3,39(r2)
    15e0:	01000834 	movhi	r4,32
    15e4:	211cc204 	addi	r4,r4,29448
    15e8:	01400834 	movhi	r5,32
    15ec:	295dc204 	addi	r5,r5,30472
    15f0:	01800a04 	movi	r6,40
    15f4:	00023480 	call	2348 <deciph_3des_pot>
    15f8:	01000834 	movhi	r4,32
    15fc:	21020804 	addi	r4,r4,2080
    1600:	00163cc0 	call	163cc <puts>
    1604:	01000834 	movhi	r4,32
    1608:	21022f04 	addi	r4,r4,2236
    160c:	00162e80 	call	162e8 <printf>
    1610:	e03ffd15 	stw	zero,-12(fp)
    1614:	00003c06 	br	1708 <weryfikacja_deszyfrowania+0x478>
    1618:	00c00834 	movhi	r3,32
    161c:	18ddc204 	addi	r3,r3,30472
    1620:	e0bffd17 	ldw	r2,-12(fp)
    1624:	1885883a 	add	r2,r3,r2
    1628:	10800003 	ldbu	r2,0(r2)
    162c:	10803fcc 	andi	r2,r2,255
    1630:	10800430 	cmpltui	r2,r2,16
    1634:	1000191e 	bne	r2,zero,169c <weryfikacja_deszyfrowania+0x40c>
    1638:	e0bffd17 	ldw	r2,-12(fp)
    163c:	108001cc 	andi	r2,r2,7
    1640:	10000b1e 	bne	r2,zero,1670 <weryfikacja_deszyfrowania+0x3e0>
    1644:	00c00834 	movhi	r3,32
    1648:	18ddc204 	addi	r3,r3,30472
    164c:	e0bffd17 	ldw	r2,-12(fp)
    1650:	1885883a 	add	r2,r3,r2
    1654:	10800003 	ldbu	r2,0(r2)
    1658:	10803fcc 	andi	r2,r2,255
    165c:	01000834 	movhi	r4,32
    1660:	2101ea04 	addi	r4,r4,1960
    1664:	100b883a 	mov	r5,r2
    1668:	00162e80 	call	162e8 <printf>
    166c:	00002306 	br	16fc <weryfikacja_deszyfrowania+0x46c>
    1670:	00c00834 	movhi	r3,32
    1674:	18ddc204 	addi	r3,r3,30472
    1678:	e0bffd17 	ldw	r2,-12(fp)
    167c:	1885883a 	add	r2,r3,r2
    1680:	10800003 	ldbu	r2,0(r2)
    1684:	10803fcc 	andi	r2,r2,255
    1688:	01000834 	movhi	r4,32
    168c:	2101ec04 	addi	r4,r4,1968
    1690:	100b883a 	mov	r5,r2
    1694:	00162e80 	call	162e8 <printf>
    1698:	00001806 	br	16fc <weryfikacja_deszyfrowania+0x46c>
    169c:	e0bffd17 	ldw	r2,-12(fp)
    16a0:	108001cc 	andi	r2,r2,7
    16a4:	10000b1e 	bne	r2,zero,16d4 <weryfikacja_deszyfrowania+0x444>
    16a8:	00c00834 	movhi	r3,32
    16ac:	18ddc204 	addi	r3,r3,30472
    16b0:	e0bffd17 	ldw	r2,-12(fp)
    16b4:	1885883a 	add	r2,r3,r2
    16b8:	10800003 	ldbu	r2,0(r2)
    16bc:	10803fcc 	andi	r2,r2,255
    16c0:	01000834 	movhi	r4,32
    16c4:	2101ed04 	addi	r4,r4,1972
    16c8:	100b883a 	mov	r5,r2
    16cc:	00162e80 	call	162e8 <printf>
    16d0:	00000a06 	br	16fc <weryfikacja_deszyfrowania+0x46c>
    16d4:	00c00834 	movhi	r3,32
    16d8:	18ddc204 	addi	r3,r3,30472
    16dc:	e0bffd17 	ldw	r2,-12(fp)
    16e0:	1885883a 	add	r2,r3,r2
    16e4:	10800003 	ldbu	r2,0(r2)
    16e8:	10803fcc 	andi	r2,r2,255
    16ec:	01000834 	movhi	r4,32
    16f0:	2101ef04 	addi	r4,r4,1980
    16f4:	100b883a 	mov	r5,r2
    16f8:	00162e80 	call	162e8 <printf>
    16fc:	e0bffd17 	ldw	r2,-12(fp)
    1700:	10800044 	addi	r2,r2,1
    1704:	e0bffd15 	stw	r2,-12(fp)
    1708:	e0bffd17 	ldw	r2,-12(fp)
    170c:	10800a10 	cmplti	r2,r2,40
    1710:	103fc11e 	bne	r2,zero,1618 <weryfikacja_deszyfrowania+0x388>
    1714:	01000284 	movi	r4,10
    1718:	001632c0 	call	1632c <putchar>
    171c:	e037883a 	mov	sp,fp
    1720:	dfc00117 	ldw	ra,4(sp)
    1724:	df000017 	ldw	fp,0(sp)
    1728:	dec00204 	addi	sp,sp,8
    172c:	f800283a 	ret

00001730 <test_wydajnosc>:
    1730:	defffb04 	addi	sp,sp,-20
    1734:	dfc00415 	stw	ra,16(sp)
    1738:	df000315 	stw	fp,12(sp)
    173c:	df000304 	addi	fp,sp,12
    1740:	01000834 	movhi	r4,32
    1744:	21023904 	addi	r4,r4,2276
    1748:	00163cc0 	call	163cc <puts>
    174c:	00c00044 	movi	r3,1
    1750:	00800134 	movhi	r2,4
    1754:	1096c004 	addi	r2,r2,23296
    1758:	10c00035 	stwio	r3,0(r2)
    175c:	0007883a 	mov	r3,zero
    1760:	00800134 	movhi	r2,4
    1764:	1096c104 	addi	r2,r2,23300
    1768:	10c00035 	stwio	r3,0(r2)
    176c:	e03ffe15 	stw	zero,-8(fp)
    1770:	e03fff15 	stw	zero,-4(fp)
    1774:	0007883a 	mov	r3,zero
    1778:	00800134 	movhi	r2,4
    177c:	1096c904 	addi	r2,r2,23332
    1780:	10c00035 	stwio	r3,0(r2)
    1784:	00002f06 	br	1844 <test_wydajnosc+0x114>
    1788:	e0bffe17 	ldw	r2,-8(fp)
    178c:	1085883a 	add	r2,r2,r2
    1790:	00c00834 	movhi	r3,32
    1794:	18dec204 	addi	r3,r3,31496
    1798:	1085883a 	add	r2,r2,r2
    179c:	1085883a 	add	r2,r2,r2
    17a0:	1885883a 	add	r2,r3,r2
    17a4:	10c00017 	ldw	r3,0(r2)
    17a8:	e0bffe17 	ldw	r2,-8(fp)
    17ac:	1085883a 	add	r2,r2,r2
    17b0:	10800044 	addi	r2,r2,1
    17b4:	01000834 	movhi	r4,32
    17b8:	211ec204 	addi	r4,r4,31496
    17bc:	1085883a 	add	r2,r2,r2
    17c0:	1085883a 	add	r2,r2,r2
    17c4:	2085883a 	add	r2,r4,r2
    17c8:	10800017 	ldw	r2,0(r2)
    17cc:	1809883a 	mov	r4,r3
    17d0:	100b883a 	mov	r5,r2
    17d4:	0000ce00 	call	ce0 <deciph_3des>
    17d8:	e0bfff17 	ldw	r2,-4(fp)
    17dc:	10bfffc4 	addi	r2,r2,-1
    17e0:	e0bfff15 	stw	r2,-4(fp)
    17e4:	e0bfff17 	ldw	r2,-4(fp)
    17e8:	10800044 	addi	r2,r2,1
    17ec:	e0bfff15 	stw	r2,-4(fp)
    17f0:	e0bffe17 	ldw	r2,-8(fp)
    17f4:	1085883a 	add	r2,r2,r2
    17f8:	1085883a 	add	r2,r2,r2
    17fc:	1087883a 	add	r3,r2,r2
    1800:	00800874 	movhi	r2,33
    1804:	10a2c204 	addi	r2,r2,-29944
    1808:	1887883a 	add	r3,r3,r2
    180c:	e0bffe17 	ldw	r2,-8(fp)
    1810:	1085883a 	add	r2,r2,r2
    1814:	10800044 	addi	r2,r2,1
    1818:	1085883a 	add	r2,r2,r2
    181c:	1089883a 	add	r4,r2,r2
    1820:	00800874 	movhi	r2,33
    1824:	10a2c204 	addi	r2,r2,-29944
    1828:	2085883a 	add	r2,r4,r2
    182c:	1809883a 	mov	r4,r3
    1830:	100b883a 	mov	r5,r2
    1834:	0000d980 	call	d98 <deciph_3des_read>
    1838:	e0bffe17 	ldw	r2,-8(fp)
    183c:	10800044 	addi	r2,r2,1
    1840:	e0bffe15 	stw	r2,-8(fp)
    1844:	e0bffe17 	ldw	r2,-8(fp)
    1848:	10808010 	cmplti	r2,r2,512
    184c:	103fce1e 	bne	r2,zero,1788 <test_wydajnosc+0x58>
    1850:	0007883a 	mov	r3,zero
    1854:	00800134 	movhi	r2,4
    1858:	1096c804 	addi	r2,r2,23328
    185c:	10c00035 	stwio	r3,0(r2)
    1860:	e03ffe15 	stw	zero,-8(fp)
    1864:	0007883a 	mov	r3,zero
    1868:	00800134 	movhi	r2,4
    186c:	1096c504 	addi	r2,r2,23316
    1870:	10c00035 	stwio	r3,0(r2)
    1874:	00002f06 	br	1934 <test_wydajnosc+0x204>
    1878:	e0bffe17 	ldw	r2,-8(fp)
    187c:	1085883a 	add	r2,r2,r2
    1880:	00c00834 	movhi	r3,32
    1884:	18dec204 	addi	r3,r3,31496
    1888:	1085883a 	add	r2,r2,r2
    188c:	1085883a 	add	r2,r2,r2
    1890:	1885883a 	add	r2,r3,r2
    1894:	10c00017 	ldw	r3,0(r2)
    1898:	e0bffe17 	ldw	r2,-8(fp)
    189c:	1085883a 	add	r2,r2,r2
    18a0:	10800044 	addi	r2,r2,1
    18a4:	01000834 	movhi	r4,32
    18a8:	211ec204 	addi	r4,r4,31496
    18ac:	1085883a 	add	r2,r2,r2
    18b0:	1085883a 	add	r2,r2,r2
    18b4:	2085883a 	add	r2,r4,r2
    18b8:	10800017 	ldw	r2,0(r2)
    18bc:	1809883a 	mov	r4,r3
    18c0:	100b883a 	mov	r5,r2
    18c4:	0000c7c0 	call	c7c <ciph_3des>
    18c8:	e0bfff17 	ldw	r2,-4(fp)
    18cc:	10bfffc4 	addi	r2,r2,-1
    18d0:	e0bfff15 	stw	r2,-4(fp)
    18d4:	e0bfff17 	ldw	r2,-4(fp)
    18d8:	10800044 	addi	r2,r2,1
    18dc:	e0bfff15 	stw	r2,-4(fp)
    18e0:	e0bffe17 	ldw	r2,-8(fp)
    18e4:	1085883a 	add	r2,r2,r2
    18e8:	1085883a 	add	r2,r2,r2
    18ec:	1087883a 	add	r3,r2,r2
    18f0:	00800874 	movhi	r2,33
    18f4:	10a2c204 	addi	r2,r2,-29944
    18f8:	1887883a 	add	r3,r3,r2
    18fc:	e0bffe17 	ldw	r2,-8(fp)
    1900:	1085883a 	add	r2,r2,r2
    1904:	10800044 	addi	r2,r2,1
    1908:	1085883a 	add	r2,r2,r2
    190c:	1089883a 	add	r4,r2,r2
    1910:	00800874 	movhi	r2,33
    1914:	10a2c204 	addi	r2,r2,-29944
    1918:	2085883a 	add	r2,r4,r2
    191c:	1809883a 	mov	r4,r3
    1920:	100b883a 	mov	r5,r2
    1924:	0000d440 	call	d44 <ciph_3des_read>
    1928:	e0bffe17 	ldw	r2,-8(fp)
    192c:	10800044 	addi	r2,r2,1
    1930:	e0bffe15 	stw	r2,-8(fp)
    1934:	e0bffe17 	ldw	r2,-8(fp)
    1938:	10808010 	cmplti	r2,r2,512
    193c:	103fce1e 	bne	r2,zero,1878 <test_wydajnosc+0x148>
    1940:	0007883a 	mov	r3,zero
    1944:	00800134 	movhi	r2,4
    1948:	1096c004 	addi	r2,r2,23296
    194c:	10c00035 	stwio	r3,0(r2)
    1950:	00800834 	movhi	r2,32
    1954:	10824304 	addi	r2,r2,2316
    1958:	d8800015 	stw	r2,0(sp)
    195c:	01000134 	movhi	r4,4
    1960:	2116c004 	addi	r4,r4,23296
    1964:	01417db4 	movhi	r5,1526
    1968:	29784004 	addi	r5,r5,-7936
    196c:	01800084 	movi	r6,2
    1970:	01c00834 	movhi	r7,32
    1974:	39c23e04 	addi	r7,r7,2296
    1978:	002b71c0 	call	2b71c <perf_print_formatted_report>
    197c:	e037883a 	mov	sp,fp
    1980:	dfc00117 	ldw	ra,4(sp)
    1984:	df000017 	ldw	fp,0(sp)
    1988:	dec00204 	addi	sp,sp,8
    198c:	f800283a 	ret

00001990 <paczka_szyfrowanie>:
    1990:	defffd04 	addi	sp,sp,-12
    1994:	dfc00215 	stw	ra,8(sp)
    1998:	df000115 	stw	fp,4(sp)
    199c:	df000104 	addi	fp,sp,4
    19a0:	e03fff15 	stw	zero,-4(fp)
    19a4:	00002f06 	br	1a64 <paczka_szyfrowanie+0xd4>
    19a8:	e0bfff17 	ldw	r2,-4(fp)
    19ac:	1085883a 	add	r2,r2,r2
    19b0:	00c00834 	movhi	r3,32
    19b4:	18dec204 	addi	r3,r3,31496
    19b8:	1085883a 	add	r2,r2,r2
    19bc:	1085883a 	add	r2,r2,r2
    19c0:	1885883a 	add	r2,r3,r2
    19c4:	10c00017 	ldw	r3,0(r2)
    19c8:	e0bfff17 	ldw	r2,-4(fp)
    19cc:	1085883a 	add	r2,r2,r2
    19d0:	10800044 	addi	r2,r2,1
    19d4:	01000834 	movhi	r4,32
    19d8:	211ec204 	addi	r4,r4,31496
    19dc:	1085883a 	add	r2,r2,r2
    19e0:	1085883a 	add	r2,r2,r2
    19e4:	2085883a 	add	r2,r4,r2
    19e8:	10800017 	ldw	r2,0(r2)
    19ec:	1809883a 	mov	r4,r3
    19f0:	100b883a 	mov	r5,r2
    19f4:	0000c7c0 	call	c7c <ciph_3des>
    19f8:	e0bfff17 	ldw	r2,-4(fp)
    19fc:	10bfffc4 	addi	r2,r2,-1
    1a00:	e0bfff15 	stw	r2,-4(fp)
    1a04:	e0bfff17 	ldw	r2,-4(fp)
    1a08:	10800044 	addi	r2,r2,1
    1a0c:	e0bfff15 	stw	r2,-4(fp)
    1a10:	e0bfff17 	ldw	r2,-4(fp)
    1a14:	1085883a 	add	r2,r2,r2
    1a18:	1085883a 	add	r2,r2,r2
    1a1c:	1087883a 	add	r3,r2,r2
    1a20:	00800874 	movhi	r2,33
    1a24:	10a2c204 	addi	r2,r2,-29944
    1a28:	1887883a 	add	r3,r3,r2
    1a2c:	e0bfff17 	ldw	r2,-4(fp)
    1a30:	1085883a 	add	r2,r2,r2
    1a34:	10800044 	addi	r2,r2,1
    1a38:	1085883a 	add	r2,r2,r2
    1a3c:	1089883a 	add	r4,r2,r2
    1a40:	00800874 	movhi	r2,33
    1a44:	10a2c204 	addi	r2,r2,-29944
    1a48:	2085883a 	add	r2,r4,r2
    1a4c:	1809883a 	mov	r4,r3
    1a50:	100b883a 	mov	r5,r2
    1a54:	0000d440 	call	d44 <ciph_3des_read>
    1a58:	e0bfff17 	ldw	r2,-4(fp)
    1a5c:	10800044 	addi	r2,r2,1
    1a60:	e0bfff15 	stw	r2,-4(fp)
    1a64:	e0bfff17 	ldw	r2,-4(fp)
    1a68:	10808010 	cmplti	r2,r2,512
    1a6c:	103fce1e 	bne	r2,zero,19a8 <paczka_szyfrowanie+0x18>
    1a70:	e037883a 	mov	sp,fp
    1a74:	dfc00117 	ldw	ra,4(sp)
    1a78:	df000017 	ldw	fp,0(sp)
    1a7c:	dec00204 	addi	sp,sp,8
    1a80:	f800283a 	ret

00001a84 <paczka_deszyfrowanie>:
    1a84:	defffd04 	addi	sp,sp,-12
    1a88:	dfc00215 	stw	ra,8(sp)
    1a8c:	df000115 	stw	fp,4(sp)
    1a90:	df000104 	addi	fp,sp,4
    1a94:	e03fff15 	stw	zero,-4(fp)
    1a98:	00002f06 	br	1b58 <paczka_deszyfrowanie+0xd4>
    1a9c:	e0bfff17 	ldw	r2,-4(fp)
    1aa0:	1085883a 	add	r2,r2,r2
    1aa4:	00c00834 	movhi	r3,32
    1aa8:	18dec204 	addi	r3,r3,31496
    1aac:	1085883a 	add	r2,r2,r2
    1ab0:	1085883a 	add	r2,r2,r2
    1ab4:	1885883a 	add	r2,r3,r2
    1ab8:	10c00017 	ldw	r3,0(r2)
    1abc:	e0bfff17 	ldw	r2,-4(fp)
    1ac0:	1085883a 	add	r2,r2,r2
    1ac4:	10800044 	addi	r2,r2,1
    1ac8:	01000834 	movhi	r4,32
    1acc:	211ec204 	addi	r4,r4,31496
    1ad0:	1085883a 	add	r2,r2,r2
    1ad4:	1085883a 	add	r2,r2,r2
    1ad8:	2085883a 	add	r2,r4,r2
    1adc:	10800017 	ldw	r2,0(r2)
    1ae0:	1809883a 	mov	r4,r3
    1ae4:	100b883a 	mov	r5,r2
    1ae8:	0000ce00 	call	ce0 <deciph_3des>
    1aec:	e0bfff17 	ldw	r2,-4(fp)
    1af0:	10bfffc4 	addi	r2,r2,-1
    1af4:	e0bfff15 	stw	r2,-4(fp)
    1af8:	e0bfff17 	ldw	r2,-4(fp)
    1afc:	10800044 	addi	r2,r2,1
    1b00:	e0bfff15 	stw	r2,-4(fp)
    1b04:	e0bfff17 	ldw	r2,-4(fp)
    1b08:	1085883a 	add	r2,r2,r2
    1b0c:	1085883a 	add	r2,r2,r2
    1b10:	1087883a 	add	r3,r2,r2
    1b14:	00800874 	movhi	r2,33
    1b18:	10a2c204 	addi	r2,r2,-29944
    1b1c:	1887883a 	add	r3,r3,r2
    1b20:	e0bfff17 	ldw	r2,-4(fp)
    1b24:	1085883a 	add	r2,r2,r2
    1b28:	10800044 	addi	r2,r2,1
    1b2c:	1085883a 	add	r2,r2,r2
    1b30:	1089883a 	add	r4,r2,r2
    1b34:	00800874 	movhi	r2,33
    1b38:	10a2c204 	addi	r2,r2,-29944
    1b3c:	2085883a 	add	r2,r4,r2
    1b40:	1809883a 	mov	r4,r3
    1b44:	100b883a 	mov	r5,r2
    1b48:	0000d980 	call	d98 <deciph_3des_read>
    1b4c:	e0bfff17 	ldw	r2,-4(fp)
    1b50:	10800044 	addi	r2,r2,1
    1b54:	e0bfff15 	stw	r2,-4(fp)
    1b58:	e0bfff17 	ldw	r2,-4(fp)
    1b5c:	10808010 	cmplti	r2,r2,512
    1b60:	103fce1e 	bne	r2,zero,1a9c <paczka_deszyfrowanie+0x18>
    1b64:	e037883a 	mov	sp,fp
    1b68:	dfc00117 	ldw	ra,4(sp)
    1b6c:	df000017 	ldw	fp,0(sp)
    1b70:	dec00204 	addi	sp,sp,8
    1b74:	f800283a 	ret

00001b78 <przygotowanie_danych>:
    1b78:	defffb04 	addi	sp,sp,-20
    1b7c:	dfc00415 	stw	ra,16(sp)
    1b80:	df000315 	stw	fp,12(sp)
    1b84:	df000304 	addi	fp,sp,12
    1b88:	e03ffd15 	stw	zero,-12(fp)
    1b8c:	00800834 	movhi	r2,32
    1b90:	e0bffe15 	stw	r2,-8(fp)
    1b94:	e03fff15 	stw	zero,-4(fp)
    1b98:	e03fff15 	stw	zero,-4(fp)
    1b9c:	00006106 	br	1d24 <przygotowanie_danych+0x1ac>
    1ba0:	e0bfff17 	ldw	r2,-4(fp)
    1ba4:	1009883a 	mov	r4,r2
    1ba8:	01400184 	movi	r5,6
    1bac:	001607c0 	call	1607c <__modsi3>
    1bb0:	10000a1e 	bne	r2,zero,1bdc <przygotowanie_danych+0x64>
    1bb4:	00c00834 	movhi	r3,32
    1bb8:	18dec204 	addi	r3,r3,31496
    1bbc:	e0bfff17 	ldw	r2,-4(fp)
    1bc0:	1085883a 	add	r2,r2,r2
    1bc4:	1085883a 	add	r2,r2,r2
    1bc8:	1885883a 	add	r2,r3,r2
    1bcc:	00d51a34 	movhi	r3,21608
    1bd0:	18d94804 	addi	r3,r3,25888
    1bd4:	10c00015 	stw	r3,0(r2)
    1bd8:	00004f06 	br	1d18 <przygotowanie_danych+0x1a0>
    1bdc:	e0bfff17 	ldw	r2,-4(fp)
    1be0:	1009883a 	mov	r4,r2
    1be4:	01400184 	movi	r5,6
    1be8:	001607c0 	call	1607c <__modsi3>
    1bec:	10800058 	cmpnei	r2,r2,1
    1bf0:	10000a1e 	bne	r2,zero,1c1c <przygotowanie_danych+0xa4>
    1bf4:	00c00834 	movhi	r3,32
    1bf8:	18dec204 	addi	r3,r3,31496
    1bfc:	e0bfff17 	ldw	r2,-4(fp)
    1c00:	1085883a 	add	r2,r2,r2
    1c04:	1085883a 	add	r2,r2,r2
    1c08:	1885883a 	add	r2,r3,r2
    1c0c:	00dc5d74 	movhi	r3,29045
    1c10:	18d998c4 	addi	r3,r3,26211
    1c14:	10c00015 	stw	r3,0(r2)
    1c18:	00003f06 	br	1d18 <przygotowanie_danych+0x1a0>
    1c1c:	e0bfff17 	ldw	r2,-4(fp)
    1c20:	1009883a 	mov	r4,r2
    1c24:	01400184 	movi	r5,6
    1c28:	001607c0 	call	1607c <__modsi3>
    1c2c:	10800098 	cmpnei	r2,r2,2
    1c30:	10000a1e 	bne	r2,zero,1c5c <przygotowanie_danych+0xe4>
    1c34:	00c00834 	movhi	r3,32
    1c38:	18dec204 	addi	r3,r3,31496
    1c3c:	e0bfff17 	ldw	r2,-4(fp)
    1c40:	1085883a 	add	r2,r2,r2
    1c44:	1085883a 	add	r2,r2,r2
    1c48:	1885883a 	add	r2,r3,r2
    1c4c:	00dac834 	movhi	r3,27424
    1c50:	18d89c84 	addi	r3,r3,25202
    1c54:	10c00015 	stw	r3,0(r2)
    1c58:	00002f06 	br	1d18 <przygotowanie_danych+0x1a0>
    1c5c:	e0bfff17 	ldw	r2,-4(fp)
    1c60:	1009883a 	mov	r4,r2
    1c64:	01400184 	movi	r5,6
    1c68:	001607c0 	call	1607c <__modsi3>
    1c6c:	108000d8 	cmpnei	r2,r2,3
    1c70:	10000a1e 	bne	r2,zero,1c9c <przygotowanie_danych+0x124>
    1c74:	00c00834 	movhi	r3,32
    1c78:	18dec204 	addi	r3,r3,31496
    1c7c:	e0bfff17 	ldw	r2,-4(fp)
    1c80:	1085883a 	add	r2,r2,r2
    1c84:	1085883a 	add	r2,r2,r2
    1c88:	1885883a 	add	r2,r3,r2
    1c8c:	00dbddf4 	movhi	r3,28535
    1c90:	18db8804 	addi	r3,r3,28192
    1c94:	10c00015 	stw	r3,0(r2)
    1c98:	00001f06 	br	1d18 <przygotowanie_danych+0x1a0>
    1c9c:	e0bfff17 	ldw	r2,-4(fp)
    1ca0:	1009883a 	mov	r4,r2
    1ca4:	01400184 	movi	r5,6
    1ca8:	001607c0 	call	1607c <__modsi3>
    1cac:	10800118 	cmpnei	r2,r2,4
    1cb0:	10000a1e 	bne	r2,zero,1cdc <przygotowanie_danych+0x164>
    1cb4:	00c00834 	movhi	r3,32
    1cb8:	18dec204 	addi	r3,r3,31496
    1cbc:	e0bfff17 	ldw	r2,-4(fp)
    1cc0:	1085883a 	add	r2,r2,r2
    1cc4:	1085883a 	add	r2,r2,r2
    1cc8:	1885883a 	add	r2,r3,r2
    1ccc:	00d99bf4 	movhi	r3,26223
    1cd0:	18de0804 	addi	r3,r3,30752
    1cd4:	10c00015 	stw	r3,0(r2)
    1cd8:	00000f06 	br	1d18 <przygotowanie_danych+0x1a0>
    1cdc:	e0bfff17 	ldw	r2,-4(fp)
    1ce0:	1009883a 	mov	r4,r2
    1ce4:	01400184 	movi	r5,6
    1ce8:	001607c0 	call	1607c <__modsi3>
    1cec:	10800158 	cmpnei	r2,r2,5
    1cf0:	1000091e 	bne	r2,zero,1d18 <przygotowanie_danych+0x1a0>
    1cf4:	00c00834 	movhi	r3,32
    1cf8:	18dec204 	addi	r3,r3,31496
    1cfc:	e0bfff17 	ldw	r2,-4(fp)
    1d00:	1085883a 	add	r2,r2,r2
    1d04:	1085883a 	add	r2,r2,r2
    1d08:	1885883a 	add	r2,r3,r2
    1d0c:	00da9d74 	movhi	r3,27253
    1d10:	18db5c04 	addi	r3,r3,28016
    1d14:	10c00015 	stw	r3,0(r2)
    1d18:	e0bfff17 	ldw	r2,-4(fp)
    1d1c:	10800044 	addi	r2,r2,1
    1d20:	e0bfff15 	stw	r2,-4(fp)
    1d24:	e0bfff17 	ldw	r2,-4(fp)
    1d28:	10810010 	cmplti	r2,r2,1024
    1d2c:	103f9c1e 	bne	r2,zero,1ba0 <przygotowanie_danych+0x28>
    1d30:	00000606 	br	1d4c <przygotowanie_danych+0x1d4>
    1d34:	e0bffe17 	ldw	r2,-8(fp)
    1d38:	10840004 	addi	r2,r2,4096
    1d3c:	e0bffe15 	stw	r2,-8(fp)
    1d40:	e0bffd17 	ldw	r2,-12(fp)
    1d44:	10800044 	addi	r2,r2,1
    1d48:	e0bffd15 	stw	r2,-12(fp)
    1d4c:	e0bffd17 	ldw	r2,-12(fp)
    1d50:	10804010 	cmplti	r2,r2,256
    1d54:	103ff71e 	bne	r2,zero,1d34 <przygotowanie_danych+0x1bc>
    1d58:	e037883a 	mov	sp,fp
    1d5c:	dfc00117 	ldw	ra,4(sp)
    1d60:	df000017 	ldw	fp,0(sp)
    1d64:	dec00204 	addi	sp,sp,8
    1d68:	f800283a 	ret

00001d6c <przeprowadzenie_szyfrowania_sram>:
    1d6c:	defffb04 	addi	sp,sp,-20
    1d70:	dfc00415 	stw	ra,16(sp)
    1d74:	df000315 	stw	fp,12(sp)
    1d78:	df000304 	addi	fp,sp,12
    1d7c:	01000834 	movhi	r4,32
    1d80:	21024804 	addi	r4,r4,2336
    1d84:	00163cc0 	call	163cc <puts>
    1d88:	e03ffd15 	stw	zero,-12(fp)
    1d8c:	00800834 	movhi	r2,32
    1d90:	e0bffe15 	stw	r2,-8(fp)
    1d94:	e0fffe17 	ldw	r3,-8(fp)
    1d98:	00800434 	movhi	r2,16
    1d9c:	1885883a 	add	r2,r3,r2
    1da0:	e0bfff15 	stw	r2,-4(fp)
    1da4:	00000a06 	br	1dd0 <przeprowadzenie_szyfrowania_sram+0x64>
    1da8:	00019900 	call	1990 <paczka_szyfrowanie>
    1dac:	e0bffe17 	ldw	r2,-8(fp)
    1db0:	10840004 	addi	r2,r2,4096
    1db4:	e0bffe15 	stw	r2,-8(fp)
    1db8:	e0bfff17 	ldw	r2,-4(fp)
    1dbc:	10840004 	addi	r2,r2,4096
    1dc0:	e0bfff15 	stw	r2,-4(fp)
    1dc4:	e0bffd17 	ldw	r2,-12(fp)
    1dc8:	10800044 	addi	r2,r2,1
    1dcc:	e0bffd15 	stw	r2,-12(fp)
    1dd0:	e0bffd17 	ldw	r2,-12(fp)
    1dd4:	10804010 	cmplti	r2,r2,256
    1dd8:	103ff31e 	bne	r2,zero,1da8 <przeprowadzenie_szyfrowania_sram+0x3c>
    1ddc:	e037883a 	mov	sp,fp
    1de0:	dfc00117 	ldw	ra,4(sp)
    1de4:	df000017 	ldw	fp,0(sp)
    1de8:	dec00204 	addi	sp,sp,8
    1dec:	f800283a 	ret

00001df0 <przeprowadzenie_deszyfrowania_sram>:
    1df0:	defffb04 	addi	sp,sp,-20
    1df4:	dfc00415 	stw	ra,16(sp)
    1df8:	df000315 	stw	fp,12(sp)
    1dfc:	df000304 	addi	fp,sp,12
    1e00:	01000834 	movhi	r4,32
    1e04:	21025804 	addi	r4,r4,2400
    1e08:	00163cc0 	call	163cc <puts>
    1e0c:	e03ffd15 	stw	zero,-12(fp)
    1e10:	00800834 	movhi	r2,32
    1e14:	e0bffe15 	stw	r2,-8(fp)
    1e18:	e0fffe17 	ldw	r3,-8(fp)
    1e1c:	00800434 	movhi	r2,16
    1e20:	1885883a 	add	r2,r3,r2
    1e24:	e0bfff15 	stw	r2,-4(fp)
    1e28:	00000a06 	br	1e54 <przeprowadzenie_deszyfrowania_sram+0x64>
    1e2c:	0001a840 	call	1a84 <paczka_deszyfrowanie>
    1e30:	e0bffe17 	ldw	r2,-8(fp)
    1e34:	10840004 	addi	r2,r2,4096
    1e38:	e0bffe15 	stw	r2,-8(fp)
    1e3c:	e0bfff17 	ldw	r2,-4(fp)
    1e40:	10840004 	addi	r2,r2,4096
    1e44:	e0bfff15 	stw	r2,-4(fp)
    1e48:	e0bffd17 	ldw	r2,-12(fp)
    1e4c:	10800044 	addi	r2,r2,1
    1e50:	e0bffd15 	stw	r2,-12(fp)
    1e54:	e0bffd17 	ldw	r2,-12(fp)
    1e58:	10804010 	cmplti	r2,r2,256
    1e5c:	103ff31e 	bne	r2,zero,1e2c <przeprowadzenie_deszyfrowania_sram+0x3c>
    1e60:	e037883a 	mov	sp,fp
    1e64:	dfc00117 	ldw	ra,4(sp)
    1e68:	df000017 	ldw	fp,0(sp)
    1e6c:	dec00204 	addi	sp,sp,8
    1e70:	f800283a 	ret

00001e74 <test_wydajnosci_sram>:
    1e74:	defffd04 	addi	sp,sp,-12
    1e78:	dfc00215 	stw	ra,8(sp)
    1e7c:	df000115 	stw	fp,4(sp)
    1e80:	df000104 	addi	fp,sp,4
    1e84:	00c00044 	movi	r3,1
    1e88:	00800134 	movhi	r2,4
    1e8c:	1096c004 	addi	r2,r2,23296
    1e90:	10c00035 	stwio	r3,0(r2)
    1e94:	0007883a 	mov	r3,zero
    1e98:	00800134 	movhi	r2,4
    1e9c:	1096c104 	addi	r2,r2,23300
    1ea0:	10c00035 	stwio	r3,0(r2)
    1ea4:	0007883a 	mov	r3,zero
    1ea8:	00800134 	movhi	r2,4
    1eac:	1096c504 	addi	r2,r2,23316
    1eb0:	10c00035 	stwio	r3,0(r2)
    1eb4:	0001d6c0 	call	1d6c <przeprowadzenie_szyfrowania_sram>
    1eb8:	0007883a 	mov	r3,zero
    1ebc:	00800134 	movhi	r2,4
    1ec0:	1096c404 	addi	r2,r2,23312
    1ec4:	10c00035 	stwio	r3,0(r2)
    1ec8:	0007883a 	mov	r3,zero
    1ecc:	00800134 	movhi	r2,4
    1ed0:	1096c904 	addi	r2,r2,23332
    1ed4:	10c00035 	stwio	r3,0(r2)
    1ed8:	0001df00 	call	1df0 <przeprowadzenie_deszyfrowania_sram>
    1edc:	0007883a 	mov	r3,zero
    1ee0:	00800134 	movhi	r2,4
    1ee4:	1096c004 	addi	r2,r2,23296
    1ee8:	10c00035 	stwio	r3,0(r2)
    1eec:	00800834 	movhi	r2,32
    1ef0:	10826e04 	addi	r2,r2,2488
    1ef4:	d8800015 	stw	r2,0(sp)
    1ef8:	01000134 	movhi	r4,4
    1efc:	2116c004 	addi	r4,r4,23296
    1f00:	01417db4 	movhi	r5,1526
    1f04:	29784004 	addi	r5,r5,-7936
    1f08:	01800084 	movi	r6,2
    1f0c:	01c00834 	movhi	r7,32
    1f10:	39c26804 	addi	r7,r7,2464
    1f14:	002b71c0 	call	2b71c <perf_print_formatted_report>
    1f18:	e037883a 	mov	sp,fp
    1f1c:	dfc00117 	ldw	ra,4(sp)
    1f20:	df000017 	ldw	fp,0(sp)
    1f24:	dec00204 	addi	sp,sp,8
    1f28:	f800283a 	ret

00001f2c <wprowadzenie_kluczy>:
    1f2c:	defffc04 	addi	sp,sp,-16
    1f30:	dfc00315 	stw	ra,12(sp)
    1f34:	df000215 	stw	fp,8(sp)
    1f38:	df000204 	addi	fp,sp,8
    1f3c:	01000834 	movhi	r4,32
    1f40:	21027404 	addi	r4,r4,2512
    1f44:	00162e80 	call	162e8 <printf>
    1f48:	01000834 	movhi	r4,32
    1f4c:	21019d04 	addi	r4,r4,1652
    1f50:	d1600204 	addi	r5,gp,-32760
    1f54:	00163e00 	call	163e0 <scanf>
    1f58:	01000834 	movhi	r4,32
    1f5c:	21028604 	addi	r4,r4,2584
    1f60:	00162e80 	call	162e8 <printf>
    1f64:	01000834 	movhi	r4,32
    1f68:	21019d04 	addi	r4,r4,1652
    1f6c:	d1600304 	addi	r5,gp,-32756
    1f70:	00163e00 	call	163e0 <scanf>
    1f74:	01000834 	movhi	r4,32
    1f78:	21029704 	addi	r4,r4,2652
    1f7c:	00162e80 	call	162e8 <printf>
    1f80:	01000834 	movhi	r4,32
    1f84:	21019d04 	addi	r4,r4,1652
    1f88:	d1600404 	addi	r5,gp,-32752
    1f8c:	00163e00 	call	163e0 <scanf>
    1f90:	01000834 	movhi	r4,32
    1f94:	2102a904 	addi	r4,r4,2724
    1f98:	00162e80 	call	162e8 <printf>
    1f9c:	01000834 	movhi	r4,32
    1fa0:	21019d04 	addi	r4,r4,1652
    1fa4:	d1600504 	addi	r5,gp,-32748
    1fa8:	00163e00 	call	163e0 <scanf>
    1fac:	01000834 	movhi	r4,32
    1fb0:	2102ba04 	addi	r4,r4,2792
    1fb4:	00162e80 	call	162e8 <printf>
    1fb8:	01000834 	movhi	r4,32
    1fbc:	21019d04 	addi	r4,r4,1652
    1fc0:	d1600604 	addi	r5,gp,-32744
    1fc4:	00163e00 	call	163e0 <scanf>
    1fc8:	01000834 	movhi	r4,32
    1fcc:	2102c904 	addi	r4,r4,2852
    1fd0:	00162e80 	call	162e8 <printf>
    1fd4:	01000834 	movhi	r4,32
    1fd8:	21019d04 	addi	r4,r4,1652
    1fdc:	d1600704 	addi	r5,gp,-32740
    1fe0:	00163e00 	call	163e0 <scanf>
    1fe4:	d1200217 	ldw	r4,-32760(gp)
    1fe8:	d1600317 	ldw	r5,-32756(gp)
    1fec:	d0e00417 	ldw	r3,-32752(gp)
    1ff0:	d0a00517 	ldw	r2,-32748(gp)
    1ff4:	d1e00617 	ldw	r7,-32744(gp)
    1ff8:	d1a00717 	ldw	r6,-32740(gp)
    1ffc:	d9c00015 	stw	r7,0(sp)
    2000:	d9800115 	stw	r6,4(sp)
    2004:	180d883a 	mov	r6,r3
    2008:	100f883a 	mov	r7,r2
    200c:	0000b640 	call	b64 <init_3des>
    2010:	d1200217 	ldw	r4,-32760(gp)
    2014:	d1600317 	ldw	r5,-32756(gp)
    2018:	d0e00417 	ldw	r3,-32752(gp)
    201c:	d0a00517 	ldw	r2,-32748(gp)
    2020:	d1e00617 	ldw	r7,-32744(gp)
    2024:	d1a00717 	ldw	r6,-32740(gp)
    2028:	d9c00015 	stw	r7,0(sp)
    202c:	d9800115 	stw	r6,4(sp)
    2030:	180d883a 	mov	r6,r3
    2034:	100f883a 	mov	r7,r2
    2038:	0000bf00 	call	bf0 <init_3desdecrypt>
    203c:	01000834 	movhi	r4,32
    2040:	2102da04 	addi	r4,r4,2920
    2044:	00163cc0 	call	163cc <puts>
    2048:	e037883a 	mov	sp,fp
    204c:	dfc00117 	ldw	ra,4(sp)
    2050:	df000017 	ldw	fp,0(sp)
    2054:	dec00204 	addi	sp,sp,8
    2058:	f800283a 	ret

0000205c <init_3des_pot>:
    205c:	defff404 	addi	sp,sp,-48
    2060:	dfc00b15 	stw	ra,44(sp)
    2064:	df000a15 	stw	fp,40(sp)
    2068:	df000a04 	addi	fp,sp,40
    206c:	e13ffc15 	stw	r4,-16(fp)
    2070:	e17ffd15 	stw	r5,-12(fp)
    2074:	e1bffe15 	stw	r6,-8(fp)
    2078:	e1ffff15 	stw	r7,-4(fp)
    207c:	e0fffc17 	ldw	r3,-16(fp)
    2080:	00800134 	movhi	r2,4
    2084:	10967004 	addi	r2,r2,22976
    2088:	10c00035 	stwio	r3,0(r2)
    208c:	00800134 	movhi	r2,4
    2090:	10967704 	addi	r2,r2,23004
    2094:	10800037 	ldwio	r2,0(r2)
    2098:	e0bff615 	stw	r2,-40(fp)
    209c:	e0fffd17 	ldw	r3,-12(fp)
    20a0:	00800134 	movhi	r2,4
    20a4:	10967104 	addi	r2,r2,22980
    20a8:	10c00035 	stwio	r3,0(r2)
    20ac:	00800134 	movhi	r2,4
    20b0:	10967804 	addi	r2,r2,23008
    20b4:	10800037 	ldwio	r2,0(r2)
    20b8:	e0bff715 	stw	r2,-36(fp)
    20bc:	01000834 	movhi	r4,32
    20c0:	2102e104 	addi	r4,r4,2948
    20c4:	e17ff617 	ldw	r5,-40(fp)
    20c8:	e1bff717 	ldw	r6,-36(fp)
    20cc:	00162e80 	call	162e8 <printf>
    20d0:	e0fffe17 	ldw	r3,-8(fp)
    20d4:	00800134 	movhi	r2,4
    20d8:	10967204 	addi	r2,r2,22984
    20dc:	10c00035 	stwio	r3,0(r2)
    20e0:	00800134 	movhi	r2,4
    20e4:	10967904 	addi	r2,r2,23012
    20e8:	10800037 	ldwio	r2,0(r2)
    20ec:	e0bff815 	stw	r2,-32(fp)
    20f0:	e0ffff17 	ldw	r3,-4(fp)
    20f4:	00800134 	movhi	r2,4
    20f8:	10967304 	addi	r2,r2,22988
    20fc:	10c00035 	stwio	r3,0(r2)
    2100:	00800134 	movhi	r2,4
    2104:	10967a04 	addi	r2,r2,23016
    2108:	10800037 	ldwio	r2,0(r2)
    210c:	e0bff915 	stw	r2,-28(fp)
    2110:	01000834 	movhi	r4,32
    2114:	2102e804 	addi	r4,r4,2976
    2118:	e17ff817 	ldw	r5,-32(fp)
    211c:	e1bff917 	ldw	r6,-28(fp)
    2120:	00162e80 	call	162e8 <printf>
    2124:	e0c00217 	ldw	r3,8(fp)
    2128:	00800134 	movhi	r2,4
    212c:	10967404 	addi	r2,r2,22992
    2130:	10c00035 	stwio	r3,0(r2)
    2134:	00800134 	movhi	r2,4
    2138:	10967b04 	addi	r2,r2,23020
    213c:	10800037 	ldwio	r2,0(r2)
    2140:	e0bffa15 	stw	r2,-24(fp)
    2144:	e0c00317 	ldw	r3,12(fp)
    2148:	00800134 	movhi	r2,4
    214c:	10967504 	addi	r2,r2,22996
    2150:	10c00035 	stwio	r3,0(r2)
    2154:	00800134 	movhi	r2,4
    2158:	10967c04 	addi	r2,r2,23024
    215c:	10800037 	ldwio	r2,0(r2)
    2160:	e0bffb15 	stw	r2,-20(fp)
    2164:	01000834 	movhi	r4,32
    2168:	2102ee04 	addi	r4,r4,3000
    216c:	e17ffa17 	ldw	r5,-24(fp)
    2170:	e1bffb17 	ldw	r6,-20(fp)
    2174:	00162e80 	call	162e8 <printf>
    2178:	e037883a 	mov	sp,fp
    217c:	dfc00117 	ldw	ra,4(sp)
    2180:	df000017 	ldw	fp,0(sp)
    2184:	dec00204 	addi	sp,sp,8
    2188:	f800283a 	ret

0000218c <init_3des_decrypt_pot>:
    218c:	defff504 	addi	sp,sp,-44
    2190:	df000a15 	stw	fp,40(sp)
    2194:	df000a04 	addi	fp,sp,40
    2198:	e13ffc15 	stw	r4,-16(fp)
    219c:	e17ffd15 	stw	r5,-12(fp)
    21a0:	e1bffe15 	stw	r6,-8(fp)
    21a4:	e1ffff15 	stw	r7,-4(fp)
    21a8:	e0fffc17 	ldw	r3,-16(fp)
    21ac:	00800134 	movhi	r2,4
    21b0:	10966004 	addi	r2,r2,22912
    21b4:	10c00035 	stwio	r3,0(r2)
    21b8:	00800134 	movhi	r2,4
    21bc:	10966704 	addi	r2,r2,22940
    21c0:	10800037 	ldwio	r2,0(r2)
    21c4:	e0bff615 	stw	r2,-40(fp)
    21c8:	e0fffd17 	ldw	r3,-12(fp)
    21cc:	00800134 	movhi	r2,4
    21d0:	10966104 	addi	r2,r2,22916
    21d4:	10c00035 	stwio	r3,0(r2)
    21d8:	00800134 	movhi	r2,4
    21dc:	10966804 	addi	r2,r2,22944
    21e0:	10800037 	ldwio	r2,0(r2)
    21e4:	e0bff715 	stw	r2,-36(fp)
    21e8:	e0fffe17 	ldw	r3,-8(fp)
    21ec:	00800134 	movhi	r2,4
    21f0:	10966204 	addi	r2,r2,22920
    21f4:	10c00035 	stwio	r3,0(r2)
    21f8:	00800134 	movhi	r2,4
    21fc:	10966904 	addi	r2,r2,22948
    2200:	10800037 	ldwio	r2,0(r2)
    2204:	e0bff815 	stw	r2,-32(fp)
    2208:	e0ffff17 	ldw	r3,-4(fp)
    220c:	00800134 	movhi	r2,4
    2210:	10966304 	addi	r2,r2,22924
    2214:	10c00035 	stwio	r3,0(r2)
    2218:	00800134 	movhi	r2,4
    221c:	10966a04 	addi	r2,r2,22952
    2220:	10800037 	ldwio	r2,0(r2)
    2224:	e0bff915 	stw	r2,-28(fp)
    2228:	e0c00117 	ldw	r3,4(fp)
    222c:	00800134 	movhi	r2,4
    2230:	10966404 	addi	r2,r2,22928
    2234:	10c00035 	stwio	r3,0(r2)
    2238:	00800134 	movhi	r2,4
    223c:	10966b04 	addi	r2,r2,22956
    2240:	10800037 	ldwio	r2,0(r2)
    2244:	e0bffa15 	stw	r2,-24(fp)
    2248:	e0c00217 	ldw	r3,8(fp)
    224c:	00800134 	movhi	r2,4
    2250:	10966504 	addi	r2,r2,22932
    2254:	10c00035 	stwio	r3,0(r2)
    2258:	00800134 	movhi	r2,4
    225c:	10966c04 	addi	r2,r2,22960
    2260:	10800037 	ldwio	r2,0(r2)
    2264:	e0bffb15 	stw	r2,-20(fp)
    2268:	e037883a 	mov	sp,fp
    226c:	df000017 	ldw	fp,0(sp)
    2270:	dec00104 	addi	sp,sp,4
    2274:	f800283a 	ret

00002278 <ciph_3des_pot>:
    2278:	defff704 	addi	sp,sp,-36
    227c:	dfc00815 	stw	ra,32(sp)
    2280:	df000715 	stw	fp,28(sp)
    2284:	df000704 	addi	fp,sp,28
    2288:	e13ffd15 	stw	r4,-12(fp)
    228c:	e17ffe15 	stw	r5,-8(fp)
    2290:	e1bfff15 	stw	r6,-4(fp)
    2294:	e0bfff17 	ldw	r2,-4(fp)
    2298:	10bfffcc 	andi	r2,r2,65535
    229c:	d8000015 	stw	zero,0(sp)
    22a0:	00c00044 	movi	r3,1
    22a4:	d8c00115 	stw	r3,4(sp)
    22a8:	00c00044 	movi	r3,1
    22ac:	d8c00215 	stw	r3,8(sp)
    22b0:	d8000315 	stw	zero,12(sp)
    22b4:	01000134 	movhi	r4,4
    22b8:	21040004 	addi	r4,r4,4096
    22bc:	01400134 	movhi	r5,4
    22c0:	29440804 	addi	r5,r5,4128
    22c4:	e1bffd17 	ldw	r6,-12(fp)
    22c8:	100f883a 	mov	r7,r2
    22cc:	0025eb80 	call	25eb8 <alt_avalon_sgdma_construct_mem_to_stream_desc>
    22d0:	00000306 	br	22e0 <ciph_3des_pot+0x68>
    22d4:	01000834 	movhi	r4,32
    22d8:	2102f404 	addi	r4,r4,3024
    22dc:	00163cc0 	call	163cc <puts>
    22e0:	d0a04017 	ldw	r2,-32512(gp)
    22e4:	1009883a 	mov	r4,r2
    22e8:	01400134 	movhi	r5,4
    22ec:	29440004 	addi	r5,r5,4096
    22f0:	0025ac40 	call	25ac4 <alt_avalon_sgdma_do_async_transfer>
    22f4:	103ff71e 	bne	r2,zero,22d4 <ciph_3des_pot+0x5c>
    22f8:	d8000015 	stw	zero,0(sp)
    22fc:	01000134 	movhi	r4,4
    2300:	21041004 	addi	r4,r4,4160
    2304:	01400134 	movhi	r5,4
    2308:	29441804 	addi	r5,r5,4192
    230c:	e1bffe17 	ldw	r6,-8(fp)
    2310:	000f883a 	mov	r7,zero
    2314:	0025de80 	call	25de8 <alt_avalon_sgdma_construct_stream_to_mem_desc>
    2318:	0001883a 	nop
    231c:	d0a03b17 	ldw	r2,-32532(gp)
    2320:	1009883a 	mov	r4,r2
    2324:	01400134 	movhi	r5,4
    2328:	29441004 	addi	r5,r5,4160
    232c:	0025ac40 	call	25ac4 <alt_avalon_sgdma_do_async_transfer>
    2330:	103ffa1e 	bne	r2,zero,231c <ciph_3des_pot+0xa4>
    2334:	e037883a 	mov	sp,fp
    2338:	dfc00117 	ldw	ra,4(sp)
    233c:	df000017 	ldw	fp,0(sp)
    2340:	dec00204 	addi	sp,sp,8
    2344:	f800283a 	ret

00002348 <deciph_3des_pot>:
    2348:	defff704 	addi	sp,sp,-36
    234c:	dfc00815 	stw	ra,32(sp)
    2350:	df000715 	stw	fp,28(sp)
    2354:	df000704 	addi	fp,sp,28
    2358:	e13ffd15 	stw	r4,-12(fp)
    235c:	e17ffe15 	stw	r5,-8(fp)
    2360:	e1bfff15 	stw	r6,-4(fp)
    2364:	e0bfff17 	ldw	r2,-4(fp)
    2368:	10bfffcc 	andi	r2,r2,65535
    236c:	d8000015 	stw	zero,0(sp)
    2370:	00c00044 	movi	r3,1
    2374:	d8c00115 	stw	r3,4(sp)
    2378:	00c00044 	movi	r3,1
    237c:	d8c00215 	stw	r3,8(sp)
    2380:	d8000315 	stw	zero,12(sp)
    2384:	01000134 	movhi	r4,4
    2388:	21000004 	addi	r4,r4,0
    238c:	01400134 	movhi	r5,4
    2390:	29400804 	addi	r5,r5,32
    2394:	e1bffd17 	ldw	r6,-12(fp)
    2398:	100f883a 	mov	r7,r2
    239c:	0025eb80 	call	25eb8 <alt_avalon_sgdma_construct_mem_to_stream_desc>
    23a0:	0001883a 	nop
    23a4:	d0a04217 	ldw	r2,-32504(gp)
    23a8:	1009883a 	mov	r4,r2
    23ac:	01400134 	movhi	r5,4
    23b0:	29400004 	addi	r5,r5,0
    23b4:	0025ac40 	call	25ac4 <alt_avalon_sgdma_do_async_transfer>
    23b8:	103ffa1e 	bne	r2,zero,23a4 <deciph_3des_pot+0x5c>
    23bc:	d8000015 	stw	zero,0(sp)
    23c0:	01000134 	movhi	r4,4
    23c4:	21001004 	addi	r4,r4,64
    23c8:	01400134 	movhi	r5,4
    23cc:	29401804 	addi	r5,r5,96
    23d0:	e1bffe17 	ldw	r6,-8(fp)
    23d4:	000f883a 	mov	r7,zero
    23d8:	0025de80 	call	25de8 <alt_avalon_sgdma_construct_stream_to_mem_desc>
    23dc:	0001883a 	nop
    23e0:	d0a02817 	ldw	r2,-32608(gp)
    23e4:	1009883a 	mov	r4,r2
    23e8:	01400134 	movhi	r5,4
    23ec:	29401004 	addi	r5,r5,64
    23f0:	0025ac40 	call	25ac4 <alt_avalon_sgdma_do_async_transfer>
    23f4:	103ffa1e 	bne	r2,zero,23e0 <deciph_3des_pot+0x98>
    23f8:	e037883a 	mov	sp,fp
    23fc:	dfc00117 	ldw	ra,4(sp)
    2400:	df000017 	ldw	fp,0(sp)
    2404:	dec00204 	addi	sp,sp,8
    2408:	f800283a 	ret

0000240c <tdes_cryptpot_isr>:
    240c:	defffe04 	addi	sp,sp,-8
    2410:	df000115 	stw	fp,4(sp)
    2414:	df000104 	addi	fp,sp,4
    2418:	e13fff15 	stw	r4,-4(fp)
    241c:	e037883a 	mov	sp,fp
    2420:	df000017 	ldw	fp,0(sp)
    2424:	dec00104 	addi	sp,sp,4
    2428:	f800283a 	ret

0000242c <tdes_decryptpot_isr>:
    242c:	defffe04 	addi	sp,sp,-8
    2430:	df000115 	stw	fp,4(sp)
    2434:	df000104 	addi	fp,sp,4
    2438:	e13fff15 	stw	r4,-4(fp)
    243c:	e037883a 	mov	sp,fp
    2440:	df000017 	ldw	fp,0(sp)
    2444:	dec00104 	addi	sp,sp,4
    2448:	f800283a 	ret

0000244c <test_wydajnosci_3des_pot>:
    244c:	defffb04 	addi	sp,sp,-20
    2450:	dfc00415 	stw	ra,16(sp)
    2454:	df000315 	stw	fp,12(sp)
    2458:	df000304 	addi	fp,sp,12
    245c:	01000834 	movhi	r4,32
    2460:	2102ff04 	addi	r4,r4,3068
    2464:	00163cc0 	call	163cc <puts>
    2468:	00c00044 	movi	r3,1
    246c:	00800134 	movhi	r2,4
    2470:	1096c004 	addi	r2,r2,23296
    2474:	10c00035 	stwio	r3,0(r2)
    2478:	0007883a 	mov	r3,zero
    247c:	00800134 	movhi	r2,4
    2480:	1096c104 	addi	r2,r2,23300
    2484:	10c00035 	stwio	r3,0(r2)
    2488:	e03ffe15 	stw	zero,-8(fp)
    248c:	e03fff15 	stw	zero,-4(fp)
    2490:	0007883a 	mov	r3,zero
    2494:	00800134 	movhi	r2,4
    2498:	1096c904 	addi	r2,r2,23332
    249c:	10c00035 	stwio	r3,0(r2)
    24a0:	00001506 	br	24f8 <test_wydajnosci_3des_pot+0xac>
    24a4:	e0bffe17 	ldw	r2,-8(fp)
    24a8:	1004957a 	slli	r2,r2,21
    24ac:	1007883a 	mov	r3,r2
    24b0:	00800834 	movhi	r2,32
    24b4:	109ac204 	addi	r2,r2,27400
    24b8:	1887883a 	add	r3,r3,r2
    24bc:	e0bffe17 	ldw	r2,-8(fp)
    24c0:	1004957a 	slli	r2,r2,21
    24c4:	1009883a 	mov	r4,r2
    24c8:	00900034 	movhi	r2,16384
    24cc:	2089883a 	add	r4,r4,r2
    24d0:	00800834 	movhi	r2,32
    24d4:	109ac204 	addi	r2,r2,27400
    24d8:	2085883a 	add	r2,r4,r2
    24dc:	1809883a 	mov	r4,r3
    24e0:	100b883a 	mov	r5,r2
    24e4:	01820004 	movi	r6,2048
    24e8:	00022780 	call	2278 <ciph_3des_pot>
    24ec:	e0bffe17 	ldw	r2,-8(fp)
    24f0:	10800044 	addi	r2,r2,1
    24f4:	e0bffe15 	stw	r2,-8(fp)
    24f8:	e0bffe17 	ldw	r2,-8(fp)
    24fc:	10808010 	cmplti	r2,r2,512
    2500:	103fe81e 	bne	r2,zero,24a4 <test_wydajnosci_3des_pot+0x58>
    2504:	0007883a 	mov	r3,zero
    2508:	00800134 	movhi	r2,4
    250c:	1096c804 	addi	r2,r2,23328
    2510:	10c00035 	stwio	r3,0(r2)
    2514:	e03ffe15 	stw	zero,-8(fp)
    2518:	0007883a 	mov	r3,zero
    251c:	00800134 	movhi	r2,4
    2520:	1096c504 	addi	r2,r2,23316
    2524:	10c00035 	stwio	r3,0(r2)
    2528:	00001506 	br	2580 <test_wydajnosci_3des_pot+0x134>
    252c:	e0bffe17 	ldw	r2,-8(fp)
    2530:	1004957a 	slli	r2,r2,21
    2534:	1007883a 	mov	r3,r2
    2538:	00800834 	movhi	r2,32
    253c:	109ac204 	addi	r2,r2,27400
    2540:	1887883a 	add	r3,r3,r2
    2544:	e0bffe17 	ldw	r2,-8(fp)
    2548:	1004957a 	slli	r2,r2,21
    254c:	1009883a 	mov	r4,r2
    2550:	00900034 	movhi	r2,16384
    2554:	2089883a 	add	r4,r4,r2
    2558:	00800834 	movhi	r2,32
    255c:	109ac204 	addi	r2,r2,27400
    2560:	2085883a 	add	r2,r4,r2
    2564:	1809883a 	mov	r4,r3
    2568:	100b883a 	mov	r5,r2
    256c:	01820004 	movi	r6,2048
    2570:	00023480 	call	2348 <deciph_3des_pot>
    2574:	e0bffe17 	ldw	r2,-8(fp)
    2578:	10800044 	addi	r2,r2,1
    257c:	e0bffe15 	stw	r2,-8(fp)
    2580:	e0bffe17 	ldw	r2,-8(fp)
    2584:	10808010 	cmplti	r2,r2,512
    2588:	103fe81e 	bne	r2,zero,252c <test_wydajnosci_3des_pot+0xe0>
    258c:	0007883a 	mov	r3,zero
    2590:	00800134 	movhi	r2,4
    2594:	1096c004 	addi	r2,r2,23296
    2598:	10c00035 	stwio	r3,0(r2)
    259c:	00800834 	movhi	r2,32
    25a0:	10831704 	addi	r2,r2,3164
    25a4:	d8800015 	stw	r2,0(sp)
    25a8:	01000134 	movhi	r4,4
    25ac:	2116c004 	addi	r4,r4,23296
    25b0:	01417db4 	movhi	r5,1526
    25b4:	29784004 	addi	r5,r5,-7936
    25b8:	01800084 	movi	r6,2
    25bc:	01c00834 	movhi	r7,32
    25c0:	39c31204 	addi	r7,r7,3144
    25c4:	002b71c0 	call	2b71c <perf_print_formatted_report>
    25c8:	e037883a 	mov	sp,fp
    25cc:	dfc00117 	ldw	ra,4(sp)
    25d0:	df000017 	ldw	fp,0(sp)
    25d4:	dec00204 	addi	sp,sp,8
    25d8:	f800283a 	ret

000025dc <wyswietl_wyniki_sz_dsz>:
    25dc:	defffd04 	addi	sp,sp,-12
    25e0:	dfc00215 	stw	ra,8(sp)
    25e4:	df000115 	stw	fp,4(sp)
    25e8:	df000104 	addi	fp,sp,4
    25ec:	e03fff15 	stw	zero,-4(fp)
    25f0:	01000834 	movhi	r4,32
    25f4:	2101e104 	addi	r4,r4,1924
    25f8:	00163cc0 	call	163cc <puts>
    25fc:	00003c06 	br	26f0 <wyswietl_wyniki_sz_dsz+0x114>
    2600:	00c00834 	movhi	r3,32
    2604:	18dbc204 	addi	r3,r3,28424
    2608:	e0bfff17 	ldw	r2,-4(fp)
    260c:	1885883a 	add	r2,r3,r2
    2610:	10800003 	ldbu	r2,0(r2)
    2614:	10803fcc 	andi	r2,r2,255
    2618:	10800430 	cmpltui	r2,r2,16
    261c:	1000191e 	bne	r2,zero,2684 <wyswietl_wyniki_sz_dsz+0xa8>
    2620:	e0bfff17 	ldw	r2,-4(fp)
    2624:	108001cc 	andi	r2,r2,7
    2628:	10000b1e 	bne	r2,zero,2658 <wyswietl_wyniki_sz_dsz+0x7c>
    262c:	00c00834 	movhi	r3,32
    2630:	18dbc204 	addi	r3,r3,28424
    2634:	e0bfff17 	ldw	r2,-4(fp)
    2638:	1885883a 	add	r2,r3,r2
    263c:	10800003 	ldbu	r2,0(r2)
    2640:	10803fcc 	andi	r2,r2,255
    2644:	01000834 	movhi	r4,32
    2648:	2101ea04 	addi	r4,r4,1960
    264c:	100b883a 	mov	r5,r2
    2650:	00162e80 	call	162e8 <printf>
    2654:	00002306 	br	26e4 <wyswietl_wyniki_sz_dsz+0x108>
    2658:	00c00834 	movhi	r3,32
    265c:	18dbc204 	addi	r3,r3,28424
    2660:	e0bfff17 	ldw	r2,-4(fp)
    2664:	1885883a 	add	r2,r3,r2
    2668:	10800003 	ldbu	r2,0(r2)
    266c:	10803fcc 	andi	r2,r2,255
    2670:	01000834 	movhi	r4,32
    2674:	2101ec04 	addi	r4,r4,1968
    2678:	100b883a 	mov	r5,r2
    267c:	00162e80 	call	162e8 <printf>
    2680:	00001806 	br	26e4 <wyswietl_wyniki_sz_dsz+0x108>
    2684:	e0bfff17 	ldw	r2,-4(fp)
    2688:	108001cc 	andi	r2,r2,7
    268c:	10000b1e 	bne	r2,zero,26bc <wyswietl_wyniki_sz_dsz+0xe0>
    2690:	00c00834 	movhi	r3,32
    2694:	18dbc204 	addi	r3,r3,28424
    2698:	e0bfff17 	ldw	r2,-4(fp)
    269c:	1885883a 	add	r2,r3,r2
    26a0:	10800003 	ldbu	r2,0(r2)
    26a4:	10803fcc 	andi	r2,r2,255
    26a8:	01000834 	movhi	r4,32
    26ac:	2101ed04 	addi	r4,r4,1972
    26b0:	100b883a 	mov	r5,r2
    26b4:	00162e80 	call	162e8 <printf>
    26b8:	00000a06 	br	26e4 <wyswietl_wyniki_sz_dsz+0x108>
    26bc:	00c00834 	movhi	r3,32
    26c0:	18dbc204 	addi	r3,r3,28424
    26c4:	e0bfff17 	ldw	r2,-4(fp)
    26c8:	1885883a 	add	r2,r3,r2
    26cc:	10800003 	ldbu	r2,0(r2)
    26d0:	10803fcc 	andi	r2,r2,255
    26d4:	01000834 	movhi	r4,32
    26d8:	2101ef04 	addi	r4,r4,1980
    26dc:	100b883a 	mov	r5,r2
    26e0:	00162e80 	call	162e8 <printf>
    26e4:	e0bfff17 	ldw	r2,-4(fp)
    26e8:	10800044 	addi	r2,r2,1
    26ec:	e0bfff15 	stw	r2,-4(fp)
    26f0:	e0bfff17 	ldw	r2,-4(fp)
    26f4:	10800a10 	cmplti	r2,r2,40
    26f8:	103fc11e 	bne	r2,zero,2600 <wyswietl_wyniki_sz_dsz+0x24>
    26fc:	e037883a 	mov	sp,fp
    2700:	dfc00117 	ldw	ra,4(sp)
    2704:	df000017 	ldw	fp,0(sp)
    2708:	dec00204 	addi	sp,sp,8
    270c:	f800283a 	ret

00002710 <definicja_szyfrowania_UDP>:
    2710:	deffff04 	addi	sp,sp,-4
    2714:	df000015 	stw	fp,0(sp)
    2718:	d839883a 	mov	fp,sp
    271c:	00803004 	movi	r2,192
    2720:	d0a02a8d 	sth	r2,-32598(gp)
    2724:	00802a04 	movi	r2,168
    2728:	d0a03c0d 	sth	r2,-32528(gp)
    272c:	d0202d0d 	sth	zero,-32588(gp)
    2730:	008001c4 	movi	r2,7
    2734:	d0a04b0d 	sth	r2,-32468(gp)
    2738:	d020340d 	sth	zero,-32560(gp)
    273c:	00803004 	movi	r2,192
    2740:	d0a0350d 	sth	r2,-32556(gp)
    2744:	00802a04 	movi	r2,168
    2748:	d0a0490d 	sth	r2,-32476(gp)
    274c:	d0203c8d 	sth	zero,-32526(gp)
    2750:	00800144 	movi	r2,5
    2754:	d0a0270d 	sth	r2,-32612(gp)
    2758:	d0202d8d 	sth	zero,-32586(gp)
    275c:	e037883a 	mov	sp,fp
    2760:	df000017 	ldw	fp,0(sp)
    2764:	dec00104 	addi	sp,sp,4
    2768:	f800283a 	ret

0000276c <inicjalizacja_netif>:
    276c:	defffe04 	addi	sp,sp,-8
    2770:	df000115 	stw	fp,4(sp)
    2774:	df000104 	addi	fp,sp,4
    2778:	e13fff15 	stw	r4,-4(fp)
    277c:	e0bfff17 	ldw	r2,-4(fp)
    2780:	e037883a 	mov	sp,fp
    2784:	df000017 	ldw	fp,0(sp)
    2788:	dec00104 	addi	sp,sp,4
    278c:	f800283a 	ret

00002790 <low_level_init>:
    2790:	defffc04 	addi	sp,sp,-16
    2794:	dfc00315 	stw	ra,12(sp)
    2798:	df000215 	stw	fp,8(sp)
    279c:	df000204 	addi	fp,sp,8
    27a0:	e13fff15 	stw	r4,-4(fp)
    27a4:	e0bfff17 	ldw	r2,-4(fp)
    27a8:	10800717 	ldw	r2,28(r2)
    27ac:	e0bffe15 	stw	r2,-8(fp)
    27b0:	e0bfff17 	ldw	r2,-4(fp)
    27b4:	00c00184 	movi	r3,6
    27b8:	10c00885 	stb	r3,34(r2)
    27bc:	e0bfff17 	ldw	r2,-4(fp)
    27c0:	00c17704 	movi	r3,1500
    27c4:	10c0080d 	sth	r3,32(r2)
    27c8:	e0bfff17 	ldw	r2,-4(fp)
    27cc:	00c00c84 	movi	r3,50
    27d0:	10c00a45 	stb	r3,41(r2)
    27d4:	0009883a 	mov	r4,zero
    27d8:	e17ffe17 	ldw	r5,-8(fp)
    27dc:	00033400 	call	3340 <tse_mac_init>
    27e0:	e037883a 	mov	sp,fp
    27e4:	dfc00117 	ldw	ra,4(sp)
    27e8:	df000017 	ldw	fp,0(sp)
    27ec:	dec00204 	addi	sp,sp,8
    27f0:	f800283a 	ret

000027f4 <low_level_input>:
    27f4:	defff704 	addi	sp,sp,-36
    27f8:	dfc00815 	stw	ra,32(sp)
    27fc:	df000715 	stw	fp,28(sp)
    2800:	df000704 	addi	fp,sp,28
    2804:	e13fff15 	stw	r4,-4(fp)
    2808:	e0bfff17 	ldw	r2,-4(fp)
    280c:	10800717 	ldw	r2,28(r2)
    2810:	e0bffa15 	stw	r2,-24(fp)
    2814:	e0bffa17 	ldw	r2,-24(fp)
    2818:	10801117 	ldw	r2,68(r2)
    281c:	1000021e 	bne	r2,zero,2828 <low_level_input+0x34>
    2820:	0005883a 	mov	r2,zero
    2824:	00007006 	br	29e8 <low_level_input+0x1f4>
    2828:	010000c4 	movi	r4,3
    282c:	01417b04 	movi	r5,1516
    2830:	018000c4 	movi	r6,3
    2834:	00087f80 	call	87f8 <pbuf_alloc>
    2838:	e0bffb15 	stw	r2,-20(fp)
    283c:	e0bffb17 	ldw	r2,-20(fp)
    2840:	1000121e 	bne	r2,zero,288c <low_level_input+0x98>
    2844:	008008b4 	movhi	r2,34
    2848:	10a2f804 	addi	r2,r2,-29728
    284c:	1080030b 	ldhu	r2,12(r2)
    2850:	10800044 	addi	r2,r2,1
    2854:	1007883a 	mov	r3,r2
    2858:	008008b4 	movhi	r2,34
    285c:	10a2f804 	addi	r2,r2,-29728
    2860:	10c0030d 	sth	r3,12(r2)
    2864:	008008b4 	movhi	r2,34
    2868:	10a2f804 	addi	r2,r2,-29728
    286c:	1080018b 	ldhu	r2,6(r2)
    2870:	10800044 	addi	r2,r2,1
    2874:	1007883a 	mov	r3,r2
    2878:	008008b4 	movhi	r2,34
    287c:	10a2f804 	addi	r2,r2,-29728
    2880:	10c0018d 	sth	r3,6(r2)
    2884:	0005883a 	mov	r2,zero
    2888:	00005706 	br	29e8 <low_level_input+0x1f4>
    288c:	e13ffb17 	ldw	r4,-20(fp)
    2890:	01400404 	movi	r5,16
    2894:	002544c0 	call	2544c <alt_remap_uncached>
    2898:	e0bffb15 	stw	r2,-20(fp)
    289c:	e0bffb17 	ldw	r2,-20(fp)
    28a0:	10800117 	ldw	r2,4(r2)
    28a4:	1009883a 	mov	r4,r2
    28a8:	01417b04 	movi	r5,1516
    28ac:	002544c0 	call	2544c <alt_remap_uncached>
    28b0:	e0fffb17 	ldw	r3,-20(fp)
    28b4:	18800115 	stw	r2,4(r3)
    28b8:	0005303a 	rdctl	r2,status
    28bc:	e0bffd15 	stw	r2,-12(fp)
    28c0:	e0fffd17 	ldw	r3,-12(fp)
    28c4:	00bfff84 	movi	r2,-2
    28c8:	1884703a 	and	r2,r3,r2
    28cc:	1001703a 	wrctl	status,r2
    28d0:	e0bffd17 	ldw	r2,-12(fp)
    28d4:	e0bffc15 	stw	r2,-16(fp)
    28d8:	e0bffa17 	ldw	r2,-24(fp)
    28dc:	10801117 	ldw	r2,68(r2)
    28e0:	10ffffc4 	addi	r3,r2,-1
    28e4:	e0bffa17 	ldw	r2,-24(fp)
    28e8:	10c01115 	stw	r3,68(r2)
    28ec:	e0bffc17 	ldw	r2,-16(fp)
    28f0:	e0bffe15 	stw	r2,-8(fp)
    28f4:	e0bffe17 	ldw	r2,-8(fp)
    28f8:	1001703a 	wrctl	status,r2
    28fc:	e0bffa17 	ldw	r2,-24(fp)
    2900:	10801017 	ldw	r2,64(r2)
    2904:	e0fffa17 	ldw	r3,-24(fp)
    2908:	108001c4 	addi	r2,r2,7
    290c:	1085883a 	add	r2,r2,r2
    2910:	1085883a 	add	r2,r2,r2
    2914:	1885883a 	add	r2,r3,r2
    2918:	10800017 	ldw	r2,0(r2)
    291c:	e0bff915 	stw	r2,-28(fp)
    2920:	e0bffa17 	ldw	r2,-24(fp)
    2924:	10801017 	ldw	r2,64(r2)
    2928:	e0fffa17 	ldw	r3,-24(fp)
    292c:	108001c4 	addi	r2,r2,7
    2930:	1085883a 	add	r2,r2,r2
    2934:	1085883a 	add	r2,r2,r2
    2938:	1885883a 	add	r2,r3,r2
    293c:	e0fffb17 	ldw	r3,-20(fp)
    2940:	10c00015 	stw	r3,0(r2)
    2944:	e0bffa17 	ldw	r2,-24(fp)
    2948:	10801017 	ldw	r2,64(r2)
    294c:	10c00044 	addi	r3,r2,1
    2950:	e0bffa17 	ldw	r2,-24(fp)
    2954:	10c01015 	stw	r3,64(r2)
    2958:	e0bffa17 	ldw	r2,-24(fp)
    295c:	10801017 	ldw	r2,64(r2)
    2960:	10800210 	cmplti	r2,r2,8
    2964:	1000021e 	bne	r2,zero,2970 <low_level_input+0x17c>
    2968:	e0bffa17 	ldw	r2,-24(fp)
    296c:	10001015 	stw	zero,64(r2)
    2970:	e0bff917 	ldw	r2,-28(fp)
    2974:	1000091e 	bne	r2,zero,299c <low_level_input+0x1a8>
    2978:	01000834 	movhi	r4,32
    297c:	21031d04 	addi	r4,r4,3188
    2980:	01400834 	movhi	r5,32
    2984:	29432704 	addi	r5,r5,3228
    2988:	01801e44 	movi	r6,121
    298c:	01c00834 	movhi	r7,32
    2990:	39c33204 	addi	r7,r7,3272
    2994:	00162e80 	call	162e8 <printf>
    2998:	003fff06 	br	2998 <low_level_input+0x1a4>
    299c:	e0bff917 	ldw	r2,-28(fp)
    29a0:	1080028b 	ldhu	r2,10(r2)
    29a4:	10bfffcc 	andi	r2,r2,65535
    29a8:	1000091e 	bne	r2,zero,29d0 <low_level_input+0x1dc>
    29ac:	01000834 	movhi	r4,32
    29b0:	21031d04 	addi	r4,r4,3188
    29b4:	01400834 	movhi	r5,32
    29b8:	29433804 	addi	r5,r5,3296
    29bc:	01801e84 	movi	r6,122
    29c0:	01c00834 	movhi	r7,32
    29c4:	39c33204 	addi	r7,r7,3272
    29c8:	00162e80 	call	162e8 <printf>
    29cc:	003fff06 	br	29cc <low_level_input+0x1d8>
    29d0:	e0bff917 	ldw	r2,-28(fp)
    29d4:	1080028b 	ldhu	r2,10(r2)
    29d8:	10bfffcc 	andi	r2,r2,65535
    29dc:	1000011e 	bne	r2,zero,29e4 <low_level_input+0x1f0>
    29e0:	e03ff915 	stw	zero,-28(fp)
    29e4:	e0bff917 	ldw	r2,-28(fp)
    29e8:	e037883a 	mov	sp,fp
    29ec:	dfc00117 	ldw	ra,4(sp)
    29f0:	df000017 	ldw	fp,0(sp)
    29f4:	dec00204 	addi	sp,sp,8
    29f8:	f800283a 	ret

000029fc <ethernetif_input>:
    29fc:	defffa04 	addi	sp,sp,-24
    2a00:	dfc00515 	stw	ra,20(sp)
    2a04:	df000415 	stw	fp,16(sp)
    2a08:	df000404 	addi	fp,sp,16
    2a0c:	e13fff15 	stw	r4,-4(fp)
    2a10:	e0bfff17 	ldw	r2,-4(fp)
    2a14:	10800717 	ldw	r2,28(r2)
    2a18:	e0bffc15 	stw	r2,-16(fp)
    2a1c:	e13fff17 	ldw	r4,-4(fp)
    2a20:	00027f40 	call	27f4 <low_level_input>
    2a24:	e0bffd15 	stw	r2,-12(fp)
    2a28:	e0bffd17 	ldw	r2,-12(fp)
    2a2c:	10002426 	beq	r2,zero,2ac0 <ethernetif_input+0xc4>
    2a30:	e0bffd17 	ldw	r2,-12(fp)
    2a34:	10800117 	ldw	r2,4(r2)
    2a38:	e0bffe15 	stw	r2,-8(fp)
    2a3c:	e0bffe17 	ldw	r2,-8(fp)
    2a40:	1080038b 	ldhu	r2,14(r2)
    2a44:	10bfffcc 	andi	r2,r2,65535
    2a48:	1004d23a 	srli	r2,r2,8
    2a4c:	10ffffcc 	andi	r3,r2,65535
    2a50:	e0bffe17 	ldw	r2,-8(fp)
    2a54:	1080038b 	ldhu	r2,14(r2)
    2a58:	10bfffcc 	andi	r2,r2,65535
    2a5c:	1004923a 	slli	r2,r2,8
    2a60:	10bfffcc 	andi	r2,r2,65535
    2a64:	1884b03a 	or	r2,r3,r2
    2a68:	10c20020 	cmpeqi	r3,r2,2048
    2a6c:	1800021e 	bne	r3,zero,2a78 <ethernetif_input+0x7c>
    2a70:	108201a0 	cmpeqi	r2,r2,2054
    2a74:	10000d26 	beq	r2,zero,2aac <ethernetif_input+0xb0>
    2a78:	e0bfff17 	ldw	r2,-4(fp)
    2a7c:	10800417 	ldw	r2,16(r2)
    2a80:	e13ffd17 	ldw	r4,-12(fp)
    2a84:	e17fff17 	ldw	r5,-4(fp)
    2a88:	103ee83a 	callr	r2
    2a8c:	10803fcc 	andi	r2,r2,255
    2a90:	1080201c 	xori	r2,r2,128
    2a94:	10bfe004 	addi	r2,r2,-128
    2a98:	10000b26 	beq	r2,zero,2ac8 <ethernetif_input+0xcc>
    2a9c:	e13ffd17 	ldw	r4,-12(fp)
    2aa0:	00091200 	call	9120 <pbuf_free>
    2aa4:	e03ffd15 	stw	zero,-12(fp)
    2aa8:	00000706 	br	2ac8 <ethernetif_input+0xcc>
    2aac:	e13ffd17 	ldw	r4,-12(fp)
    2ab0:	00091200 	call	9120 <pbuf_free>
    2ab4:	e03ffd15 	stw	zero,-12(fp)
    2ab8:	0001883a 	nop
    2abc:	00000306 	br	2acc <ethernetif_input+0xd0>
    2ac0:	0001883a 	nop
    2ac4:	00000106 	br	2acc <ethernetif_input+0xd0>
    2ac8:	0001883a 	nop
    2acc:	e037883a 	mov	sp,fp
    2ad0:	dfc00117 	ldw	ra,4(sp)
    2ad4:	df000017 	ldw	fp,0(sp)
    2ad8:	dec00204 	addi	sp,sp,8
    2adc:	f800283a 	ret

00002ae0 <ethernetif_init>:
    2ae0:	defffa04 	addi	sp,sp,-24
    2ae4:	dfc00515 	stw	ra,20(sp)
    2ae8:	df000415 	stw	fp,16(sp)
    2aec:	df000404 	addi	fp,sp,16
    2af0:	e13fff15 	stw	r4,-4(fp)
    2af4:	e0bfff17 	ldw	r2,-4(fp)
    2af8:	1000091e 	bne	r2,zero,2b20 <ethernetif_init+0x40>
    2afc:	01000834 	movhi	r4,32
    2b00:	21031d04 	addi	r4,r4,3188
    2b04:	01400834 	movhi	r5,32
    2b08:	29434404 	addi	r5,r5,3344
    2b0c:	018031c4 	movi	r6,199
    2b10:	01c00834 	movhi	r7,32
    2b14:	39c33204 	addi	r7,r7,3272
    2b18:	00162e80 	call	162e8 <printf>
    2b1c:	003fff06 	br	2b1c <ethernetif_init+0x3c>
    2b20:	01001304 	movi	r4,76
    2b24:	00079140 	call	7914 <mem_malloc>
    2b28:	e0bffd15 	stw	r2,-12(fp)
    2b2c:	e0bffd17 	ldw	r2,-12(fp)
    2b30:	1000021e 	bne	r2,zero,2b3c <ethernetif_init+0x5c>
    2b34:	00bfffc4 	movi	r2,-1
    2b38:	00004206 	br	2c44 <ethernetif_init+0x164>
    2b3c:	e0bfff17 	ldw	r2,-4(fp)
    2b40:	e0fffd17 	ldw	r3,-12(fp)
    2b44:	10c00715 	stw	r3,28(r2)
    2b48:	e0bfff17 	ldw	r2,-4(fp)
    2b4c:	00c01944 	movi	r3,101
    2b50:	10c00a85 	stb	r3,42(r2)
    2b54:	e0bfff17 	ldw	r2,-4(fp)
    2b58:	00c01b84 	movi	r3,110
    2b5c:	10c00ac5 	stb	r3,43(r2)
    2b60:	e0bfff17 	ldw	r2,-4(fp)
    2b64:	00c00074 	movhi	r3,1
    2b68:	18d52e04 	addi	r3,r3,21688
    2b6c:	10c00515 	stw	r3,20(r2)
    2b70:	e0bfff17 	ldw	r2,-4(fp)
    2b74:	00c00034 	movhi	r3,0
    2b78:	18cf4a04 	addi	r3,r3,15656
    2b7c:	10c00615 	stw	r3,24(r2)
    2b80:	e0bfff17 	ldw	r2,-4(fp)
    2b84:	10c008c4 	addi	r3,r2,35
    2b88:	e0bffd17 	ldw	r2,-12(fp)
    2b8c:	10c00015 	stw	r3,0(r2)
    2b90:	e03ffc15 	stw	zero,-16(fp)
    2b94:	00001f06 	br	2c14 <ethernetif_init+0x134>
    2b98:	010000c4 	movi	r4,3
    2b9c:	01417b04 	movi	r5,1516
    2ba0:	018000c4 	movi	r6,3
    2ba4:	00087f80 	call	87f8 <pbuf_alloc>
    2ba8:	e0bffe15 	stw	r2,-8(fp)
    2bac:	e0bffe17 	ldw	r2,-8(fp)
    2bb0:	1000021e 	bne	r2,zero,2bbc <ethernetif_init+0xdc>
    2bb4:	00bfffc4 	movi	r2,-1
    2bb8:	00002206 	br	2c44 <ethernetif_init+0x164>
    2bbc:	e13ffe17 	ldw	r4,-8(fp)
    2bc0:	01400404 	movi	r5,16
    2bc4:	002544c0 	call	2544c <alt_remap_uncached>
    2bc8:	e0bffe15 	stw	r2,-8(fp)
    2bcc:	e0bffe17 	ldw	r2,-8(fp)
    2bd0:	10800117 	ldw	r2,4(r2)
    2bd4:	1009883a 	mov	r4,r2
    2bd8:	01417b04 	movi	r5,1516
    2bdc:	002544c0 	call	2544c <alt_remap_uncached>
    2be0:	e0fffe17 	ldw	r3,-8(fp)
    2be4:	18800115 	stw	r2,4(r3)
    2be8:	e0fffd17 	ldw	r3,-12(fp)
    2bec:	e0bffc17 	ldw	r2,-16(fp)
    2bf0:	108001c4 	addi	r2,r2,7
    2bf4:	1085883a 	add	r2,r2,r2
    2bf8:	1085883a 	add	r2,r2,r2
    2bfc:	1885883a 	add	r2,r3,r2
    2c00:	e0fffe17 	ldw	r3,-8(fp)
    2c04:	10c00015 	stw	r3,0(r2)
    2c08:	e0bffc17 	ldw	r2,-16(fp)
    2c0c:	10800044 	addi	r2,r2,1
    2c10:	e0bffc15 	stw	r2,-16(fp)
    2c14:	e0bffc17 	ldw	r2,-16(fp)
    2c18:	10800210 	cmplti	r2,r2,8
    2c1c:	103fde1e 	bne	r2,zero,2b98 <ethernetif_init+0xb8>
    2c20:	e0bffd17 	ldw	r2,-12(fp)
    2c24:	10001115 	stw	zero,68(r2)
    2c28:	e0bffd17 	ldw	r2,-12(fp)
    2c2c:	10001015 	stw	zero,64(r2)
    2c30:	e0bffd17 	ldw	r2,-12(fp)
    2c34:	10000f15 	stw	zero,60(r2)
    2c38:	e13fff17 	ldw	r4,-4(fp)
    2c3c:	00027900 	call	2790 <low_level_init>
    2c40:	0005883a 	mov	r2,zero
    2c44:	e037883a 	mov	sp,fp
    2c48:	dfc00117 	ldw	ra,4(sp)
    2c4c:	df000017 	ldw	fp,0(sp)
    2c50:	dec00204 	addi	sp,sp,8
    2c54:	f800283a 	ret

00002c58 <fs_open>:
    2c58:	defffb04 	addi	sp,sp,-20
    2c5c:	dfc00415 	stw	ra,16(sp)
    2c60:	df000315 	stw	fp,12(sp)
    2c64:	df000304 	addi	fp,sp,12
    2c68:	e13ffe15 	stw	r4,-8(fp)
    2c6c:	e17fff15 	stw	r5,-4(fp)
    2c70:	00800834 	movhi	r2,32
    2c74:	10866404 	addi	r2,r2,6544
    2c78:	e0bffd15 	stw	r2,-12(fp)
    2c7c:	00001306 	br	2ccc <fs_open+0x74>
    2c80:	e0bffd17 	ldw	r2,-12(fp)
    2c84:	10800117 	ldw	r2,4(r2)
    2c88:	e13ffe17 	ldw	r4,-8(fp)
    2c8c:	100b883a 	mov	r5,r2
    2c90:	001644c0 	call	1644c <strcmp>
    2c94:	10000a1e 	bne	r2,zero,2cc0 <fs_open+0x68>
    2c98:	e0bffd17 	ldw	r2,-12(fp)
    2c9c:	10c00217 	ldw	r3,8(r2)
    2ca0:	e0bfff17 	ldw	r2,-4(fp)
    2ca4:	10c00015 	stw	r3,0(r2)
    2ca8:	e0bffd17 	ldw	r2,-12(fp)
    2cac:	10c00317 	ldw	r3,12(r2)
    2cb0:	e0bfff17 	ldw	r2,-4(fp)
    2cb4:	10c00115 	stw	r3,4(r2)
    2cb8:	00800044 	movi	r2,1
    2cbc:	00000606 	br	2cd8 <fs_open+0x80>
    2cc0:	e0bffd17 	ldw	r2,-12(fp)
    2cc4:	10800017 	ldw	r2,0(r2)
    2cc8:	e0bffd15 	stw	r2,-12(fp)
    2ccc:	e0bffd17 	ldw	r2,-12(fp)
    2cd0:	103feb1e 	bne	r2,zero,2c80 <fs_open+0x28>
    2cd4:	0005883a 	mov	r2,zero
    2cd8:	e037883a 	mov	sp,fp
    2cdc:	dfc00117 	ldw	ra,4(sp)
    2ce0:	df000017 	ldw	fp,0(sp)
    2ce4:	dec00204 	addi	sp,sp,8
    2ce8:	f800283a 	ret

00002cec <conn_err>:
    2cec:	defffb04 	addi	sp,sp,-20
    2cf0:	dfc00415 	stw	ra,16(sp)
    2cf4:	df000315 	stw	fp,12(sp)
    2cf8:	df000304 	addi	fp,sp,12
    2cfc:	e13ffe15 	stw	r4,-8(fp)
    2d00:	2805883a 	mov	r2,r5
    2d04:	e0bfff05 	stb	r2,-4(fp)
    2d08:	e0bffe17 	ldw	r2,-8(fp)
    2d0c:	e0bffd15 	stw	r2,-12(fp)
    2d10:	e13ffd17 	ldw	r4,-12(fp)
    2d14:	00074700 	call	7470 <mem_free>
    2d18:	e037883a 	mov	sp,fp
    2d1c:	dfc00117 	ldw	ra,4(sp)
    2d20:	df000017 	ldw	fp,0(sp)
    2d24:	dec00204 	addi	sp,sp,8
    2d28:	f800283a 	ret

00002d2c <close_conn>:
    2d2c:	defffc04 	addi	sp,sp,-16
    2d30:	dfc00315 	stw	ra,12(sp)
    2d34:	df000215 	stw	fp,8(sp)
    2d38:	df000204 	addi	fp,sp,8
    2d3c:	e13ffe15 	stw	r4,-8(fp)
    2d40:	e17fff15 	stw	r5,-4(fp)
    2d44:	e13ffe17 	ldw	r4,-8(fp)
    2d48:	000b883a 	mov	r5,zero
    2d4c:	000bdc80 	call	bdc8 <tcp_arg>
    2d50:	e13ffe17 	ldw	r4,-8(fp)
    2d54:	000b883a 	mov	r5,zero
    2d58:	000be280 	call	be28 <tcp_sent>
    2d5c:	e13ffe17 	ldw	r4,-8(fp)
    2d60:	000b883a 	mov	r5,zero
    2d64:	000bdf80 	call	bdf8 <tcp_recv>
    2d68:	e13fff17 	ldw	r4,-4(fp)
    2d6c:	00074700 	call	7470 <mem_free>
    2d70:	e13ffe17 	ldw	r4,-8(fp)
    2d74:	000a1c00 	call	a1c0 <tcp_close>
    2d78:	e037883a 	mov	sp,fp
    2d7c:	dfc00117 	ldw	ra,4(sp)
    2d80:	df000017 	ldw	fp,0(sp)
    2d84:	dec00204 	addi	sp,sp,8
    2d88:	f800283a 	ret

00002d8c <send_data>:
    2d8c:	defffa04 	addi	sp,sp,-24
    2d90:	dfc00515 	stw	ra,20(sp)
    2d94:	df000415 	stw	fp,16(sp)
    2d98:	df000404 	addi	fp,sp,16
    2d9c:	e13ffe15 	stw	r4,-8(fp)
    2da0:	e17fff15 	stw	r5,-4(fp)
    2da4:	e0bffe17 	ldw	r2,-8(fp)
    2da8:	10801c8b 	ldhu	r2,114(r2)
    2dac:	10ffffcc 	andi	r3,r2,65535
    2db0:	e0bfff17 	ldw	r2,-4(fp)
    2db4:	10800017 	ldw	r2,0(r2)
    2db8:	1880052e 	bgeu	r3,r2,2dd0 <send_data+0x44>
    2dbc:	e0bffe17 	ldw	r2,-8(fp)
    2dc0:	10801c8b 	ldhu	r2,114(r2)
    2dc4:	10bfffcc 	andi	r2,r2,65535
    2dc8:	e0bffc15 	stw	r2,-16(fp)
    2dcc:	00000306 	br	2ddc <send_data+0x50>
    2dd0:	e0bfff17 	ldw	r2,-4(fp)
    2dd4:	10800017 	ldw	r2,0(r2)
    2dd8:	e0bffc15 	stw	r2,-16(fp)
    2ddc:	e0bfff17 	ldw	r2,-4(fp)
    2de0:	10c00117 	ldw	r3,4(r2)
    2de4:	e0bffc17 	ldw	r2,-16(fp)
    2de8:	10bfffcc 	andi	r2,r2,65535
    2dec:	e13ffe17 	ldw	r4,-8(fp)
    2df0:	180b883a 	mov	r5,r3
    2df4:	100d883a 	mov	r6,r2
    2df8:	000f883a 	mov	r7,zero
    2dfc:	00102240 	call	10224 <tcp_write>
    2e00:	e0bffd05 	stb	r2,-12(fp)
    2e04:	e0bffd07 	ldb	r2,-12(fp)
    2e08:	10bfffd8 	cmpnei	r2,r2,-1
    2e0c:	1000031e 	bne	r2,zero,2e1c <send_data+0x90>
    2e10:	e0bffc17 	ldw	r2,-16(fp)
    2e14:	1004d07a 	srli	r2,r2,1
    2e18:	e0bffc15 	stw	r2,-16(fp)
    2e1c:	e0bffd07 	ldb	r2,-12(fp)
    2e20:	10bfffd8 	cmpnei	r2,r2,-1
    2e24:	1000031e 	bne	r2,zero,2e34 <send_data+0xa8>
    2e28:	e0bffc17 	ldw	r2,-16(fp)
    2e2c:	108000a8 	cmpgeui	r2,r2,2
    2e30:	103fea1e 	bne	r2,zero,2ddc <send_data+0x50>
    2e34:	e0bffd07 	ldb	r2,-12(fp)
    2e38:	10000c1e 	bne	r2,zero,2e6c <send_data+0xe0>
    2e3c:	e0bfff17 	ldw	r2,-4(fp)
    2e40:	10c00117 	ldw	r3,4(r2)
    2e44:	e0bffc17 	ldw	r2,-16(fp)
    2e48:	1887883a 	add	r3,r3,r2
    2e4c:	e0bfff17 	ldw	r2,-4(fp)
    2e50:	10c00115 	stw	r3,4(r2)
    2e54:	e0bfff17 	ldw	r2,-4(fp)
    2e58:	10c00017 	ldw	r3,0(r2)
    2e5c:	e0bffc17 	ldw	r2,-16(fp)
    2e60:	1887c83a 	sub	r3,r3,r2
    2e64:	e0bfff17 	ldw	r2,-4(fp)
    2e68:	10c00015 	stw	r3,0(r2)
    2e6c:	e037883a 	mov	sp,fp
    2e70:	dfc00117 	ldw	ra,4(sp)
    2e74:	df000017 	ldw	fp,0(sp)
    2e78:	dec00204 	addi	sp,sp,8
    2e7c:	f800283a 	ret

00002e80 <http_poll>:
    2e80:	defffb04 	addi	sp,sp,-20
    2e84:	dfc00415 	stw	ra,16(sp)
    2e88:	df000315 	stw	fp,12(sp)
    2e8c:	df000304 	addi	fp,sp,12
    2e90:	e13ffe15 	stw	r4,-8(fp)
    2e94:	e17fff15 	stw	r5,-4(fp)
    2e98:	e0bffe17 	ldw	r2,-8(fp)
    2e9c:	e0bffd15 	stw	r2,-12(fp)
    2ea0:	e0bffd17 	ldw	r2,-12(fp)
    2ea4:	1000091e 	bne	r2,zero,2ecc <http_poll+0x4c>
    2ea8:	e0bfff17 	ldw	r2,-4(fp)
    2eac:	10800417 	ldw	r2,16(r2)
    2eb0:	10800118 	cmpnei	r2,r2,4
    2eb4:	1000051e 	bne	r2,zero,2ecc <http_poll+0x4c>
    2eb8:	e13fff17 	ldw	r4,-4(fp)
    2ebc:	01400044 	movi	r5,1
    2ec0:	000a3b00 	call	a3b0 <tcp_abandon>
    2ec4:	00bffec4 	movi	r2,-5
    2ec8:	00001b06 	br	2f38 <http_poll+0xb8>
    2ecc:	e0bffd17 	ldw	r2,-12(fp)
    2ed0:	10001826 	beq	r2,zero,2f34 <http_poll+0xb4>
    2ed4:	e0bffd17 	ldw	r2,-12(fp)
    2ed8:	10800203 	ldbu	r2,8(r2)
    2edc:	10800044 	addi	r2,r2,1
    2ee0:	1007883a 	mov	r3,r2
    2ee4:	e0bffd17 	ldw	r2,-12(fp)
    2ee8:	10c00205 	stb	r3,8(r2)
    2eec:	e0bffd17 	ldw	r2,-12(fp)
    2ef0:	10800203 	ldbu	r2,8(r2)
    2ef4:	10803fcc 	andi	r2,r2,255
    2ef8:	10800118 	cmpnei	r2,r2,4
    2efc:	10000a1e 	bne	r2,zero,2f28 <http_poll+0xa8>
    2f00:	e13fff17 	ldw	r4,-4(fp)
    2f04:	000b883a 	mov	r5,zero
    2f08:	000bdc80 	call	bdc8 <tcp_arg>
    2f0c:	e13ffd17 	ldw	r4,-12(fp)
    2f10:	00074700 	call	7470 <mem_free>
    2f14:	e13fff17 	ldw	r4,-4(fp)
    2f18:	01400044 	movi	r5,1
    2f1c:	000a3b00 	call	a3b0 <tcp_abandon>
    2f20:	00bffec4 	movi	r2,-5
    2f24:	00000406 	br	2f38 <http_poll+0xb8>
    2f28:	e13fff17 	ldw	r4,-4(fp)
    2f2c:	e17ffd17 	ldw	r5,-12(fp)
    2f30:	0002d8c0 	call	2d8c <send_data>
    2f34:	0005883a 	mov	r2,zero
    2f38:	e037883a 	mov	sp,fp
    2f3c:	dfc00117 	ldw	ra,4(sp)
    2f40:	df000017 	ldw	fp,0(sp)
    2f44:	dec00204 	addi	sp,sp,8
    2f48:	f800283a 	ret

00002f4c <http_sent>:
    2f4c:	defffa04 	addi	sp,sp,-24
    2f50:	dfc00515 	stw	ra,20(sp)
    2f54:	df000415 	stw	fp,16(sp)
    2f58:	df000404 	addi	fp,sp,16
    2f5c:	e13ffd15 	stw	r4,-12(fp)
    2f60:	e17ffe15 	stw	r5,-8(fp)
    2f64:	3005883a 	mov	r2,r6
    2f68:	e0bfff0d 	sth	r2,-4(fp)
    2f6c:	e0bffd17 	ldw	r2,-12(fp)
    2f70:	e0bffc15 	stw	r2,-16(fp)
    2f74:	e0bffc17 	ldw	r2,-16(fp)
    2f78:	10000205 	stb	zero,8(r2)
    2f7c:	e0bffc17 	ldw	r2,-16(fp)
    2f80:	10800017 	ldw	r2,0(r2)
    2f84:	10000426 	beq	r2,zero,2f98 <http_sent+0x4c>
    2f88:	e13ffe17 	ldw	r4,-8(fp)
    2f8c:	e17ffc17 	ldw	r5,-16(fp)
    2f90:	0002d8c0 	call	2d8c <send_data>
    2f94:	00000306 	br	2fa4 <http_sent+0x58>
    2f98:	e13ffe17 	ldw	r4,-8(fp)
    2f9c:	e17ffc17 	ldw	r5,-16(fp)
    2fa0:	0002d2c0 	call	2d2c <close_conn>
    2fa4:	0005883a 	mov	r2,zero
    2fa8:	e037883a 	mov	sp,fp
    2fac:	dfc00117 	ldw	ra,4(sp)
    2fb0:	df000017 	ldw	fp,0(sp)
    2fb4:	dec00204 	addi	sp,sp,8
    2fb8:	f800283a 	ret

00002fbc <http_recv>:
    2fbc:	defff504 	addi	sp,sp,-44
    2fc0:	dfc00a15 	stw	ra,40(sp)
    2fc4:	df000915 	stw	fp,36(sp)
    2fc8:	df000904 	addi	fp,sp,36
    2fcc:	e13ffc15 	stw	r4,-16(fp)
    2fd0:	e17ffd15 	stw	r5,-12(fp)
    2fd4:	e1bffe15 	stw	r6,-8(fp)
    2fd8:	3805883a 	mov	r2,r7
    2fdc:	e0bfff05 	stb	r2,-4(fp)
    2fe0:	e0bffc17 	ldw	r2,-16(fp)
    2fe4:	e0bff815 	stw	r2,-32(fp)
    2fe8:	e0bfff07 	ldb	r2,-4(fp)
    2fec:	1000791e 	bne	r2,zero,31d4 <http_recv+0x218>
    2ff0:	e0bffe17 	ldw	r2,-8(fp)
    2ff4:	10007726 	beq	r2,zero,31d4 <http_recv+0x218>
    2ff8:	e0bffe17 	ldw	r2,-8(fp)
    2ffc:	1080020b 	ldhu	r2,8(r2)
    3000:	10bfffcc 	andi	r2,r2,65535
    3004:	e13ffd17 	ldw	r4,-12(fp)
    3008:	100b883a 	mov	r5,r2
    300c:	000ab000 	call	ab00 <tcp_recved>
    3010:	e0bff817 	ldw	r2,-32(fp)
    3014:	10800117 	ldw	r2,4(r2)
    3018:	10006c1e 	bne	r2,zero,31cc <http_recv+0x210>
    301c:	e0bffe17 	ldw	r2,-8(fp)
    3020:	10800117 	ldw	r2,4(r2)
    3024:	e0bff915 	stw	r2,-28(fp)
    3028:	e13ff917 	ldw	r4,-28(fp)
    302c:	01400834 	movhi	r5,32
    3030:	29466804 	addi	r5,r5,6560
    3034:	01800104 	movi	r6,4
    3038:	001657c0 	call	1657c <strncmp>
    303c:	10005d1e 	bne	r2,zero,31b4 <http_recv+0x1f8>
    3040:	e03ff715 	stw	zero,-36(fp)
    3044:	00002606 	br	30e0 <http_recv+0x124>
    3048:	e0bff717 	ldw	r2,-36(fp)
    304c:	10800104 	addi	r2,r2,4
    3050:	e0fff917 	ldw	r3,-28(fp)
    3054:	1885883a 	add	r2,r3,r2
    3058:	10800003 	ldbu	r2,0(r2)
    305c:	10803fcc 	andi	r2,r2,255
    3060:	1080201c 	xori	r2,r2,128
    3064:	10bfe004 	addi	r2,r2,-128
    3068:	10800820 	cmpeqi	r2,r2,32
    306c:	1000141e 	bne	r2,zero,30c0 <http_recv+0x104>
    3070:	e0bff717 	ldw	r2,-36(fp)
    3074:	10800104 	addi	r2,r2,4
    3078:	e0fff917 	ldw	r3,-28(fp)
    307c:	1885883a 	add	r2,r3,r2
    3080:	10800003 	ldbu	r2,0(r2)
    3084:	10803fcc 	andi	r2,r2,255
    3088:	1080201c 	xori	r2,r2,128
    308c:	10bfe004 	addi	r2,r2,-128
    3090:	10800360 	cmpeqi	r2,r2,13
    3094:	10000a1e 	bne	r2,zero,30c0 <http_recv+0x104>
    3098:	e0bff717 	ldw	r2,-36(fp)
    309c:	10800104 	addi	r2,r2,4
    30a0:	e0fff917 	ldw	r3,-28(fp)
    30a4:	1885883a 	add	r2,r3,r2
    30a8:	10800003 	ldbu	r2,0(r2)
    30ac:	10803fcc 	andi	r2,r2,255
    30b0:	1080201c 	xori	r2,r2,128
    30b4:	10bfe004 	addi	r2,r2,-128
    30b8:	10800298 	cmpnei	r2,r2,10
    30bc:	1000051e 	bne	r2,zero,30d4 <http_recv+0x118>
    30c0:	e0bff717 	ldw	r2,-36(fp)
    30c4:	10800104 	addi	r2,r2,4
    30c8:	e0fff917 	ldw	r3,-28(fp)
    30cc:	1885883a 	add	r2,r3,r2
    30d0:	10000005 	stb	zero,0(r2)
    30d4:	e0bff717 	ldw	r2,-36(fp)
    30d8:	10800044 	addi	r2,r2,1
    30dc:	e0bff715 	stw	r2,-36(fp)
    30e0:	e0bff717 	ldw	r2,-36(fp)
    30e4:	10800a10 	cmplti	r2,r2,40
    30e8:	103fd71e 	bne	r2,zero,3048 <http_recv+0x8c>
    30ec:	e0bff917 	ldw	r2,-28(fp)
    30f0:	10800104 	addi	r2,r2,4
    30f4:	10800003 	ldbu	r2,0(r2)
    30f8:	10803fcc 	andi	r2,r2,255
    30fc:	1080201c 	xori	r2,r2,128
    3100:	10bfe004 	addi	r2,r2,-128
    3104:	10800bd8 	cmpnei	r2,r2,47
    3108:	10000d1e 	bne	r2,zero,3140 <http_recv+0x184>
    310c:	e0bff917 	ldw	r2,-28(fp)
    3110:	10800144 	addi	r2,r2,5
    3114:	10800003 	ldbu	r2,0(r2)
    3118:	10803fcc 	andi	r2,r2,255
    311c:	1080201c 	xori	r2,r2,128
    3120:	10bfe004 	addi	r2,r2,-128
    3124:	1000061e 	bne	r2,zero,3140 <http_recv+0x184>
    3128:	e0bffa04 	addi	r2,fp,-24
    312c:	01000834 	movhi	r4,32
    3130:	21066a04 	addi	r4,r4,6568
    3134:	100b883a 	mov	r5,r2
    3138:	0002c580 	call	2c58 <fs_open>
    313c:	00000c06 	br	3170 <http_recv+0x1b4>
    3140:	e0bff917 	ldw	r2,-28(fp)
    3144:	10c00104 	addi	r3,r2,4
    3148:	e0bffa04 	addi	r2,fp,-24
    314c:	1809883a 	mov	r4,r3
    3150:	100b883a 	mov	r5,r2
    3154:	0002c580 	call	2c58 <fs_open>
    3158:	1000051e 	bne	r2,zero,3170 <http_recv+0x1b4>
    315c:	e0bffa04 	addi	r2,fp,-24
    3160:	01000834 	movhi	r4,32
    3164:	21066d04 	addi	r4,r4,6580
    3168:	100b883a 	mov	r5,r2
    316c:	0002c580 	call	2c58 <fs_open>
    3170:	e0fffa17 	ldw	r3,-24(fp)
    3174:	e0bff817 	ldw	r2,-32(fp)
    3178:	10c00115 	stw	r3,4(r2)
    317c:	e0bffb17 	ldw	r2,-20(fp)
    3180:	1007883a 	mov	r3,r2
    3184:	e0bff817 	ldw	r2,-32(fp)
    3188:	10c00015 	stw	r3,0(r2)
    318c:	e13ffe17 	ldw	r4,-8(fp)
    3190:	00091200 	call	9120 <pbuf_free>
    3194:	e13ffd17 	ldw	r4,-12(fp)
    3198:	e17ff817 	ldw	r5,-32(fp)
    319c:	0002d8c0 	call	2d8c <send_data>
    31a0:	e13ffd17 	ldw	r4,-12(fp)
    31a4:	01400034 	movhi	r5,0
    31a8:	294bd304 	addi	r5,r5,12108
    31ac:	000be280 	call	be28 <tcp_sent>
    31b0:	00000806 	br	31d4 <http_recv+0x218>
    31b4:	e13ffe17 	ldw	r4,-8(fp)
    31b8:	00091200 	call	9120 <pbuf_free>
    31bc:	e13ffd17 	ldw	r4,-12(fp)
    31c0:	e17ff817 	ldw	r5,-32(fp)
    31c4:	0002d2c0 	call	2d2c <close_conn>
    31c8:	00000206 	br	31d4 <http_recv+0x218>
    31cc:	e13ffe17 	ldw	r4,-8(fp)
    31d0:	00091200 	call	9120 <pbuf_free>
    31d4:	e0bfff07 	ldb	r2,-4(fp)
    31d8:	1000051e 	bne	r2,zero,31f0 <http_recv+0x234>
    31dc:	e0bffe17 	ldw	r2,-8(fp)
    31e0:	1000031e 	bne	r2,zero,31f0 <http_recv+0x234>
    31e4:	e13ffd17 	ldw	r4,-12(fp)
    31e8:	e17ff817 	ldw	r5,-32(fp)
    31ec:	0002d2c0 	call	2d2c <close_conn>
    31f0:	0005883a 	mov	r2,zero
    31f4:	e037883a 	mov	sp,fp
    31f8:	dfc00117 	ldw	ra,4(sp)
    31fc:	df000017 	ldw	fp,0(sp)
    3200:	dec00204 	addi	sp,sp,8
    3204:	f800283a 	ret

00003208 <http_accept>:
    3208:	defff904 	addi	sp,sp,-28
    320c:	dfc00615 	stw	ra,24(sp)
    3210:	df000515 	stw	fp,20(sp)
    3214:	df000504 	addi	fp,sp,20
    3218:	e13ffd15 	stw	r4,-12(fp)
    321c:	e17ffe15 	stw	r5,-8(fp)
    3220:	3005883a 	mov	r2,r6
    3224:	e0bfff05 	stb	r2,-4(fp)
    3228:	e0bffd17 	ldw	r2,-12(fp)
    322c:	e0bffb15 	stw	r2,-20(fp)
    3230:	e13ffe17 	ldw	r4,-8(fp)
    3234:	01400044 	movi	r5,1
    3238:	000b9380 	call	b938 <tcp_setprio>
    323c:	01000304 	movi	r4,12
    3240:	00079140 	call	7914 <mem_malloc>
    3244:	e0bffc15 	stw	r2,-16(fp)
    3248:	e0bffc17 	ldw	r2,-16(fp)
    324c:	1000051e 	bne	r2,zero,3264 <http_accept+0x5c>
    3250:	01000834 	movhi	r4,32
    3254:	21067004 	addi	r4,r4,6592
    3258:	00163cc0 	call	163cc <puts>
    325c:	00bfffc4 	movi	r2,-1
    3260:	00001706 	br	32c0 <http_accept+0xb8>
    3264:	e0bffc17 	ldw	r2,-16(fp)
    3268:	10000115 	stw	zero,4(r2)
    326c:	e0bffc17 	ldw	r2,-16(fp)
    3270:	10000015 	stw	zero,0(r2)
    3274:	e0bffc17 	ldw	r2,-16(fp)
    3278:	10000205 	stb	zero,8(r2)
    327c:	e13ffe17 	ldw	r4,-8(fp)
    3280:	e17ffc17 	ldw	r5,-16(fp)
    3284:	000bdc80 	call	bdc8 <tcp_arg>
    3288:	e13ffe17 	ldw	r4,-8(fp)
    328c:	01400034 	movhi	r5,0
    3290:	294bef04 	addi	r5,r5,12220
    3294:	000bdf80 	call	bdf8 <tcp_recv>
    3298:	e13ffe17 	ldw	r4,-8(fp)
    329c:	01400034 	movhi	r5,0
    32a0:	294b3b04 	addi	r5,r5,11500
    32a4:	000be580 	call	be58 <tcp_err>
    32a8:	e13ffe17 	ldw	r4,-8(fp)
    32ac:	01400034 	movhi	r5,0
    32b0:	294ba004 	addi	r5,r5,11904
    32b4:	01800104 	movi	r6,4
    32b8:	000beb80 	call	beb8 <tcp_poll>
    32bc:	0005883a 	mov	r2,zero
    32c0:	e037883a 	mov	sp,fp
    32c4:	dfc00117 	ldw	ra,4(sp)
    32c8:	df000017 	ldw	fp,0(sp)
    32cc:	dec00204 	addi	sp,sp,8
    32d0:	f800283a 	ret

000032d4 <httpd_init>:
    32d4:	defffd04 	addi	sp,sp,-12
    32d8:	dfc00215 	stw	ra,8(sp)
    32dc:	df000115 	stw	fp,4(sp)
    32e0:	df000104 	addi	fp,sp,4
    32e4:	000bd9c0 	call	bd9c <tcp_new>
    32e8:	e0bfff15 	stw	r2,-4(fp)
    32ec:	e13fff17 	ldw	r4,-4(fp)
    32f0:	01400834 	movhi	r5,32
    32f4:	29595304 	addi	r5,r5,25932
    32f8:	01801404 	movi	r6,80
    32fc:	000a5440 	call	a544 <tcp_bind>
    3300:	e13fff17 	ldw	r4,-4(fp)
    3304:	01403fc4 	movi	r5,255
    3308:	000a8500 	call	a850 <tcp_listen_with_backlog>
    330c:	e0bfff15 	stw	r2,-4(fp)
    3310:	e13fff17 	ldw	r4,-4(fp)
    3314:	e17fff17 	ldw	r5,-4(fp)
    3318:	000bdc80 	call	bdc8 <tcp_arg>
    331c:	e13fff17 	ldw	r4,-4(fp)
    3320:	01400034 	movhi	r5,0
    3324:	294c8204 	addi	r5,r5,12808
    3328:	000be880 	call	be88 <tcp_accept>
    332c:	e037883a 	mov	sp,fp
    3330:	dfc00117 	ldw	ra,4(sp)
    3334:	df000017 	ldw	fp,0(sp)
    3338:	dec00204 	addi	sp,sp,8
    333c:	f800283a 	ret

00003340 <tse_mac_init>:
    3340:	defff104 	addi	sp,sp,-60
    3344:	dfc00e15 	stw	ra,56(sp)
    3348:	df000d15 	stw	fp,52(sp)
    334c:	df000d04 	addi	fp,sp,52
    3350:	e13ffe15 	stw	r4,-8(fp)
    3354:	e17fff15 	stw	r5,-4(fp)
    3358:	00800134 	movhi	r2,4
    335c:	10950004 	addi	r2,r2,21504
    3360:	e0bff815 	stw	r2,-32(fp)
    3364:	00c008b4 	movhi	r3,34
    3368:	18e2b804 	addi	r3,r3,-29984
    336c:	e0bffe17 	ldw	r2,-8(fp)
    3370:	1004917a 	slli	r2,r2,5
    3374:	1885883a 	add	r2,r3,r2
    3378:	10800704 	addi	r2,r2,28
    337c:	10800017 	ldw	r2,0(r2)
    3380:	e0bff915 	stw	r2,-28(fp)
    3384:	e0bffe17 	ldw	r2,-8(fp)
    3388:	1009883a 	mov	r4,r2
    338c:	00162e80 	call	162e8 <printf>
    3390:	e0bffe17 	ldw	r2,-8(fp)
    3394:	10c01224 	muli	r3,r2,72
    3398:	00800874 	movhi	r2,33
    339c:	109d1c04 	addi	r2,r2,29808
    33a0:	1885883a 	add	r2,r3,r2
    33a4:	e0bff915 	stw	r2,-28(fp)
    33a8:	00c008b4 	movhi	r3,34
    33ac:	18e2b804 	addi	r3,r3,-29984
    33b0:	e0bffe17 	ldw	r2,-8(fp)
    33b4:	1004917a 	slli	r2,r2,5
    33b8:	1885883a 	add	r2,r3,r2
    33bc:	10800704 	addi	r2,r2,28
    33c0:	e0fff917 	ldw	r3,-28(fp)
    33c4:	10c00015 	stw	r3,0(r2)
    33c8:	00c008b4 	movhi	r3,34
    33cc:	18e2b804 	addi	r3,r3,-29984
    33d0:	e0bffe17 	ldw	r2,-8(fp)
    33d4:	1004917a 	slli	r2,r2,5
    33d8:	1885883a 	add	r2,r3,r2
    33dc:	10800604 	addi	r2,r2,24
    33e0:	e0ffff17 	ldw	r3,-4(fp)
    33e4:	10c00015 	stw	r3,0(r2)
    33e8:	e0bfff17 	ldw	r2,-4(fp)
    33ec:	e0fffe17 	ldw	r3,-8(fp)
    33f0:	10c00115 	stw	r3,4(r2)
    33f4:	e0bffe17 	ldw	r2,-8(fp)
    33f8:	1006917a 	slli	r3,r2,5
    33fc:	008008b4 	movhi	r2,34
    3400:	10a2b804 	addi	r2,r2,-29984
    3404:	1887883a 	add	r3,r3,r2
    3408:	e0bfff17 	ldw	r2,-4(fp)
    340c:	10c01215 	stw	r3,72(r2)
    3410:	e0bff917 	ldw	r2,-28(fp)
    3414:	10800817 	ldw	r2,32(r2)
    3418:	01000834 	movhi	r4,32
    341c:	21067704 	addi	r4,r4,6620
    3420:	100b883a 	mov	r5,r2
    3424:	00162e80 	call	162e8 <printf>
    3428:	e0bff917 	ldw	r2,-28(fp)
    342c:	10800783 	ldbu	r2,30(r2)
    3430:	10803fcc 	andi	r2,r2,255
    3434:	01000834 	movhi	r4,32
    3438:	21067d04 	addi	r4,r4,6644
    343c:	100b883a 	mov	r5,r2
    3440:	00162e80 	call	162e8 <printf>
    3444:	e0bff917 	ldw	r2,-28(fp)
    3448:	10800783 	ldbu	r2,30(r2)
    344c:	10803fcc 	andi	r2,r2,255
    3450:	10800058 	cmpnei	r2,r2,1
    3454:	10000e1e 	bne	r2,zero,3490 <tse_mac_init+0x150>
    3458:	e0bff917 	ldw	r2,-28(fp)
    345c:	10800817 	ldw	r2,32(r2)
    3460:	1007883a 	mov	r3,r2
    3464:	010008b4 	movhi	r4,34
    3468:	2122b804 	addi	r4,r4,-29984
    346c:	e0bffe17 	ldw	r2,-8(fp)
    3470:	1004917a 	slli	r2,r2,5
    3474:	2085883a 	add	r2,r4,r2
    3478:	10800504 	addi	r2,r2,20
    347c:	10c00015 	stw	r3,0(r2)
    3480:	01000834 	movhi	r4,32
    3484:	21068204 	addi	r4,r4,6664
    3488:	00163cc0 	call	163cc <puts>
    348c:	00001f06 	br	350c <tse_mac_init+0x1cc>
    3490:	01002804 	movi	r4,160
    3494:	002553c0 	call	2553c <alt_uncached_malloc>
    3498:	e0bff715 	stw	r2,-36(fp)
    349c:	00000306 	br	34ac <tse_mac_init+0x16c>
    34a0:	e0bff717 	ldw	r2,-36(fp)
    34a4:	10800044 	addi	r2,r2,1
    34a8:	e0bff715 	stw	r2,-36(fp)
    34ac:	e0bff717 	ldw	r2,-36(fp)
    34b0:	108007cc 	andi	r2,r2,31
    34b4:	103ffa1e 	bne	r2,zero,34a0 <tse_mac_init+0x160>
    34b8:	00c008b4 	movhi	r3,34
    34bc:	18e2b804 	addi	r3,r3,-29984
    34c0:	e0bffe17 	ldw	r2,-8(fp)
    34c4:	1004917a 	slli	r2,r2,5
    34c8:	1885883a 	add	r2,r3,r2
    34cc:	10800504 	addi	r2,r2,20
    34d0:	e0fff717 	ldw	r3,-36(fp)
    34d4:	10c00015 	stw	r3,0(r2)
    34d8:	01000834 	movhi	r4,32
    34dc:	21068604 	addi	r4,r4,6680
    34e0:	00163cc0 	call	163cc <puts>
    34e4:	e0bffe17 	ldw	r2,-8(fp)
    34e8:	1004917a 	slli	r2,r2,5
    34ec:	10c00504 	addi	r3,r2,20
    34f0:	008008b4 	movhi	r2,34
    34f4:	10a2b804 	addi	r2,r2,-29984
    34f8:	1885883a 	add	r2,r3,r2
    34fc:	01000834 	movhi	r4,32
    3500:	21068a04 	addi	r4,r4,6696
    3504:	100b883a 	mov	r5,r2
    3508:	00162e80 	call	162e8 <printf>
    350c:	01000834 	movhi	r4,32
    3510:	21069004 	addi	r4,r4,6720
    3514:	002611c0 	call	2611c <alt_avalon_sgdma_open>
    3518:	d0a03615 	stw	r2,-32552(gp)
    351c:	d0a03617 	ldw	r2,-32552(gp)
    3520:	1000051e 	bne	r2,zero,3538 <tse_mac_init+0x1f8>
    3524:	01000834 	movhi	r4,32
    3528:	21069404 	addi	r4,r4,6736
    352c:	00163cc0 	call	163cc <puts>
    3530:	00bffa84 	movi	r2,-22
    3534:	0001b706 	br	3c14 <tse_mac_init+0x8d4>
    3538:	01000834 	movhi	r4,32
    353c:	2106a104 	addi	r4,r4,6788
    3540:	00162e80 	call	162e8 <printf>
    3544:	01000834 	movhi	r4,32
    3548:	2106ac04 	addi	r4,r4,6832
    354c:	002611c0 	call	2611c <alt_avalon_sgdma_open>
    3550:	d0a04815 	stw	r2,-32480(gp)
    3554:	d0a04817 	ldw	r2,-32480(gp)
    3558:	1000051e 	bne	r2,zero,3570 <tse_mac_init+0x230>
    355c:	01000834 	movhi	r4,32
    3560:	2106b004 	addi	r4,r4,6848
    3564:	00163cc0 	call	163cc <puts>
    3568:	00bffa84 	movi	r2,-22
    356c:	0001a906 	br	3c14 <tse_mac_init+0x8d4>
    3570:	01000834 	movhi	r4,32
    3574:	2106bd04 	addi	r4,r4,6900
    3578:	00162e80 	call	162e8 <printf>
    357c:	d0a04817 	ldw	r2,-32480(gp)
    3580:	1009883a 	mov	r4,r2
    3584:	01400034 	movhi	r5,0
    3588:	2941d804 	addi	r5,r5,1888
    358c:	01800504 	movi	r6,20
    3590:	000f883a 	mov	r7,zero
    3594:	0025fbc0 	call	25fbc <alt_avalon_sgdma_register_callback>
    3598:	e0bffe17 	ldw	r2,-8(fp)
    359c:	1006917a 	slli	r3,r2,5
    35a0:	008008b4 	movhi	r2,34
    35a4:	10a2b804 	addi	r2,r2,-29984
    35a8:	1889883a 	add	r4,r3,r2
    35ac:	e0bff917 	ldw	r2,-28(fp)
    35b0:	11400017 	ldw	r5,0(r2)
    35b4:	d0a03617 	ldw	r2,-32552(gp)
    35b8:	1007883a 	mov	r3,r2
    35bc:	d0a04817 	ldw	r2,-32480(gp)
    35c0:	d8000015 	stw	zero,0(sp)
    35c4:	180d883a 	mov	r6,r3
    35c8:	100f883a 	mov	r7,r2
    35cc:	00267a00 	call	267a0 <tse_mac_initTransInfo2>
    35d0:	00c008b4 	movhi	r3,34
    35d4:	18e2b804 	addi	r3,r3,-29984
    35d8:	e0bffe17 	ldw	r2,-8(fp)
    35dc:	1004917a 	slli	r2,r2,5
    35e0:	1885883a 	add	r2,r3,r2
    35e4:	10800017 	ldw	r2,0(r2)
    35e8:	e0bffa15 	stw	r2,-24(fp)
    35ec:	00c008b4 	movhi	r3,34
    35f0:	18e2b804 	addi	r3,r3,-29984
    35f4:	e0bffe17 	ldw	r2,-8(fp)
    35f8:	1004917a 	slli	r2,r2,5
    35fc:	1885883a 	add	r2,r3,r2
    3600:	10800017 	ldw	r2,0(r2)
    3604:	1009883a 	mov	r4,r2
    3608:	0027c200 	call	27c20 <getPHYSpeed>
    360c:	e0bffb15 	stw	r2,-20(fp)
    3610:	e0bffb17 	ldw	r2,-20(fp)
    3614:	1005d07a 	srai	r2,r2,1
    3618:	108001cc 	andi	r2,r2,7
    361c:	e0bffc15 	stw	r2,-16(fp)
    3620:	e0bffb17 	ldw	r2,-20(fp)
    3624:	1080004c 	andi	r2,r2,1
    3628:	e0bff515 	stw	r2,-44(fp)
    362c:	e0bff817 	ldw	r2,-32(fp)
    3630:	10800f04 	addi	r2,r2,60
    3634:	00c00404 	movi	r3,16
    3638:	10c00015 	stw	r3,0(r2)
    363c:	e0bff817 	ldw	r2,-32(fp)
    3640:	10801004 	addi	r2,r2,64
    3644:	00c00444 	movi	r3,17
    3648:	10c00015 	stw	r3,0(r2)
    364c:	e0bff817 	ldw	r2,-32(fp)
    3650:	10809404 	addi	r2,r2,592
    3654:	00d00004 	movi	r3,16384
    3658:	10c00015 	stw	r3,0(r2)
    365c:	e0bff817 	ldw	r2,-32(fp)
    3660:	10809004 	addi	r2,r2,576
    3664:	e0fff817 	ldw	r3,-32(fp)
    3668:	18c09004 	addi	r3,r3,576
    366c:	18c00017 	ldw	r3,0(r3)
    3670:	18c01814 	ori	r3,r3,96
    3674:	10c00015 	stw	r3,0(r2)
    3678:	e0bff817 	ldw	r2,-32(fp)
    367c:	10809404 	addi	r2,r2,592
    3680:	e0fff817 	ldw	r3,-32(fp)
    3684:	18c09404 	addi	r3,r3,592
    3688:	18c00017 	ldw	r3,0(r3)
    368c:	18c02094 	ori	r3,r3,130
    3690:	10c00015 	stw	r3,0(r2)
    3694:	e0bff817 	ldw	r2,-32(fp)
    3698:	10808004 	addi	r2,r2,512
    369c:	e0fff817 	ldw	r3,-32(fp)
    36a0:	18c08004 	addi	r3,r3,512
    36a4:	18c00017 	ldw	r3,0(r3)
    36a8:	18e00014 	ori	r3,r3,32768
    36ac:	10c00015 	stw	r3,0(r2)
    36b0:	0001883a 	nop
    36b4:	e0bff817 	ldw	r2,-32(fp)
    36b8:	10808004 	addi	r2,r2,512
    36bc:	10800017 	ldw	r2,0(r2)
    36c0:	10a0000c 	andi	r2,r2,32768
    36c4:	103ffb1e 	bne	r2,zero,36b4 <tse_mac_init+0x374>
    36c8:	e0bff817 	ldw	r2,-32(fp)
    36cc:	10800204 	addi	r2,r2,8
    36d0:	e0fff817 	ldw	r3,-32(fp)
    36d4:	18c00204 	addi	r3,r3,8
    36d8:	18c00017 	ldw	r3,0(r3)
    36dc:	18c80014 	ori	r3,r3,8192
    36e0:	10c00015 	stw	r3,0(r2)
    36e4:	0001883a 	nop
    36e8:	e0bff817 	ldw	r2,-32(fp)
    36ec:	10800204 	addi	r2,r2,8
    36f0:	10800017 	ldw	r2,0(r2)
    36f4:	1088000c 	andi	r2,r2,8192
    36f8:	103ffb1e 	bne	r2,zero,36e8 <tse_mac_init+0x3a8>
    36fc:	e03ff615 	stw	zero,-40(fp)
    3700:	00000706 	br	3720 <tse_mac_init+0x3e0>
    3704:	e0bff617 	ldw	r2,-40(fp)
    3708:	1089c448 	cmpgei	r2,r2,10001
    370c:	e0fff617 	ldw	r3,-40(fp)
    3710:	18c00044 	addi	r3,r3,1
    3714:	e0fff615 	stw	r3,-40(fp)
    3718:	10803fcc 	andi	r2,r2,255
    371c:	10000b1e 	bne	r2,zero,374c <tse_mac_init+0x40c>
    3720:	00c008b4 	movhi	r3,34
    3724:	18e2b804 	addi	r3,r3,-29984
    3728:	e0bffe17 	ldw	r2,-8(fp)
    372c:	1004917a 	slli	r2,r2,5
    3730:	1885883a 	add	r2,r3,r2
    3734:	10800017 	ldw	r2,0(r2)
    3738:	10800204 	addi	r2,r2,8
    373c:	10800037 	ldwio	r2,0(r2)
    3740:	1088000c 	andi	r2,r2,8192
    3744:	103fef1e 	bne	r2,zero,3704 <tse_mac_init+0x3c4>
    3748:	00000106 	br	3750 <tse_mac_init+0x410>
    374c:	0001883a 	nop
    3750:	e0bff617 	ldw	r2,-40(fp)
    3754:	1089c410 	cmplti	r2,r2,10000
    3758:	1000031e 	bne	r2,zero,3768 <tse_mac_init+0x428>
    375c:	01000834 	movhi	r4,32
    3760:	2106c804 	addi	r4,r4,6944
    3764:	00163cc0 	call	163cc <puts>
    3768:	00c008b4 	movhi	r3,34
    376c:	18e2b804 	addi	r3,r3,-29984
    3770:	e0bffe17 	ldw	r2,-8(fp)
    3774:	1004917a 	slli	r2,r2,5
    3778:	1885883a 	add	r2,r3,r2
    377c:	10800017 	ldw	r2,0(r2)
    3780:	10800204 	addi	r2,r2,8
    3784:	10800037 	ldwio	r2,0(r2)
    3788:	e0bff415 	stw	r2,-48(fp)
    378c:	01000834 	movhi	r4,32
    3790:	2106d104 	addi	r4,r4,6980
    3794:	00163cc0 	call	163cc <puts>
    3798:	e0bff417 	ldw	r2,-48(fp)
    379c:	108000cc 	andi	r2,r2,3
    37a0:	10000b26 	beq	r2,zero,37d0 <tse_mac_init+0x490>
    37a4:	e0bff417 	ldw	r2,-48(fp)
    37a8:	1009883a 	mov	r4,r2
    37ac:	00162e80 	call	162e8 <printf>
    37b0:	01000834 	movhi	r4,32
    37b4:	2106de04 	addi	r4,r4,7032
    37b8:	e17ff417 	ldw	r5,-48(fp)
    37bc:	00162e80 	call	162e8 <printf>
    37c0:	01000834 	movhi	r4,32
    37c4:	2106f204 	addi	r4,r4,7112
    37c8:	00163cc0 	call	163cc <puts>
    37cc:	00000b06 	br	37fc <tse_mac_init+0x4bc>
    37d0:	e0bff417 	ldw	r2,-48(fp)
    37d4:	1009883a 	mov	r4,r2
    37d8:	00162e80 	call	162e8 <printf>
    37dc:	01000834 	movhi	r4,32
    37e0:	2106f704 	addi	r4,r4,7132
    37e4:	e17ff617 	ldw	r5,-40(fp)
    37e8:	e1bff417 	ldw	r6,-48(fp)
    37ec:	00162e80 	call	162e8 <printf>
    37f0:	01000834 	movhi	r4,32
    37f4:	2106ff04 	addi	r4,r4,7164
    37f8:	00163cc0 	call	163cc <puts>
    37fc:	01000834 	movhi	r4,32
    3800:	21070304 	addi	r4,r4,7180
    3804:	00163cc0 	call	163cc <puts>
    3808:	e0bffa17 	ldw	r2,-24(fp)
    380c:	10800504 	addi	r2,r2,20
    3810:	00c17b84 	movi	r3,1518
    3814:	10c00035 	stwio	r3,0(r2)
    3818:	e0bffa17 	ldw	r2,-24(fp)
    381c:	10800b04 	addi	r2,r2,44
    3820:	00c00204 	movi	r3,8
    3824:	10c00035 	stwio	r3,0(r2)
    3828:	e0bffa17 	ldw	r2,-24(fp)
    382c:	10800c04 	addi	r2,r2,48
    3830:	00c00204 	movi	r3,8
    3834:	10c00035 	stwio	r3,0(r2)
    3838:	e0bffa17 	ldw	r2,-24(fp)
    383c:	10800d04 	addi	r2,r2,52
    3840:	00c00204 	movi	r3,8
    3844:	10c00035 	stwio	r3,0(r2)
    3848:	e0bffa17 	ldw	r2,-24(fp)
    384c:	10800e04 	addi	r2,r2,56
    3850:	00c000c4 	movi	r3,3
    3854:	10c00035 	stwio	r3,0(r2)
    3858:	e0bffa17 	ldw	r2,-24(fp)
    385c:	10800904 	addi	r2,r2,36
    3860:	e0fff917 	ldw	r3,-28(fp)
    3864:	18c0010b 	ldhu	r3,4(r3)
    3868:	18ffffcc 	andi	r3,r3,65535
    386c:	18fffc04 	addi	r3,r3,-16
    3870:	10c00035 	stwio	r3,0(r2)
    3874:	e0bffa17 	ldw	r2,-24(fp)
    3878:	10800a04 	addi	r2,r2,40
    387c:	0007883a 	mov	r3,zero
    3880:	10c00035 	stwio	r3,0(r2)
    3884:	e0bffa17 	ldw	r2,-24(fp)
    3888:	10800704 	addi	r2,r2,28
    388c:	e0fff917 	ldw	r3,-28(fp)
    3890:	18c0018b 	ldhu	r3,6(r3)
    3894:	18ffffcc 	andi	r3,r3,65535
    3898:	18fffc04 	addi	r3,r3,-16
    389c:	10c00035 	stwio	r3,0(r2)
    38a0:	e0bffa17 	ldw	r2,-24(fp)
    38a4:	10800804 	addi	r2,r2,32
    38a8:	0007883a 	mov	r3,zero
    38ac:	10c00035 	stwio	r3,0(r2)
    38b0:	00c008b4 	movhi	r3,34
    38b4:	18e2b804 	addi	r3,r3,-29984
    38b8:	e0bffe17 	ldw	r2,-8(fp)
    38bc:	1004917a 	slli	r2,r2,5
    38c0:	1885883a 	add	r2,r3,r2
    38c4:	10800017 	ldw	r2,0(r2)
    38c8:	10803a04 	addi	r2,r2,232
    38cc:	00c00134 	movhi	r3,4
    38d0:	10c00035 	stwio	r3,0(r2)
    38d4:	00c008b4 	movhi	r3,34
    38d8:	18e2b804 	addi	r3,r3,-29984
    38dc:	e0bffe17 	ldw	r2,-8(fp)
    38e0:	1004917a 	slli	r2,r2,5
    38e4:	1885883a 	add	r2,r3,r2
    38e8:	10800017 	ldw	r2,0(r2)
    38ec:	10803a04 	addi	r2,r2,232
    38f0:	10800037 	ldwio	r2,0(r2)
    38f4:	1080012c 	andhi	r2,r2,4
    38f8:	1000041e 	bne	r2,zero,390c <tse_mac_init+0x5cc>
    38fc:	01000084 	movi	r4,2
    3900:	00162e80 	call	162e8 <printf>
    3904:	00bffd04 	movi	r2,-12
    3908:	0000c206 	br	3c14 <tse_mac_init+0x8d4>
    390c:	00c008b4 	movhi	r3,34
    3910:	18e2b804 	addi	r3,r3,-29984
    3914:	e0bffe17 	ldw	r2,-8(fp)
    3918:	1004917a 	slli	r2,r2,5
    391c:	1885883a 	add	r2,r3,r2
    3920:	10800017 	ldw	r2,0(r2)
    3924:	10803b04 	addi	r2,r2,236
    3928:	10800037 	ldwio	r2,0(r2)
    392c:	1080802c 	andhi	r2,r2,512
    3930:	1000041e 	bne	r2,zero,3944 <tse_mac_init+0x604>
    3934:	01000084 	movi	r4,2
    3938:	00162e80 	call	162e8 <printf>
    393c:	00bffd04 	movi	r2,-12
    3940:	0000b406 	br	3c14 <tse_mac_init+0x8d4>
    3944:	e0bffa17 	ldw	r2,-24(fp)
    3948:	10800304 	addi	r2,r2,12
    394c:	e0ffff17 	ldw	r3,-4(fp)
    3950:	18c00017 	ldw	r3,0(r3)
    3954:	18c00003 	ldbu	r3,0(r3)
    3958:	19003fcc 	andi	r4,r3,255
    395c:	e0ffff17 	ldw	r3,-4(fp)
    3960:	18c00017 	ldw	r3,0(r3)
    3964:	18c00043 	ldbu	r3,1(r3)
    3968:	18c03fcc 	andi	r3,r3,255
    396c:	1806923a 	slli	r3,r3,8
    3970:	20c8b03a 	or	r4,r4,r3
    3974:	e0ffff17 	ldw	r3,-4(fp)
    3978:	18c00017 	ldw	r3,0(r3)
    397c:	18c00083 	ldbu	r3,2(r3)
    3980:	18c03fcc 	andi	r3,r3,255
    3984:	1806943a 	slli	r3,r3,16
    3988:	20c8b03a 	or	r4,r4,r3
    398c:	e0ffff17 	ldw	r3,-4(fp)
    3990:	18c00017 	ldw	r3,0(r3)
    3994:	18c000c3 	ldbu	r3,3(r3)
    3998:	18c03fcc 	andi	r3,r3,255
    399c:	1806963a 	slli	r3,r3,24
    39a0:	20c6b03a 	or	r3,r4,r3
    39a4:	10c00035 	stwio	r3,0(r2)
    39a8:	e0bffa17 	ldw	r2,-24(fp)
    39ac:	10800404 	addi	r2,r2,16
    39b0:	e0ffff17 	ldw	r3,-4(fp)
    39b4:	18c00017 	ldw	r3,0(r3)
    39b8:	18c00103 	ldbu	r3,4(r3)
    39bc:	19003fcc 	andi	r4,r3,255
    39c0:	e0ffff17 	ldw	r3,-4(fp)
    39c4:	18c00017 	ldw	r3,0(r3)
    39c8:	18c00143 	ldbu	r3,5(r3)
    39cc:	18c03fcc 	andi	r3,r3,255
    39d0:	1806923a 	slli	r3,r3,8
    39d4:	20c6b03a 	or	r3,r4,r3
    39d8:	18ffffcc 	andi	r3,r3,65535
    39dc:	10c00035 	stwio	r3,0(r2)
    39e0:	e0bffb17 	ldw	r2,-20(fp)
    39e4:	1080022c 	andhi	r2,r2,8
    39e8:	1000461e 	bne	r2,zero,3b04 <tse_mac_init+0x7c4>
    39ec:	e0bffb17 	ldw	r2,-20(fp)
    39f0:	1005d07a 	srai	r2,r2,1
    39f4:	108001cc 	andi	r2,r2,7
    39f8:	e0bffc15 	stw	r2,-16(fp)
    39fc:	e0bffb17 	ldw	r2,-20(fp)
    3a00:	1080004c 	andi	r2,r2,1
    3a04:	e0bff515 	stw	r2,-44(fp)
    3a08:	e0bffc17 	ldw	r2,-16(fp)
    3a0c:	10800058 	cmpnei	r2,r2,1
    3a10:	1000121e 	bne	r2,zero,3a5c <tse_mac_init+0x71c>
    3a14:	e0bff417 	ldw	r2,-48(fp)
    3a18:	10800214 	ori	r2,r2,8
    3a1c:	e0bff415 	stw	r2,-48(fp)
    3a20:	e0fff417 	ldw	r3,-48(fp)
    3a24:	00bf8034 	movhi	r2,65024
    3a28:	10bfffc4 	addi	r2,r2,-1
    3a2c:	1884703a 	and	r2,r3,r2
    3a30:	e0bff415 	stw	r2,-48(fp)
    3a34:	00c008b4 	movhi	r3,34
    3a38:	18e2b804 	addi	r3,r3,-29984
    3a3c:	e0bffe17 	ldw	r2,-8(fp)
    3a40:	1004917a 	slli	r2,r2,5
    3a44:	1885883a 	add	r2,r3,r2
    3a48:	10800604 	addi	r2,r2,24
    3a4c:	10800017 	ldw	r2,0(r2)
    3a50:	00c0fa04 	movi	r3,1000
    3a54:	10c00315 	stw	r3,12(r2)
    3a58:	00003306 	br	3b28 <tse_mac_init+0x7e8>
    3a5c:	e0bffc17 	ldw	r2,-16(fp)
    3a60:	10800098 	cmpnei	r2,r2,2
    3a64:	1000131e 	bne	r2,zero,3ab4 <tse_mac_init+0x774>
    3a68:	e0fff417 	ldw	r3,-48(fp)
    3a6c:	00bffdc4 	movi	r2,-9
    3a70:	1884703a 	and	r2,r3,r2
    3a74:	e0bff415 	stw	r2,-48(fp)
    3a78:	e0fff417 	ldw	r3,-48(fp)
    3a7c:	00bf8034 	movhi	r2,65024
    3a80:	10bfffc4 	addi	r2,r2,-1
    3a84:	1884703a 	and	r2,r3,r2
    3a88:	e0bff415 	stw	r2,-48(fp)
    3a8c:	00c008b4 	movhi	r3,34
    3a90:	18e2b804 	addi	r3,r3,-29984
    3a94:	e0bffe17 	ldw	r2,-8(fp)
    3a98:	1004917a 	slli	r2,r2,5
    3a9c:	1885883a 	add	r2,r3,r2
    3aa0:	10800604 	addi	r2,r2,24
    3aa4:	10800017 	ldw	r2,0(r2)
    3aa8:	00c01904 	movi	r3,100
    3aac:	10c00315 	stw	r3,12(r2)
    3ab0:	00001d06 	br	3b28 <tse_mac_init+0x7e8>
    3ab4:	e0bffc17 	ldw	r2,-16(fp)
    3ab8:	10800118 	cmpnei	r2,r2,4
    3abc:	10001a1e 	bne	r2,zero,3b28 <tse_mac_init+0x7e8>
    3ac0:	e0fff417 	ldw	r3,-48(fp)
    3ac4:	00bffdc4 	movi	r2,-9
    3ac8:	1884703a 	and	r2,r3,r2
    3acc:	e0bff415 	stw	r2,-48(fp)
    3ad0:	e0bff417 	ldw	r2,-48(fp)
    3ad4:	10808034 	orhi	r2,r2,512
    3ad8:	e0bff415 	stw	r2,-48(fp)
    3adc:	00c008b4 	movhi	r3,34
    3ae0:	18e2b804 	addi	r3,r3,-29984
    3ae4:	e0bffe17 	ldw	r2,-8(fp)
    3ae8:	1004917a 	slli	r2,r2,5
    3aec:	1885883a 	add	r2,r3,r2
    3af0:	10800604 	addi	r2,r2,24
    3af4:	10800017 	ldw	r2,0(r2)
    3af8:	00c00284 	movi	r3,10
    3afc:	10c00315 	stw	r3,12(r2)
    3b00:	00000906 	br	3b28 <tse_mac_init+0x7e8>
    3b04:	e0fff417 	ldw	r3,-48(fp)
    3b08:	00bffdc4 	movi	r2,-9
    3b0c:	1884703a 	and	r2,r3,r2
    3b10:	e0bff415 	stw	r2,-48(fp)
    3b14:	e0fff417 	ldw	r3,-48(fp)
    3b18:	00bf8034 	movhi	r2,65024
    3b1c:	10bfffc4 	addi	r2,r2,-1
    3b20:	1884703a 	and	r2,r3,r2
    3b24:	e0bff415 	stw	r2,-48(fp)
    3b28:	e0bff517 	ldw	r2,-44(fp)
    3b2c:	10000c1e 	bne	r2,zero,3b60 <tse_mac_init+0x820>
    3b30:	e0bff417 	ldw	r2,-48(fp)
    3b34:	10810014 	ori	r2,r2,1024
    3b38:	e0bff415 	stw	r2,-48(fp)
    3b3c:	00c008b4 	movhi	r3,34
    3b40:	18e2b804 	addi	r3,r3,-29984
    3b44:	e0bffe17 	ldw	r2,-8(fp)
    3b48:	1004917a 	slli	r2,r2,5
    3b4c:	1885883a 	add	r2,r3,r2
    3b50:	10800604 	addi	r2,r2,24
    3b54:	10800017 	ldw	r2,0(r2)
    3b58:	10000415 	stw	zero,16(r2)
    3b5c:	00000d06 	br	3b94 <tse_mac_init+0x854>
    3b60:	e0fff417 	ldw	r3,-48(fp)
    3b64:	00beffc4 	movi	r2,-1025
    3b68:	1884703a 	and	r2,r3,r2
    3b6c:	e0bff415 	stw	r2,-48(fp)
    3b70:	00c008b4 	movhi	r3,34
    3b74:	18e2b804 	addi	r3,r3,-29984
    3b78:	e0bffe17 	ldw	r2,-8(fp)
    3b7c:	1004917a 	slli	r2,r2,5
    3b80:	1885883a 	add	r2,r3,r2
    3b84:	10800604 	addi	r2,r2,24
    3b88:	10800017 	ldw	r2,0(r2)
    3b8c:	00c00044 	movi	r3,1
    3b90:	10c00415 	stw	r3,16(r2)
    3b94:	e0bffe17 	ldw	r2,-8(fp)
    3b98:	1006917a 	slli	r3,r2,5
    3b9c:	008008b4 	movhi	r2,34
    3ba0:	10a2b804 	addi	r2,r2,-29984
    3ba4:	1885883a 	add	r2,r3,r2
    3ba8:	1009883a 	mov	r4,r2
    3bac:	0003c280 	call	3c28 <tse_sgdma_read_init>
    3bb0:	e13ffa17 	ldw	r4,-24(fp)
    3bb4:	00279dc0 	call	279dc <alt_tse_get_mac_info>
    3bb8:	e0bffd15 	stw	r2,-12(fp)
    3bbc:	e0bffd17 	ldw	r2,-12(fp)
    3bc0:	10c00117 	ldw	r3,4(r2)
    3bc4:	e0bffd17 	ldw	r2,-12(fp)
    3bc8:	10800117 	ldw	r2,4(r2)
    3bcc:	10800003 	ldbu	r2,0(r2)
    3bd0:	10803fcc 	andi	r2,r2,255
    3bd4:	1809883a 	mov	r4,r3
    3bd8:	100b883a 	mov	r5,r2
    3bdc:	00286dc0 	call	286dc <alt_tse_phy_wr_mdio_addr>
    3be0:	e0bffd17 	ldw	r2,-12(fp)
    3be4:	10800117 	ldw	r2,4(r2)
    3be8:	1009883a 	mov	r4,r2
    3bec:	01400044 	movi	r5,1
    3bf0:	01800144 	movi	r6,5
    3bf4:	01c00044 	movi	r7,1
    3bf8:	00288600 	call	28860 <alt_tse_phy_rd_mdio_reg>
    3bfc:	1004c03a 	cmpne	r2,r2,zero
    3c00:	10c03fcc 	andi	r3,r2,255
    3c04:	e0bfff17 	ldw	r2,-4(fp)
    3c08:	10c00215 	stw	r3,8(r2)
    3c0c:	e0bfff17 	ldw	r2,-4(fp)
    3c10:	10800217 	ldw	r2,8(r2)
    3c14:	e037883a 	mov	sp,fp
    3c18:	dfc00117 	ldw	ra,4(sp)
    3c1c:	df000017 	ldw	fp,0(sp)
    3c20:	dec00204 	addi	sp,sp,8
    3c24:	f800283a 	ret

00003c28 <tse_sgdma_read_init>:
    3c28:	defffc04 	addi	sp,sp,-16
    3c2c:	dfc00315 	stw	ra,12(sp)
    3c30:	df000215 	stw	fp,8(sp)
    3c34:	df000204 	addi	fp,sp,8
    3c38:	e13fff15 	stw	r4,-4(fp)
    3c3c:	e0bfff17 	ldw	r2,-4(fp)
    3c40:	10800617 	ldw	r2,24(r2)
    3c44:	e0bffe15 	stw	r2,-8(fp)
    3c48:	01000834 	movhi	r4,32
    3c4c:	21070f04 	addi	r4,r4,7228
    3c50:	00163cc0 	call	163cc <puts>
    3c54:	e0ffff17 	ldw	r3,-4(fp)
    3c58:	e0bfff17 	ldw	r2,-4(fp)
    3c5c:	10800517 	ldw	r2,20(r2)
    3c60:	10801004 	addi	r2,r2,64
    3c64:	1809883a 	mov	r4,r3
    3c68:	100b883a 	mov	r5,r2
    3c6c:	00268e00 	call	268e0 <tse_mac_aRxRead>
    3c70:	0005883a 	mov	r2,zero
    3c74:	e037883a 	mov	sp,fp
    3c78:	dfc00117 	ldw	ra,4(sp)
    3c7c:	df000017 	ldw	fp,0(sp)
    3c80:	dec00204 	addi	sp,sp,8
    3c84:	f800283a 	ret

00003c88 <tse_sgdmaRx_isr>:
    3c88:	defffb04 	addi	sp,sp,-20
    3c8c:	dfc00415 	stw	ra,16(sp)
    3c90:	df000315 	stw	fp,12(sp)
    3c94:	df000304 	addi	fp,sp,12
    3c98:	e13ffe15 	stw	r4,-8(fp)
    3c9c:	e17fff15 	stw	r5,-4(fp)
    3ca0:	e0bffe17 	ldw	r2,-8(fp)
    3ca4:	e0bffd15 	stw	r2,-12(fp)
    3ca8:	e0bffd17 	ldw	r2,-12(fp)
    3cac:	10800217 	ldw	r2,8(r2)
    3cb0:	10800304 	addi	r2,r2,12
    3cb4:	10800404 	addi	r2,r2,16
    3cb8:	00e00034 	movhi	r3,32768
    3cbc:	10c00035 	stwio	r3,0(r2)
    3cc0:	e0bffd17 	ldw	r2,-12(fp)
    3cc4:	10800617 	ldw	r2,24(r2)
    3cc8:	1009883a 	mov	r4,r2
    3ccc:	0003e980 	call	3e98 <tse_mac_rcv>
    3cd0:	e0fffd17 	ldw	r3,-12(fp)
    3cd4:	e0bffd17 	ldw	r2,-12(fp)
    3cd8:	10800517 	ldw	r2,20(r2)
    3cdc:	10801004 	addi	r2,r2,64
    3ce0:	1809883a 	mov	r4,r3
    3ce4:	100b883a 	mov	r5,r2
    3ce8:	00268e00 	call	268e0 <tse_mac_aRxRead>
    3cec:	e0bffd17 	ldw	r2,-12(fp)
    3cf0:	10800217 	ldw	r2,8(r2)
    3cf4:	10800304 	addi	r2,r2,12
    3cf8:	10800404 	addi	r2,r2,16
    3cfc:	00c00604 	movi	r3,24
    3d00:	10c00035 	stwio	r3,0(r2)
    3d04:	01000834 	movhi	r4,32
    3d08:	21071404 	addi	r4,r4,7248
    3d0c:	00162e80 	call	162e8 <printf>
    3d10:	0005883a 	mov	r2,zero
    3d14:	e037883a 	mov	sp,fp
    3d18:	dfc00117 	ldw	ra,4(sp)
    3d1c:	df000017 	ldw	fp,0(sp)
    3d20:	dec00204 	addi	sp,sp,8
    3d24:	f800283a 	ret

00003d28 <tse_mac_raw_send>:
    3d28:	defe6a04 	addi	sp,sp,-1624
    3d2c:	dfc19515 	stw	ra,1620(sp)
    3d30:	df019415 	stw	fp,1616(sp)
    3d34:	df019404 	addi	fp,sp,1616
    3d38:	e13ffe15 	stw	r4,-8(fp)
    3d3c:	e17fff15 	stw	r5,-4(fp)
    3d40:	e0bffe17 	ldw	r2,-8(fp)
    3d44:	10800717 	ldw	r2,28(r2)
    3d48:	e0be7215 	stw	r2,-1592(fp)
    3d4c:	e0be7217 	ldw	r2,-1592(fp)
    3d50:	10801217 	ldw	r2,72(r2)
    3d54:	e0be7315 	stw	r2,-1588(fp)
    3d58:	e0be7317 	ldw	r2,-1588(fp)
    3d5c:	e0be7415 	stw	r2,-1584(fp)
    3d60:	e0bfff17 	ldw	r2,-4(fp)
    3d64:	e0be7015 	stw	r2,-1600(fp)
    3d68:	00003b06 	br	3e58 <tse_mac_raw_send+0x130>
    3d6c:	e0be7017 	ldw	r2,-1600(fp)
    3d70:	10800117 	ldw	r2,4(r2)
    3d74:	e0be7115 	stw	r2,-1596(fp)
    3d78:	e0be7017 	ldw	r2,-1600(fp)
    3d7c:	1080028b 	ldhu	r2,10(r2)
    3d80:	10bfffcc 	andi	r2,r2,65535
    3d84:	e0be7515 	stw	r2,-1580(fp)
    3d88:	e0be7117 	ldw	r2,-1596(fp)
    3d8c:	108000cc 	andi	r2,r2,3
    3d90:	10000726 	beq	r2,zero,3db0 <tse_mac_raw_send+0x88>
    3d94:	e0be7804 	addi	r2,fp,-1568
    3d98:	1009883a 	mov	r4,r2
    3d9c:	e17e7117 	ldw	r5,-1596(fp)
    3da0:	e1be7517 	ldw	r6,-1580(fp)
    3da4:	00160e80 	call	160e8 <memcpy>
    3da8:	e0be7804 	addi	r2,fp,-1568
    3dac:	e0be7115 	stw	r2,-1596(fp)
    3db0:	e13e7117 	ldw	r4,-1596(fp)
    3db4:	e17e7517 	ldw	r5,-1580(fp)
    3db8:	002544c0 	call	2544c <alt_remap_uncached>
    3dbc:	e0be7615 	stw	r2,-1576(fp)
    3dc0:	e0be7317 	ldw	r2,-1588(fp)
    3dc4:	11000517 	ldw	r4,20(r2)
    3dc8:	e0be7317 	ldw	r2,-1588(fp)
    3dcc:	10800517 	ldw	r2,20(r2)
    3dd0:	10c00804 	addi	r3,r2,32
    3dd4:	e0be7517 	ldw	r2,-1580(fp)
    3dd8:	10bfffcc 	andi	r2,r2,65535
    3ddc:	e1be7017 	ldw	r6,-1600(fp)
    3de0:	e17fff17 	ldw	r5,-4(fp)
    3de4:	314b003a 	cmpeq	r5,r6,r5
    3de8:	29803fcc 	andi	r6,r5,255
    3dec:	e17e7017 	ldw	r5,-1600(fp)
    3df0:	29400017 	ldw	r5,0(r5)
    3df4:	280b003a 	cmpeq	r5,r5,zero
    3df8:	29403fcc 	andi	r5,r5,255
    3dfc:	d8000015 	stw	zero,0(sp)
    3e00:	d9800115 	stw	r6,4(sp)
    3e04:	d9400215 	stw	r5,8(sp)
    3e08:	d8000315 	stw	zero,12(sp)
    3e0c:	180b883a 	mov	r5,r3
    3e10:	e1be7617 	ldw	r6,-1576(fp)
    3e14:	100f883a 	mov	r7,r2
    3e18:	0025eb80 	call	25eb8 <alt_avalon_sgdma_construct_mem_to_stream_desc>
    3e1c:	e0be7317 	ldw	r2,-1588(fp)
    3e20:	10800517 	ldw	r2,20(r2)
    3e24:	e13e7417 	ldw	r4,-1584(fp)
    3e28:	100b883a 	mov	r5,r2
    3e2c:	00268000 	call	26800 <tse_mac_sTxWrite>
    3e30:	e0be7715 	stw	r2,-1572(fp)
    3e34:	e0be7217 	ldw	r2,-1592(fp)
    3e38:	10c00517 	ldw	r3,20(r2)
    3e3c:	e0be7717 	ldw	r2,-1572(fp)
    3e40:	1887883a 	add	r3,r3,r2
    3e44:	e0be7217 	ldw	r2,-1592(fp)
    3e48:	10c00515 	stw	r3,20(r2)
    3e4c:	e0be7017 	ldw	r2,-1600(fp)
    3e50:	10800017 	ldw	r2,0(r2)
    3e54:	e0be7015 	stw	r2,-1600(fp)
    3e58:	e0be7017 	ldw	r2,-1600(fp)
    3e5c:	103fc31e 	bne	r2,zero,3d6c <tse_mac_raw_send+0x44>
    3e60:	008008b4 	movhi	r2,34
    3e64:	10a2f804 	addi	r2,r2,-29728
    3e68:	1080000b 	ldhu	r2,0(r2)
    3e6c:	10800044 	addi	r2,r2,1
    3e70:	1007883a 	mov	r3,r2
    3e74:	008008b4 	movhi	r2,34
    3e78:	10a2f804 	addi	r2,r2,-29728
    3e7c:	10c0000d 	sth	r3,0(r2)
    3e80:	0005883a 	mov	r2,zero
    3e84:	e037883a 	mov	sp,fp
    3e88:	dfc00117 	ldw	ra,4(sp)
    3e8c:	df000017 	ldw	fp,0(sp)
    3e90:	dec00204 	addi	sp,sp,8
    3e94:	f800283a 	ret

00003e98 <tse_mac_rcv>:
    3e98:	defff904 	addi	sp,sp,-28
    3e9c:	dfc00615 	stw	ra,24(sp)
    3ea0:	df000515 	stw	fp,20(sp)
    3ea4:	df000504 	addi	fp,sp,20
    3ea8:	e13fff15 	stw	r4,-4(fp)
    3eac:	01000834 	movhi	r4,32
    3eb0:	21071b04 	addi	r4,r4,7276
    3eb4:	00162e80 	call	162e8 <printf>
    3eb8:	e0bfff17 	ldw	r2,-4(fp)
    3ebc:	10801217 	ldw	r2,72(r2)
    3ec0:	e0bffb15 	stw	r2,-20(fp)
    3ec4:	e0bffb17 	ldw	r2,-20(fp)
    3ec8:	10800517 	ldw	r2,20(r2)
    3ecc:	10801004 	addi	r2,r2,64
    3ed0:	10800704 	addi	r2,r2,28
    3ed4:	1080002b 	ldhuio	r2,0(r2)
    3ed8:	10bfffcc 	andi	r2,r2,65535
    3edc:	e0bffc15 	stw	r2,-16(fp)
    3ee0:	e0bfff17 	ldw	r2,-4(fp)
    3ee4:	10800f17 	ldw	r2,60(r2)
    3ee8:	e0ffff17 	ldw	r3,-4(fp)
    3eec:	108001c4 	addi	r2,r2,7
    3ef0:	1085883a 	add	r2,r2,r2
    3ef4:	1085883a 	add	r2,r2,r2
    3ef8:	1885883a 	add	r2,r3,r2
    3efc:	10800017 	ldw	r2,0(r2)
    3f00:	e0bffd15 	stw	r2,-12(fp)
    3f04:	e0bffc17 	ldw	r2,-16(fp)
    3f08:	1007883a 	mov	r3,r2
    3f0c:	e0bffd17 	ldw	r2,-12(fp)
    3f10:	10c0020d 	sth	r3,8(r2)
    3f14:	e0bffc17 	ldw	r2,-16(fp)
    3f18:	1007883a 	mov	r3,r2
    3f1c:	e0bffd17 	ldw	r2,-12(fp)
    3f20:	10c0028d 	sth	r3,10(r2)
    3f24:	e0bffb17 	ldw	r2,-20(fp)
    3f28:	10800517 	ldw	r2,20(r2)
    3f2c:	10801704 	addi	r2,r2,92
    3f30:	10800037 	ldwio	r2,0(r2)
    3f34:	1005d43a 	srai	r2,r2,16
    3f38:	10801fcc 	andi	r2,r2,127
    3f3c:	1000231e 	bne	r2,zero,3fcc <tse_mac_rcv+0x134>
    3f40:	e0bfff17 	ldw	r2,-4(fp)
    3f44:	10801117 	ldw	r2,68(r2)
    3f48:	10800250 	cmplti	r2,r2,9
    3f4c:	1000091e 	bne	r2,zero,3f74 <tse_mac_rcv+0xdc>
    3f50:	008008b4 	movhi	r2,34
    3f54:	10a2f804 	addi	r2,r2,-29728
    3f58:	1080018b 	ldhu	r2,6(r2)
    3f5c:	10800044 	addi	r2,r2,1
    3f60:	1007883a 	mov	r3,r2
    3f64:	008008b4 	movhi	r2,34
    3f68:	10a2f804 	addi	r2,r2,-29728
    3f6c:	10c0018d 	sth	r3,6(r2)
    3f70:	00001606 	br	3fcc <tse_mac_rcv+0x134>
    3f74:	e0bfff17 	ldw	r2,-4(fp)
    3f78:	10c00617 	ldw	r3,24(r2)
    3f7c:	e0bffc17 	ldw	r2,-16(fp)
    3f80:	1887883a 	add	r3,r3,r2
    3f84:	e0bfff17 	ldw	r2,-4(fp)
    3f88:	10c00615 	stw	r3,24(r2)
    3f8c:	e0bfff17 	ldw	r2,-4(fp)
    3f90:	10801117 	ldw	r2,68(r2)
    3f94:	10c00044 	addi	r3,r2,1
    3f98:	e0bfff17 	ldw	r2,-4(fp)
    3f9c:	10c01115 	stw	r3,68(r2)
    3fa0:	e0bfff17 	ldw	r2,-4(fp)
    3fa4:	10800f17 	ldw	r2,60(r2)
    3fa8:	10c00044 	addi	r3,r2,1
    3fac:	e0bfff17 	ldw	r2,-4(fp)
    3fb0:	10c00f15 	stw	r3,60(r2)
    3fb4:	e0bfff17 	ldw	r2,-4(fp)
    3fb8:	10800f17 	ldw	r2,60(r2)
    3fbc:	10800210 	cmplti	r2,r2,8
    3fc0:	1000021e 	bne	r2,zero,3fcc <tse_mac_rcv+0x134>
    3fc4:	e0bfff17 	ldw	r2,-4(fp)
    3fc8:	10000f15 	stw	zero,60(r2)
    3fcc:	e0bfff17 	ldw	r2,-4(fp)
    3fd0:	10800f17 	ldw	r2,60(r2)
    3fd4:	e0ffff17 	ldw	r3,-4(fp)
    3fd8:	108001c4 	addi	r2,r2,7
    3fdc:	1085883a 	add	r2,r2,r2
    3fe0:	1085883a 	add	r2,r2,r2
    3fe4:	1885883a 	add	r2,r3,r2
    3fe8:	10800017 	ldw	r2,0(r2)
    3fec:	10800117 	ldw	r2,4(r2)
    3ff0:	e0bffe15 	stw	r2,-8(fp)
    3ff4:	0005883a 	mov	r2,zero
    3ff8:	e037883a 	mov	sp,fp
    3ffc:	dfc00117 	ldw	ra,4(sp)
    4000:	df000017 	ldw	fp,0(sp)
    4004:	dec00204 	addi	sp,sp,8
    4008:	f800283a 	ret

0000400c <lwip_init>:
    400c:	defffe04 	addi	sp,sp,-8
    4010:	dfc00115 	stw	ra,4(sp)
    4014:	df000015 	stw	fp,0(sp)
    4018:	d839883a 	mov	fp,sp
    401c:	00073c80 	call	73c8 <mem_init>
    4020:	0007d780 	call	7d78 <memp_init>
    4024:	e037883a 	mov	sp,fp
    4028:	dfc00117 	ldw	ra,4(sp)
    402c:	df000017 	ldw	fp,0(sp)
    4030:	dec00204 	addi	sp,sp,8
    4034:	f800283a 	ret

00004038 <icmp_input>:
    4038:	defff204 	addi	sp,sp,-56
    403c:	dfc00d15 	stw	ra,52(sp)
    4040:	df000c15 	stw	fp,48(sp)
    4044:	df000c04 	addi	fp,sp,48
    4048:	e13ffe15 	stw	r4,-8(fp)
    404c:	e17fff15 	stw	r5,-4(fp)
    4050:	008008b4 	movhi	r2,34
    4054:	10a2f804 	addi	r2,r2,-29728
    4058:	1080188b 	ldhu	r2,98(r2)
    405c:	10800044 	addi	r2,r2,1
    4060:	1007883a 	mov	r3,r2
    4064:	008008b4 	movhi	r2,34
    4068:	10a2f804 	addi	r2,r2,-29728
    406c:	10c0188d 	sth	r3,98(r2)
    4070:	e0bffe17 	ldw	r2,-8(fp)
    4074:	10800117 	ldw	r2,4(r2)
    4078:	e0bff715 	stw	r2,-36(fp)
    407c:	e0bff717 	ldw	r2,-36(fp)
    4080:	1080000b 	ldhu	r2,0(r2)
    4084:	10bfffcc 	andi	r2,r2,65535
    4088:	1004d23a 	srli	r2,r2,8
    408c:	10ffffcc 	andi	r3,r2,65535
    4090:	e0bff717 	ldw	r2,-36(fp)
    4094:	1080000b 	ldhu	r2,0(r2)
    4098:	10bfffcc 	andi	r2,r2,65535
    409c:	1004923a 	slli	r2,r2,8
    40a0:	10bfffcc 	andi	r2,r2,65535
    40a4:	1884b03a 	or	r2,r3,r2
    40a8:	1005d23a 	srai	r2,r2,8
    40ac:	108003cc 	andi	r2,r2,15
    40b0:	1085883a 	add	r2,r2,r2
    40b4:	1085883a 	add	r2,r2,r2
    40b8:	e0bff90d 	sth	r2,-28(fp)
    40bc:	e0bff90b 	ldhu	r2,-28(fp)
    40c0:	0085c83a 	sub	r2,zero,r2
    40c4:	10bfffcc 	andi	r2,r2,65535
    40c8:	10a0001c 	xori	r2,r2,32768
    40cc:	10a00004 	addi	r2,r2,-32768
    40d0:	e13ffe17 	ldw	r4,-8(fp)
    40d4:	100b883a 	mov	r5,r2
    40d8:	0008f2c0 	call	8f2c <pbuf_header>
    40dc:	10803fcc 	andi	r2,r2,255
    40e0:	10013d1e 	bne	r2,zero,45d8 <icmp_input+0x5a0>
    40e4:	e0bffe17 	ldw	r2,-8(fp)
    40e8:	1080020b 	ldhu	r2,8(r2)
    40ec:	10bfffcc 	andi	r2,r2,65535
    40f0:	10800130 	cmpltui	r2,r2,4
    40f4:	1001381e 	bne	r2,zero,45d8 <icmp_input+0x5a0>
    40f8:	e0bffe17 	ldw	r2,-8(fp)
    40fc:	10800117 	ldw	r2,4(r2)
    4100:	10800003 	ldbu	r2,0(r2)
    4104:	e0bff985 	stb	r2,-26(fp)
    4108:	e0bff983 	ldbu	r2,-26(fp)
    410c:	10800220 	cmpeqi	r2,r2,8
    4110:	10011d26 	beq	r2,zero,4588 <icmp_input+0x550>
    4114:	00800044 	movi	r2,1
    4118:	e0bff815 	stw	r2,-32(fp)
    411c:	e0bff717 	ldw	r2,-36(fp)
    4120:	10c0040b 	ldhu	r3,16(r2)
    4124:	1080048b 	ldhu	r2,18(r2)
    4128:	1004943a 	slli	r2,r2,16
    412c:	10c4b03a 	or	r2,r2,r3
    4130:	10803c0c 	andi	r2,r2,240
    4134:	10803818 	cmpnei	r2,r2,224
    4138:	1000011e 	bne	r2,zero,4140 <icmp_input+0x108>
    413c:	e03ff815 	stw	zero,-32(fp)
    4140:	e0bff717 	ldw	r2,-36(fp)
    4144:	10800404 	addi	r2,r2,16
    4148:	1009883a 	mov	r4,r2
    414c:	e17fff17 	ldw	r5,-4(fp)
    4150:	0005df40 	call	5df4 <ip_addr_isbroadcast>
    4154:	10803fcc 	andi	r2,r2,255
    4158:	10000126 	beq	r2,zero,4160 <icmp_input+0x128>
    415c:	e03ff815 	stw	zero,-32(fp)
    4160:	e0bff817 	ldw	r2,-32(fp)
    4164:	10000b1e 	bne	r2,zero,4194 <icmp_input+0x15c>
    4168:	008008b4 	movhi	r2,34
    416c:	10a2f804 	addi	r2,r2,-29728
    4170:	10801d0b 	ldhu	r2,116(r2)
    4174:	10800044 	addi	r2,r2,1
    4178:	1007883a 	mov	r3,r2
    417c:	008008b4 	movhi	r2,34
    4180:	10a2f804 	addi	r2,r2,-29728
    4184:	10c01d0d 	sth	r3,116(r2)
    4188:	e13ffe17 	ldw	r4,-8(fp)
    418c:	00091200 	call	9120 <pbuf_free>
    4190:	00012706 	br	4630 <icmp_input+0x5f8>
    4194:	e0bffe17 	ldw	r2,-8(fp)
    4198:	1080020b 	ldhu	r2,8(r2)
    419c:	10bfffcc 	andi	r2,r2,65535
    41a0:	10800228 	cmpgeui	r2,r2,8
    41a4:	10010b26 	beq	r2,zero,45d4 <icmp_input+0x59c>
    41a8:	e13ffe17 	ldw	r4,-8(fp)
    41ac:	00051680 	call	5168 <inet_chksum_pbuf>
    41b0:	10bfffcc 	andi	r2,r2,65535
    41b4:	10000b26 	beq	r2,zero,41e4 <icmp_input+0x1ac>
    41b8:	e13ffe17 	ldw	r4,-8(fp)
    41bc:	00091200 	call	9120 <pbuf_free>
    41c0:	008008b4 	movhi	r2,34
    41c4:	10a2f804 	addi	r2,r2,-29728
    41c8:	10801a0b 	ldhu	r2,104(r2)
    41cc:	10800044 	addi	r2,r2,1
    41d0:	1007883a 	mov	r3,r2
    41d4:	008008b4 	movhi	r2,34
    41d8:	10a2f804 	addi	r2,r2,-29728
    41dc:	10c01a0d 	sth	r3,104(r2)
    41e0:	00011306 	br	4630 <icmp_input+0x5f8>
    41e4:	e13ffe17 	ldw	r4,-8(fp)
    41e8:	01400884 	movi	r5,34
    41ec:	0008f2c0 	call	8f2c <pbuf_header>
    41f0:	10803fcc 	andi	r2,r2,255
    41f4:	10005326 	beq	r2,zero,4344 <icmp_input+0x30c>
    41f8:	e0bff90f 	ldh	r2,-28(fp)
    41fc:	e13ffe17 	ldw	r4,-8(fp)
    4200:	100b883a 	mov	r5,r2
    4204:	0008f2c0 	call	8f2c <pbuf_header>
    4208:	10803fcc 	andi	r2,r2,255
    420c:	10000926 	beq	r2,zero,4234 <icmp_input+0x1fc>
    4210:	01000834 	movhi	r4,32
    4214:	21072104 	addi	r4,r4,7300
    4218:	01400834 	movhi	r5,32
    421c:	29472b04 	addi	r5,r5,7340
    4220:	01802584 	movi	r6,150
    4224:	01c00834 	movhi	r7,32
    4228:	39c73804 	addi	r7,r7,7392
    422c:	00162e80 	call	162e8 <printf>
    4230:	003fff06 	br	4230 <icmp_input+0x1f8>
    4234:	e0bffe17 	ldw	r2,-8(fp)
    4238:	1080020b 	ldhu	r2,8(r2)
    423c:	10bfffcc 	andi	r2,r2,65535
    4240:	01000084 	movi	r4,2
    4244:	100b883a 	mov	r5,r2
    4248:	000d883a 	mov	r6,zero
    424c:	00087f80 	call	87f8 <pbuf_alloc>
    4250:	e0bffa15 	stw	r2,-24(fp)
    4254:	e0bffa17 	ldw	r2,-24(fp)
    4258:	1000ea26 	beq	r2,zero,4604 <icmp_input+0x5cc>
    425c:	e0bffa17 	ldw	r2,-24(fp)
    4260:	1080028b 	ldhu	r2,10(r2)
    4264:	10ffffcc 	andi	r3,r2,65535
    4268:	e0bff90f 	ldh	r2,-28(fp)
    426c:	10800204 	addi	r2,r2,8
    4270:	1880092e 	bgeu	r3,r2,4298 <icmp_input+0x260>
    4274:	01000834 	movhi	r4,32
    4278:	21072104 	addi	r4,r4,7300
    427c:	01400834 	movhi	r5,32
    4280:	29473e04 	addi	r5,r5,7416
    4284:	01802804 	movi	r6,160
    4288:	01c00834 	movhi	r7,32
    428c:	39c73804 	addi	r7,r7,7392
    4290:	00162e80 	call	162e8 <printf>
    4294:	003fff06 	br	4294 <icmp_input+0x25c>
    4298:	e13ffa17 	ldw	r4,-24(fp)
    429c:	e17ffe17 	ldw	r5,-8(fp)
    42a0:	00095c40 	call	95c4 <pbuf_copy>
    42a4:	10803fcc 	andi	r2,r2,255
    42a8:	1080201c 	xori	r2,r2,128
    42ac:	10bfe004 	addi	r2,r2,-128
    42b0:	10000926 	beq	r2,zero,42d8 <icmp_input+0x2a0>
    42b4:	01000834 	movhi	r4,32
    42b8:	21072104 	addi	r4,r4,7300
    42bc:	01400834 	movhi	r5,32
    42c0:	29474c04 	addi	r5,r5,7472
    42c4:	018028c4 	movi	r6,163
    42c8:	01c00834 	movhi	r7,32
    42cc:	39c73804 	addi	r7,r7,7392
    42d0:	00162e80 	call	162e8 <printf>
    42d4:	003fff06 	br	42d4 <icmp_input+0x29c>
    42d8:	e0bffa17 	ldw	r2,-24(fp)
    42dc:	10800117 	ldw	r2,4(r2)
    42e0:	e0bff715 	stw	r2,-36(fp)
    42e4:	e0bff90b 	ldhu	r2,-28(fp)
    42e8:	0085c83a 	sub	r2,zero,r2
    42ec:	10bfffcc 	andi	r2,r2,65535
    42f0:	10a0001c 	xori	r2,r2,32768
    42f4:	10a00004 	addi	r2,r2,-32768
    42f8:	e13ffa17 	ldw	r4,-24(fp)
    42fc:	100b883a 	mov	r5,r2
    4300:	0008f2c0 	call	8f2c <pbuf_header>
    4304:	10803fcc 	andi	r2,r2,255
    4308:	10000926 	beq	r2,zero,4330 <icmp_input+0x2f8>
    430c:	01000834 	movhi	r4,32
    4310:	21072104 	addi	r4,r4,7300
    4314:	01400834 	movhi	r5,32
    4318:	29475604 	addi	r5,r5,7512
    431c:	01802a44 	movi	r6,169
    4320:	01c00834 	movhi	r7,32
    4324:	39c73804 	addi	r7,r7,7392
    4328:	00162e80 	call	162e8 <printf>
    432c:	003fff06 	br	432c <icmp_input+0x2f4>
    4330:	e13ffe17 	ldw	r4,-8(fp)
    4334:	00091200 	call	9120 <pbuf_free>
    4338:	e0bffa17 	ldw	r2,-24(fp)
    433c:	e0bffe15 	stw	r2,-8(fp)
    4340:	00000e06 	br	437c <icmp_input+0x344>
    4344:	e13ffe17 	ldw	r4,-8(fp)
    4348:	017ff784 	movi	r5,-34
    434c:	0008f2c0 	call	8f2c <pbuf_header>
    4350:	10803fcc 	andi	r2,r2,255
    4354:	10000926 	beq	r2,zero,437c <icmp_input+0x344>
    4358:	01000834 	movhi	r4,32
    435c:	21072104 	addi	r4,r4,7300
    4360:	01400834 	movhi	r5,32
    4364:	29475604 	addi	r5,r5,7512
    4368:	01802cc4 	movi	r6,179
    436c:	01c00834 	movhi	r7,32
    4370:	39c73804 	addi	r7,r7,7392
    4374:	00162e80 	call	162e8 <printf>
    4378:	003fff06 	br	4378 <icmp_input+0x340>
    437c:	e0bffe17 	ldw	r2,-8(fp)
    4380:	10800117 	ldw	r2,4(r2)
    4384:	e0bffb15 	stw	r2,-20(fp)
    4388:	e0bff717 	ldw	r2,-36(fp)
    438c:	10c0030b 	ldhu	r3,12(r2)
    4390:	1080038b 	ldhu	r2,14(r2)
    4394:	1004943a 	slli	r2,r2,16
    4398:	10c4b03a 	or	r2,r2,r3
    439c:	10ffffcc 	andi	r3,r2,65535
    43a0:	e13ffc8b 	ldhu	r4,-14(fp)
    43a4:	2008703a 	and	r4,r4,zero
    43a8:	20c6b03a 	or	r3,r4,r3
    43ac:	e0fffc8d 	sth	r3,-14(fp)
    43b0:	1004d43a 	srli	r2,r2,16
    43b4:	e0fffd0b 	ldhu	r3,-12(fp)
    43b8:	1806703a 	and	r3,r3,zero
    43bc:	1884b03a 	or	r2,r3,r2
    43c0:	e0bffd0d 	sth	r2,-12(fp)
    43c4:	e0bff717 	ldw	r2,-36(fp)
    43c8:	10c0040b 	ldhu	r3,16(r2)
    43cc:	1080048b 	ldhu	r2,18(r2)
    43d0:	1004943a 	slli	r2,r2,16
    43d4:	10c4b03a 	or	r2,r2,r3
    43d8:	1007883a 	mov	r3,r2
    43dc:	e0bff717 	ldw	r2,-36(fp)
    43e0:	193fffcc 	andi	r4,r3,65535
    43e4:	1140030b 	ldhu	r5,12(r2)
    43e8:	280a703a 	and	r5,r5,zero
    43ec:	2908b03a 	or	r4,r5,r4
    43f0:	1100030d 	sth	r4,12(r2)
    43f4:	1806d43a 	srli	r3,r3,16
    43f8:	1100038b 	ldhu	r4,14(r2)
    43fc:	2008703a 	and	r4,r4,zero
    4400:	20c6b03a 	or	r3,r4,r3
    4404:	10c0038d 	sth	r3,14(r2)
    4408:	e0bffc8b 	ldhu	r2,-14(fp)
    440c:	e0fffd0b 	ldhu	r3,-12(fp)
    4410:	1806943a 	slli	r3,r3,16
    4414:	1884b03a 	or	r2,r3,r2
    4418:	1007883a 	mov	r3,r2
    441c:	e0bff717 	ldw	r2,-36(fp)
    4420:	193fffcc 	andi	r4,r3,65535
    4424:	1140040b 	ldhu	r5,16(r2)
    4428:	280a703a 	and	r5,r5,zero
    442c:	2908b03a 	or	r4,r5,r4
    4430:	1100040d 	sth	r4,16(r2)
    4434:	1806d43a 	srli	r3,r3,16
    4438:	1100048b 	ldhu	r4,18(r2)
    443c:	2008703a 	and	r4,r4,zero
    4440:	20c6b03a 	or	r3,r4,r3
    4444:	10c0048d 	sth	r3,18(r2)
    4448:	e0bffb17 	ldw	r2,-20(fp)
    444c:	10000005 	stb	zero,0(r2)
    4450:	e0bffb17 	ldw	r2,-20(fp)
    4454:	1080008b 	ldhu	r2,2(r2)
    4458:	10bfffcc 	andi	r2,r2,65535
    445c:	10bffdf0 	cmpltui	r2,r2,65527
    4460:	1000071e 	bne	r2,zero,4480 <icmp_input+0x448>
    4464:	e0bffb17 	ldw	r2,-20(fp)
    4468:	1080008b 	ldhu	r2,2(r2)
    446c:	10800244 	addi	r2,r2,9
    4470:	1007883a 	mov	r3,r2
    4474:	e0bffb17 	ldw	r2,-20(fp)
    4478:	10c0008d 	sth	r3,2(r2)
    447c:	00000606 	br	4498 <icmp_input+0x460>
    4480:	e0bffb17 	ldw	r2,-20(fp)
    4484:	1080008b 	ldhu	r2,2(r2)
    4488:	10800204 	addi	r2,r2,8
    448c:	1007883a 	mov	r3,r2
    4490:	e0bffb17 	ldw	r2,-20(fp)
    4494:	10c0008d 	sth	r3,2(r2)
    4498:	e0bff717 	ldw	r2,-36(fp)
    449c:	1080020b 	ldhu	r2,8(r2)
    44a0:	10bfffcc 	andi	r2,r2,65535
    44a4:	1004d23a 	srli	r2,r2,8
    44a8:	10ffffcc 	andi	r3,r2,65535
    44ac:	e0bff717 	ldw	r2,-36(fp)
    44b0:	1080020b 	ldhu	r2,8(r2)
    44b4:	10bfffcc 	andi	r2,r2,65535
    44b8:	1004923a 	slli	r2,r2,8
    44bc:	10bfffcc 	andi	r2,r2,65535
    44c0:	1884b03a 	or	r2,r3,r2
    44c4:	1004923a 	slli	r2,r2,8
    44c8:	10803fd4 	ori	r2,r2,255
    44cc:	1007883a 	mov	r3,r2
    44d0:	e0bff717 	ldw	r2,-36(fp)
    44d4:	10c0020d 	sth	r3,8(r2)
    44d8:	e0bff717 	ldw	r2,-36(fp)
    44dc:	1000028d 	sth	zero,10(r2)
    44e0:	e13ff717 	ldw	r4,-36(fp)
    44e4:	01400504 	movi	r5,20
    44e8:	00051240 	call	5124 <inet_chksum>
    44ec:	e0fff717 	ldw	r3,-36(fp)
    44f0:	1880028d 	sth	r2,10(r3)
    44f4:	008008b4 	movhi	r2,34
    44f8:	10a2f804 	addi	r2,r2,-29728
    44fc:	1080180b 	ldhu	r2,96(r2)
    4500:	10800044 	addi	r2,r2,1
    4504:	1007883a 	mov	r3,r2
    4508:	008008b4 	movhi	r2,34
    450c:	10a2f804 	addi	r2,r2,-29728
    4510:	10c0180d 	sth	r3,96(r2)
    4514:	e0bff90f 	ldh	r2,-28(fp)
    4518:	e13ffe17 	ldw	r4,-8(fp)
    451c:	100b883a 	mov	r5,r2
    4520:	0008f2c0 	call	8f2c <pbuf_header>
    4524:	10803fcc 	andi	r2,r2,255
    4528:	10000926 	beq	r2,zero,4550 <icmp_input+0x518>
    452c:	01000834 	movhi	r4,32
    4530:	21072104 	addi	r4,r4,7300
    4534:	01400834 	movhi	r5,32
    4538:	29476304 	addi	r5,r5,7564
    453c:	01803544 	movi	r6,213
    4540:	01c00834 	movhi	r7,32
    4544:	39c73804 	addi	r7,r7,7392
    4548:	00162e80 	call	162e8 <printf>
    454c:	003fff06 	br	454c <icmp_input+0x514>
    4550:	e0bff717 	ldw	r2,-36(fp)
    4554:	10800304 	addi	r2,r2,12
    4558:	d8000015 	stw	zero,0(sp)
    455c:	00c00044 	movi	r3,1
    4560:	d8c00115 	stw	r3,4(sp)
    4564:	e0ffff17 	ldw	r3,-4(fp)
    4568:	d8c00215 	stw	r3,8(sp)
    456c:	e13ffe17 	ldw	r4,-8(fp)
    4570:	100b883a 	mov	r5,r2
    4574:	000d883a 	mov	r6,zero
    4578:	01c03fc4 	movi	r7,255
    457c:	00058a40 	call	58a4 <ip_output_if>
    4580:	e0bffc05 	stb	r2,-16(fp)
    4584:	00001006 	br	45c8 <icmp_input+0x590>
    4588:	008008b4 	movhi	r2,34
    458c:	10a2f804 	addi	r2,r2,-29728
    4590:	10801c0b 	ldhu	r2,112(r2)
    4594:	10800044 	addi	r2,r2,1
    4598:	1007883a 	mov	r3,r2
    459c:	008008b4 	movhi	r2,34
    45a0:	10a2f804 	addi	r2,r2,-29728
    45a4:	10c01c0d 	sth	r3,112(r2)
    45a8:	008008b4 	movhi	r2,34
    45ac:	10a2f804 	addi	r2,r2,-29728
    45b0:	1080198b 	ldhu	r2,102(r2)
    45b4:	10800044 	addi	r2,r2,1
    45b8:	1007883a 	mov	r3,r2
    45bc:	008008b4 	movhi	r2,34
    45c0:	10a2f804 	addi	r2,r2,-29728
    45c4:	10c0198d 	sth	r3,102(r2)
    45c8:	e13ffe17 	ldw	r4,-8(fp)
    45cc:	00091200 	call	9120 <pbuf_free>
    45d0:	00001706 	br	4630 <icmp_input+0x5f8>
    45d4:	0001883a 	nop
    45d8:	e13ffe17 	ldw	r4,-8(fp)
    45dc:	00091200 	call	9120 <pbuf_free>
    45e0:	008008b4 	movhi	r2,34
    45e4:	10a2f804 	addi	r2,r2,-29728
    45e8:	10801a8b 	ldhu	r2,106(r2)
    45ec:	10800044 	addi	r2,r2,1
    45f0:	1007883a 	mov	r3,r2
    45f4:	008008b4 	movhi	r2,34
    45f8:	10a2f804 	addi	r2,r2,-29728
    45fc:	10c01a8d 	sth	r3,106(r2)
    4600:	00000b06 	br	4630 <icmp_input+0x5f8>
    4604:	0001883a 	nop
    4608:	e13ffe17 	ldw	r4,-8(fp)
    460c:	00091200 	call	9120 <pbuf_free>
    4610:	008008b4 	movhi	r2,34
    4614:	10a2f804 	addi	r2,r2,-29728
    4618:	10801d0b 	ldhu	r2,116(r2)
    461c:	10800044 	addi	r2,r2,1
    4620:	1007883a 	mov	r3,r2
    4624:	008008b4 	movhi	r2,34
    4628:	10a2f804 	addi	r2,r2,-29728
    462c:	10c01d0d 	sth	r3,116(r2)
    4630:	e037883a 	mov	sp,fp
    4634:	dfc00117 	ldw	ra,4(sp)
    4638:	df000017 	ldw	fp,0(sp)
    463c:	dec00204 	addi	sp,sp,8
    4640:	f800283a 	ret

00004644 <icmp_dest_unreach>:
    4644:	defffc04 	addi	sp,sp,-16
    4648:	dfc00315 	stw	ra,12(sp)
    464c:	df000215 	stw	fp,8(sp)
    4650:	df000204 	addi	fp,sp,8
    4654:	e13ffe15 	stw	r4,-8(fp)
    4658:	e17fff15 	stw	r5,-4(fp)
    465c:	e0bfff17 	ldw	r2,-4(fp)
    4660:	10803fcc 	andi	r2,r2,255
    4664:	e13ffe17 	ldw	r4,-8(fp)
    4668:	014000c4 	movi	r5,3
    466c:	100d883a 	mov	r6,r2
    4670:	00046cc0 	call	46cc <icmp_send_response>
    4674:	e037883a 	mov	sp,fp
    4678:	dfc00117 	ldw	ra,4(sp)
    467c:	df000017 	ldw	fp,0(sp)
    4680:	dec00204 	addi	sp,sp,8
    4684:	f800283a 	ret

00004688 <icmp_time_exceeded>:
    4688:	defffc04 	addi	sp,sp,-16
    468c:	dfc00315 	stw	ra,12(sp)
    4690:	df000215 	stw	fp,8(sp)
    4694:	df000204 	addi	fp,sp,8
    4698:	e13ffe15 	stw	r4,-8(fp)
    469c:	e17fff15 	stw	r5,-4(fp)
    46a0:	e0bfff17 	ldw	r2,-4(fp)
    46a4:	10803fcc 	andi	r2,r2,255
    46a8:	e13ffe17 	ldw	r4,-8(fp)
    46ac:	014002c4 	movi	r5,11
    46b0:	100d883a 	mov	r6,r2
    46b4:	00046cc0 	call	46cc <icmp_send_response>
    46b8:	e037883a 	mov	sp,fp
    46bc:	dfc00117 	ldw	ra,4(sp)
    46c0:	df000017 	ldw	fp,0(sp)
    46c4:	dec00204 	addi	sp,sp,8
    46c8:	f800283a 	ret

000046cc <icmp_send_response>:
    46cc:	defff604 	addi	sp,sp,-40
    46d0:	dfc00915 	stw	ra,36(sp)
    46d4:	df000815 	stw	fp,32(sp)
    46d8:	df000804 	addi	fp,sp,32
    46dc:	e13ffd15 	stw	r4,-12(fp)
    46e0:	2807883a 	mov	r3,r5
    46e4:	3005883a 	mov	r2,r6
    46e8:	e0fffe05 	stb	r3,-8(fp)
    46ec:	e0bfff05 	stb	r2,-4(fp)
    46f0:	01000044 	movi	r4,1
    46f4:	01400904 	movi	r5,36
    46f8:	000d883a 	mov	r6,zero
    46fc:	00087f80 	call	87f8 <pbuf_alloc>
    4700:	e0bffa15 	stw	r2,-24(fp)
    4704:	e0bffa17 	ldw	r2,-24(fp)
    4708:	10004626 	beq	r2,zero,4824 <icmp_send_response+0x158>
    470c:	e0bffa17 	ldw	r2,-24(fp)
    4710:	1080028b 	ldhu	r2,10(r2)
    4714:	10bfffcc 	andi	r2,r2,65535
    4718:	10800928 	cmpgeui	r2,r2,36
    471c:	1000091e 	bne	r2,zero,4744 <icmp_send_response+0x78>
    4720:	01000834 	movhi	r4,32
    4724:	21072104 	addi	r4,r4,7300
    4728:	01400834 	movhi	r5,32
    472c:	29476c04 	addi	r5,r5,7600
    4730:	01804b04 	movi	r6,300
    4734:	01c00834 	movhi	r7,32
    4738:	39c73804 	addi	r7,r7,7392
    473c:	00162e80 	call	162e8 <printf>
    4740:	003fff06 	br	4740 <icmp_send_response+0x74>
    4744:	e0bffd17 	ldw	r2,-12(fp)
    4748:	10800117 	ldw	r2,4(r2)
    474c:	e0bffb15 	stw	r2,-20(fp)
    4750:	e0bffa17 	ldw	r2,-24(fp)
    4754:	10800117 	ldw	r2,4(r2)
    4758:	e0bffc15 	stw	r2,-16(fp)
    475c:	e0bffc17 	ldw	r2,-16(fp)
    4760:	e0fffe03 	ldbu	r3,-8(fp)
    4764:	10c00005 	stb	r3,0(r2)
    4768:	e0bffc17 	ldw	r2,-16(fp)
    476c:	e0ffff03 	ldbu	r3,-4(fp)
    4770:	10c00045 	stb	r3,1(r2)
    4774:	e0bffc17 	ldw	r2,-16(fp)
    4778:	1000010d 	sth	zero,4(r2)
    477c:	e0bffc17 	ldw	r2,-16(fp)
    4780:	1000018d 	sth	zero,6(r2)
    4784:	e0bffa17 	ldw	r2,-24(fp)
    4788:	10800117 	ldw	r2,4(r2)
    478c:	10c00204 	addi	r3,r2,8
    4790:	e0bffd17 	ldw	r2,-12(fp)
    4794:	10800117 	ldw	r2,4(r2)
    4798:	1809883a 	mov	r4,r3
    479c:	100b883a 	mov	r5,r2
    47a0:	01800704 	movi	r6,28
    47a4:	00160e80 	call	160e8 <memcpy>
    47a8:	e0bffc17 	ldw	r2,-16(fp)
    47ac:	1000008d 	sth	zero,2(r2)
    47b0:	e0bffa17 	ldw	r2,-24(fp)
    47b4:	1080028b 	ldhu	r2,10(r2)
    47b8:	10bfffcc 	andi	r2,r2,65535
    47bc:	e13ffc17 	ldw	r4,-16(fp)
    47c0:	100b883a 	mov	r5,r2
    47c4:	00051240 	call	5124 <inet_chksum>
    47c8:	e0fffc17 	ldw	r3,-16(fp)
    47cc:	1880008d 	sth	r2,2(r3)
    47d0:	008008b4 	movhi	r2,34
    47d4:	10a2f804 	addi	r2,r2,-29728
    47d8:	1080180b 	ldhu	r2,96(r2)
    47dc:	10800044 	addi	r2,r2,1
    47e0:	1007883a 	mov	r3,r2
    47e4:	008008b4 	movhi	r2,34
    47e8:	10a2f804 	addi	r2,r2,-29728
    47ec:	10c0180d 	sth	r3,96(r2)
    47f0:	e0bffb17 	ldw	r2,-20(fp)
    47f4:	10800304 	addi	r2,r2,12
    47f8:	d8000015 	stw	zero,0(sp)
    47fc:	00c00044 	movi	r3,1
    4800:	d8c00115 	stw	r3,4(sp)
    4804:	e13ffa17 	ldw	r4,-24(fp)
    4808:	000b883a 	mov	r5,zero
    480c:	100d883a 	mov	r6,r2
    4810:	01c03fc4 	movi	r7,255
    4814:	0005d400 	call	5d40 <ip_output>
    4818:	e13ffa17 	ldw	r4,-24(fp)
    481c:	00091200 	call	9120 <pbuf_free>
    4820:	00000106 	br	4828 <icmp_send_response+0x15c>
    4824:	0001883a 	nop
    4828:	e037883a 	mov	sp,fp
    482c:	dfc00117 	ldw	ra,4(sp)
    4830:	df000017 	ldw	fp,0(sp)
    4834:	dec00204 	addi	sp,sp,8
    4838:	f800283a 	ret

0000483c <inet_addr>:
    483c:	defffc04 	addi	sp,sp,-16
    4840:	dfc00315 	stw	ra,12(sp)
    4844:	df000215 	stw	fp,8(sp)
    4848:	df000204 	addi	fp,sp,8
    484c:	e13fff15 	stw	r4,-4(fp)
    4850:	e13fff17 	ldw	r4,-4(fp)
    4854:	e17ffe04 	addi	r5,fp,-8
    4858:	00048800 	call	4880 <inet_aton>
    485c:	10000226 	beq	r2,zero,4868 <inet_addr+0x2c>
    4860:	e0bffe17 	ldw	r2,-8(fp)
    4864:	00000106 	br	486c <inet_addr+0x30>
    4868:	00bfffc4 	movi	r2,-1
    486c:	e037883a 	mov	sp,fp
    4870:	dfc00117 	ldw	ra,4(sp)
    4874:	df000017 	ldw	fp,0(sp)
    4878:	dec00204 	addi	sp,sp,8
    487c:	f800283a 	ret

00004880 <inet_aton>:
    4880:	defff604 	addi	sp,sp,-40
    4884:	df000915 	stw	fp,36(sp)
    4888:	df000904 	addi	fp,sp,36
    488c:	e13ffe15 	stw	r4,-8(fp)
    4890:	e17fff15 	stw	r5,-4(fp)
    4894:	e0bffa04 	addi	r2,fp,-24
    4898:	e0bff915 	stw	r2,-28(fp)
    489c:	e0bffe17 	ldw	r2,-8(fp)
    48a0:	10800003 	ldbu	r2,0(r2)
    48a4:	e0bff845 	stb	r2,-31(fp)
    48a8:	e0bff843 	ldbu	r2,-31(fp)
    48ac:	10803fcc 	andi	r2,r2,255
    48b0:	10800c30 	cmpltui	r2,r2,48
    48b4:	1000041e 	bne	r2,zero,48c8 <inet_aton+0x48>
    48b8:	e0bff843 	ldbu	r2,-31(fp)
    48bc:	10803fcc 	andi	r2,r2,255
    48c0:	10800eb0 	cmpltui	r2,r2,58
    48c4:	1000021e 	bne	r2,zero,48d0 <inet_aton+0x50>
    48c8:	0005883a 	mov	r2,zero
    48cc:	0000e606 	br	4c68 <inet_aton+0x3e8>
    48d0:	e03ff715 	stw	zero,-36(fp)
    48d4:	00800284 	movi	r2,10
    48d8:	e0bff805 	stb	r2,-32(fp)
    48dc:	e0bff847 	ldb	r2,-31(fp)
    48e0:	10800c18 	cmpnei	r2,r2,48
    48e4:	1000171e 	bne	r2,zero,4944 <inet_aton+0xc4>
    48e8:	e0bffe17 	ldw	r2,-8(fp)
    48ec:	10800044 	addi	r2,r2,1
    48f0:	e0bffe15 	stw	r2,-8(fp)
    48f4:	e0bffe17 	ldw	r2,-8(fp)
    48f8:	10800003 	ldbu	r2,0(r2)
    48fc:	e0bff845 	stb	r2,-31(fp)
    4900:	e0bff847 	ldb	r2,-31(fp)
    4904:	10801e20 	cmpeqi	r2,r2,120
    4908:	1000031e 	bne	r2,zero,4918 <inet_aton+0x98>
    490c:	e0bff847 	ldb	r2,-31(fp)
    4910:	10801618 	cmpnei	r2,r2,88
    4914:	1000091e 	bne	r2,zero,493c <inet_aton+0xbc>
    4918:	00800404 	movi	r2,16
    491c:	e0bff805 	stb	r2,-32(fp)
    4920:	e0bffe17 	ldw	r2,-8(fp)
    4924:	10800044 	addi	r2,r2,1
    4928:	e0bffe15 	stw	r2,-8(fp)
    492c:	e0bffe17 	ldw	r2,-8(fp)
    4930:	10800003 	ldbu	r2,0(r2)
    4934:	e0bff845 	stb	r2,-31(fp)
    4938:	00000206 	br	4944 <inet_aton+0xc4>
    493c:	00800204 	movi	r2,8
    4940:	e0bff805 	stb	r2,-32(fp)
    4944:	e0bff843 	ldbu	r2,-31(fp)
    4948:	10803fcc 	andi	r2,r2,255
    494c:	10800c30 	cmpltui	r2,r2,48
    4950:	1000121e 	bne	r2,zero,499c <inet_aton+0x11c>
    4954:	e0bff843 	ldbu	r2,-31(fp)
    4958:	10803fcc 	andi	r2,r2,255
    495c:	10800ea8 	cmpgeui	r2,r2,58
    4960:	10000e1e 	bne	r2,zero,499c <inet_aton+0x11c>
    4964:	e0fff803 	ldbu	r3,-32(fp)
    4968:	e0bff717 	ldw	r2,-36(fp)
    496c:	1887383a 	mul	r3,r3,r2
    4970:	e0bff847 	ldb	r2,-31(fp)
    4974:	1885883a 	add	r2,r3,r2
    4978:	10bff404 	addi	r2,r2,-48
    497c:	e0bff715 	stw	r2,-36(fp)
    4980:	e0bffe17 	ldw	r2,-8(fp)
    4984:	10800044 	addi	r2,r2,1
    4988:	e0bffe15 	stw	r2,-8(fp)
    498c:	e0bffe17 	ldw	r2,-8(fp)
    4990:	10800003 	ldbu	r2,0(r2)
    4994:	e0bff845 	stb	r2,-31(fp)
    4998:	003fea06 	br	4944 <inet_aton+0xc4>
    499c:	e0bff803 	ldbu	r2,-32(fp)
    49a0:	10800418 	cmpnei	r2,r2,16
    49a4:	1000311e 	bne	r2,zero,4a6c <inet_aton+0x1ec>
    49a8:	e0bff843 	ldbu	r2,-31(fp)
    49ac:	10803fcc 	andi	r2,r2,255
    49b0:	10800c30 	cmpltui	r2,r2,48
    49b4:	1000041e 	bne	r2,zero,49c8 <inet_aton+0x148>
    49b8:	e0bff843 	ldbu	r2,-31(fp)
    49bc:	10803fcc 	andi	r2,r2,255
    49c0:	10800eb0 	cmpltui	r2,r2,58
    49c4:	1000101e 	bne	r2,zero,4a08 <inet_aton+0x188>
    49c8:	e0bff843 	ldbu	r2,-31(fp)
    49cc:	10803fcc 	andi	r2,r2,255
    49d0:	10801870 	cmpltui	r2,r2,97
    49d4:	1000041e 	bne	r2,zero,49e8 <inet_aton+0x168>
    49d8:	e0bff843 	ldbu	r2,-31(fp)
    49dc:	10803fcc 	andi	r2,r2,255
    49e0:	108019f0 	cmpltui	r2,r2,103
    49e4:	1000081e 	bne	r2,zero,4a08 <inet_aton+0x188>
    49e8:	e0bff843 	ldbu	r2,-31(fp)
    49ec:	10803fcc 	andi	r2,r2,255
    49f0:	10801070 	cmpltui	r2,r2,65
    49f4:	10001d1e 	bne	r2,zero,4a6c <inet_aton+0x1ec>
    49f8:	e0bff843 	ldbu	r2,-31(fp)
    49fc:	10803fcc 	andi	r2,r2,255
    4a00:	108011e8 	cmpgeui	r2,r2,71
    4a04:	1000191e 	bne	r2,zero,4a6c <inet_aton+0x1ec>
    4a08:	e0bff717 	ldw	r2,-36(fp)
    4a0c:	1006913a 	slli	r3,r2,4
    4a10:	e0bff847 	ldb	r2,-31(fp)
    4a14:	11000284 	addi	r4,r2,10
    4a18:	e0bff843 	ldbu	r2,-31(fp)
    4a1c:	10803fcc 	andi	r2,r2,255
    4a20:	10801870 	cmpltui	r2,r2,97
    4a24:	1000061e 	bne	r2,zero,4a40 <inet_aton+0x1c0>
    4a28:	e0bff843 	ldbu	r2,-31(fp)
    4a2c:	10803fcc 	andi	r2,r2,255
    4a30:	10801ee8 	cmpgeui	r2,r2,123
    4a34:	1000021e 	bne	r2,zero,4a40 <inet_aton+0x1c0>
    4a38:	00801844 	movi	r2,97
    4a3c:	00000106 	br	4a44 <inet_aton+0x1c4>
    4a40:	00801044 	movi	r2,65
    4a44:	2085c83a 	sub	r2,r4,r2
    4a48:	1884b03a 	or	r2,r3,r2
    4a4c:	e0bff715 	stw	r2,-36(fp)
    4a50:	e0bffe17 	ldw	r2,-8(fp)
    4a54:	10800044 	addi	r2,r2,1
    4a58:	e0bffe15 	stw	r2,-8(fp)
    4a5c:	e0bffe17 	ldw	r2,-8(fp)
    4a60:	10800003 	ldbu	r2,0(r2)
    4a64:	e0bff845 	stb	r2,-31(fp)
    4a68:	003fb606 	br	4944 <inet_aton+0xc4>
    4a6c:	e0bff847 	ldb	r2,-31(fp)
    4a70:	10800b98 	cmpnei	r2,r2,46
    4a74:	1000131e 	bne	r2,zero,4ac4 <inet_aton+0x244>
    4a78:	e0bffa04 	addi	r2,fp,-24
    4a7c:	10800304 	addi	r2,r2,12
    4a80:	e0fff917 	ldw	r3,-28(fp)
    4a84:	18800236 	bltu	r3,r2,4a90 <inet_aton+0x210>
    4a88:	0005883a 	mov	r2,zero
    4a8c:	00007606 	br	4c68 <inet_aton+0x3e8>
    4a90:	e0bff917 	ldw	r2,-28(fp)
    4a94:	e0fff717 	ldw	r3,-36(fp)
    4a98:	10c00015 	stw	r3,0(r2)
    4a9c:	e0bff917 	ldw	r2,-28(fp)
    4aa0:	10800104 	addi	r2,r2,4
    4aa4:	e0bff915 	stw	r2,-28(fp)
    4aa8:	e0bffe17 	ldw	r2,-8(fp)
    4aac:	10800044 	addi	r2,r2,1
    4ab0:	e0bffe15 	stw	r2,-8(fp)
    4ab4:	e0bffe17 	ldw	r2,-8(fp)
    4ab8:	10800003 	ldbu	r2,0(r2)
    4abc:	e0bff845 	stb	r2,-31(fp)
    4ac0:	003f7906 	br	48a8 <inet_aton+0x28>
    4ac4:	0001883a 	nop
    4ac8:	e0bff847 	ldb	r2,-31(fp)
    4acc:	10001426 	beq	r2,zero,4b20 <inet_aton+0x2a0>
    4ad0:	e0bff847 	ldb	r2,-31(fp)
    4ad4:	10800820 	cmpeqi	r2,r2,32
    4ad8:	1000111e 	bne	r2,zero,4b20 <inet_aton+0x2a0>
    4adc:	e0bff847 	ldb	r2,-31(fp)
    4ae0:	10800320 	cmpeqi	r2,r2,12
    4ae4:	10000e1e 	bne	r2,zero,4b20 <inet_aton+0x2a0>
    4ae8:	e0bff847 	ldb	r2,-31(fp)
    4aec:	108002a0 	cmpeqi	r2,r2,10
    4af0:	10000b1e 	bne	r2,zero,4b20 <inet_aton+0x2a0>
    4af4:	e0bff847 	ldb	r2,-31(fp)
    4af8:	10800360 	cmpeqi	r2,r2,13
    4afc:	1000081e 	bne	r2,zero,4b20 <inet_aton+0x2a0>
    4b00:	e0bff847 	ldb	r2,-31(fp)
    4b04:	10800260 	cmpeqi	r2,r2,9
    4b08:	1000051e 	bne	r2,zero,4b20 <inet_aton+0x2a0>
    4b0c:	e0bff847 	ldb	r2,-31(fp)
    4b10:	108002e0 	cmpeqi	r2,r2,11
    4b14:	1000021e 	bne	r2,zero,4b20 <inet_aton+0x2a0>
    4b18:	0005883a 	mov	r2,zero
    4b1c:	00005206 	br	4c68 <inet_aton+0x3e8>
    4b20:	e0fff917 	ldw	r3,-28(fp)
    4b24:	e0bffa04 	addi	r2,fp,-24
    4b28:	1885c83a 	sub	r2,r3,r2
    4b2c:	1005d0ba 	srai	r2,r2,2
    4b30:	10800044 	addi	r2,r2,1
    4b34:	10c00168 	cmpgeui	r3,r2,5
    4b38:	1800391e 	bne	r3,zero,4c20 <inet_aton+0x3a0>
    4b3c:	1085883a 	add	r2,r2,r2
    4b40:	1087883a 	add	r3,r2,r2
    4b44:	00800034 	movhi	r2,0
    4b48:	1092d604 	addi	r2,r2,19288
    4b4c:	1885883a 	add	r2,r3,r2
    4b50:	10800017 	ldw	r2,0(r2)
    4b54:	1000683a 	jmp	r2
    4b58:	00004b6c 	andhi	zero,zero,301
    4b5c:	00004c1c 	xori	zero,zero,304
    4b60:	00004b74 	movhi	zero,301
    4b64:	00004ba0 	cmpeqi	zero,zero,302
    4b68:	00004bd8 	cmpnei	zero,zero,303
    4b6c:	0005883a 	mov	r2,zero
    4b70:	00003d06 	br	4c68 <inet_aton+0x3e8>
    4b74:	e0fff717 	ldw	r3,-36(fp)
    4b78:	00804034 	movhi	r2,256
    4b7c:	18800236 	bltu	r3,r2,4b88 <inet_aton+0x308>
    4b80:	0005883a 	mov	r2,zero
    4b84:	00003806 	br	4c68 <inet_aton+0x3e8>
    4b88:	e0bffa17 	ldw	r2,-24(fp)
    4b8c:	1004963a 	slli	r2,r2,24
    4b90:	e0fff717 	ldw	r3,-36(fp)
    4b94:	1884b03a 	or	r2,r3,r2
    4b98:	e0bff715 	stw	r2,-36(fp)
    4b9c:	00002006 	br	4c20 <inet_aton+0x3a0>
    4ba0:	e0bff717 	ldw	r2,-36(fp)
    4ba4:	00ffffd4 	movui	r3,65535
    4ba8:	1880022e 	bgeu	r3,r2,4bb4 <inet_aton+0x334>
    4bac:	0005883a 	mov	r2,zero
    4bb0:	00002d06 	br	4c68 <inet_aton+0x3e8>
    4bb4:	e0bffa17 	ldw	r2,-24(fp)
    4bb8:	1006963a 	slli	r3,r2,24
    4bbc:	e0bffb17 	ldw	r2,-20(fp)
    4bc0:	1004943a 	slli	r2,r2,16
    4bc4:	1884b03a 	or	r2,r3,r2
    4bc8:	e0fff717 	ldw	r3,-36(fp)
    4bcc:	1884b03a 	or	r2,r3,r2
    4bd0:	e0bff715 	stw	r2,-36(fp)
    4bd4:	00001206 	br	4c20 <inet_aton+0x3a0>
    4bd8:	e0bff717 	ldw	r2,-36(fp)
    4bdc:	10804030 	cmpltui	r2,r2,256
    4be0:	1000021e 	bne	r2,zero,4bec <inet_aton+0x36c>
    4be4:	0005883a 	mov	r2,zero
    4be8:	00001f06 	br	4c68 <inet_aton+0x3e8>
    4bec:	e0bffa17 	ldw	r2,-24(fp)
    4bf0:	1006963a 	slli	r3,r2,24
    4bf4:	e0bffb17 	ldw	r2,-20(fp)
    4bf8:	1004943a 	slli	r2,r2,16
    4bfc:	1886b03a 	or	r3,r3,r2
    4c00:	e0bffc17 	ldw	r2,-16(fp)
    4c04:	1004923a 	slli	r2,r2,8
    4c08:	1884b03a 	or	r2,r3,r2
    4c0c:	e0fff717 	ldw	r3,-36(fp)
    4c10:	1884b03a 	or	r2,r3,r2
    4c14:	e0bff715 	stw	r2,-36(fp)
    4c18:	00000106 	br	4c20 <inet_aton+0x3a0>
    4c1c:	0001883a 	nop
    4c20:	e0bfff17 	ldw	r2,-4(fp)
    4c24:	10000f26 	beq	r2,zero,4c64 <inet_aton+0x3e4>
    4c28:	e0bff717 	ldw	r2,-36(fp)
    4c2c:	1006d63a 	srli	r3,r2,24
    4c30:	e0bff717 	ldw	r2,-36(fp)
    4c34:	1004d23a 	srli	r2,r2,8
    4c38:	10bfc00c 	andi	r2,r2,65280
    4c3c:	1886b03a 	or	r3,r3,r2
    4c40:	e0bff717 	ldw	r2,-36(fp)
    4c44:	10bfc00c 	andi	r2,r2,65280
    4c48:	1004923a 	slli	r2,r2,8
    4c4c:	1886b03a 	or	r3,r3,r2
    4c50:	e0bff717 	ldw	r2,-36(fp)
    4c54:	1004963a 	slli	r2,r2,24
    4c58:	1886b03a 	or	r3,r3,r2
    4c5c:	e0bfff17 	ldw	r2,-4(fp)
    4c60:	10c00015 	stw	r3,0(r2)
    4c64:	00800044 	movi	r2,1
    4c68:	e037883a 	mov	sp,fp
    4c6c:	df000017 	ldw	fp,0(sp)
    4c70:	dec00104 	addi	sp,sp,4
    4c74:	f800283a 	ret

00004c78 <inet_ntoa>:
    4c78:	defff804 	addi	sp,sp,-32
    4c7c:	dfc00715 	stw	ra,28(sp)
    4c80:	df000615 	stw	fp,24(sp)
    4c84:	df000604 	addi	fp,sp,24
    4c88:	e13fff15 	stw	r4,-4(fp)
    4c8c:	e0bfff17 	ldw	r2,-4(fp)
    4c90:	e0bffd15 	stw	r2,-12(fp)
    4c94:	00800874 	movhi	r2,33
    4c98:	10a6c204 	addi	r2,r2,-25848
    4c9c:	e0bffa15 	stw	r2,-24(fp)
    4ca0:	e0bffd04 	addi	r2,fp,-12
    4ca4:	e0bffb15 	stw	r2,-20(fp)
    4ca8:	e03ffc05 	stb	zero,-16(fp)
    4cac:	00003b06 	br	4d9c <inet_ntoa+0x124>
    4cb0:	e03ffc45 	stb	zero,-15(fp)
    4cb4:	e0bffb17 	ldw	r2,-20(fp)
    4cb8:	10800003 	ldbu	r2,0(r2)
    4cbc:	10803fcc 	andi	r2,r2,255
    4cc0:	1009883a 	mov	r4,r2
    4cc4:	01400284 	movi	r5,10
    4cc8:	00160e00 	call	160e0 <__umodsi3>
    4ccc:	e0bffc85 	stb	r2,-14(fp)
    4cd0:	e0bffb17 	ldw	r2,-20(fp)
    4cd4:	10800003 	ldbu	r2,0(r2)
    4cd8:	10803fcc 	andi	r2,r2,255
    4cdc:	1009883a 	mov	r4,r2
    4ce0:	01400284 	movi	r5,10
    4ce4:	00160d80 	call	160d8 <__udivsi3>
    4ce8:	1007883a 	mov	r3,r2
    4cec:	e0bffb17 	ldw	r2,-20(fp)
    4cf0:	10c00005 	stb	r3,0(r2)
    4cf4:	e0bffc43 	ldbu	r2,-15(fp)
    4cf8:	e0fffc83 	ldbu	r3,-14(fp)
    4cfc:	18c00c04 	addi	r3,r3,48
    4d00:	e13ffe04 	addi	r4,fp,-8
    4d04:	2085883a 	add	r2,r4,r2
    4d08:	10c00005 	stb	r3,0(r2)
    4d0c:	e0bffc43 	ldbu	r2,-15(fp)
    4d10:	10800044 	addi	r2,r2,1
    4d14:	e0bffc45 	stb	r2,-15(fp)
    4d18:	e0bffb17 	ldw	r2,-20(fp)
    4d1c:	10800003 	ldbu	r2,0(r2)
    4d20:	10803fcc 	andi	r2,r2,255
    4d24:	103fe31e 	bne	r2,zero,4cb4 <inet_ntoa+0x3c>
    4d28:	00000906 	br	4d50 <inet_ntoa+0xd8>
    4d2c:	e0bffc43 	ldbu	r2,-15(fp)
    4d30:	e0fffe04 	addi	r3,fp,-8
    4d34:	1885883a 	add	r2,r3,r2
    4d38:	10c00003 	ldbu	r3,0(r2)
    4d3c:	e0bffa17 	ldw	r2,-24(fp)
    4d40:	10c00005 	stb	r3,0(r2)
    4d44:	e0bffa17 	ldw	r2,-24(fp)
    4d48:	10800044 	addi	r2,r2,1
    4d4c:	e0bffa15 	stw	r2,-24(fp)
    4d50:	e0bffc43 	ldbu	r2,-15(fp)
    4d54:	1004c03a 	cmpne	r2,r2,zero
    4d58:	e0fffc43 	ldbu	r3,-15(fp)
    4d5c:	18ffffc4 	addi	r3,r3,-1
    4d60:	e0fffc45 	stb	r3,-15(fp)
    4d64:	10803fcc 	andi	r2,r2,255
    4d68:	103ff01e 	bne	r2,zero,4d2c <inet_ntoa+0xb4>
    4d6c:	e0bffa17 	ldw	r2,-24(fp)
    4d70:	00c00b84 	movi	r3,46
    4d74:	10c00005 	stb	r3,0(r2)
    4d78:	e0bffa17 	ldw	r2,-24(fp)
    4d7c:	10800044 	addi	r2,r2,1
    4d80:	e0bffa15 	stw	r2,-24(fp)
    4d84:	e0bffb17 	ldw	r2,-20(fp)
    4d88:	10800044 	addi	r2,r2,1
    4d8c:	e0bffb15 	stw	r2,-20(fp)
    4d90:	e0bffc03 	ldbu	r2,-16(fp)
    4d94:	10800044 	addi	r2,r2,1
    4d98:	e0bffc05 	stb	r2,-16(fp)
    4d9c:	e0bffc03 	ldbu	r2,-16(fp)
    4da0:	10800130 	cmpltui	r2,r2,4
    4da4:	103fc21e 	bne	r2,zero,4cb0 <inet_ntoa+0x38>
    4da8:	e0bffa17 	ldw	r2,-24(fp)
    4dac:	10bfffc4 	addi	r2,r2,-1
    4db0:	e0bffa15 	stw	r2,-24(fp)
    4db4:	e0bffa17 	ldw	r2,-24(fp)
    4db8:	10000005 	stb	zero,0(r2)
    4dbc:	00800874 	movhi	r2,33
    4dc0:	10a6c204 	addi	r2,r2,-25848
    4dc4:	e037883a 	mov	sp,fp
    4dc8:	dfc00117 	ldw	ra,4(sp)
    4dcc:	df000017 	ldw	fp,0(sp)
    4dd0:	dec00204 	addi	sp,sp,8
    4dd4:	f800283a 	ret

00004dd8 <lwip_standard_chksum>:
    4dd8:	defffa04 	addi	sp,sp,-24
    4ddc:	df000515 	stw	fp,20(sp)
    4de0:	df000504 	addi	fp,sp,20
    4de4:	e13ffe15 	stw	r4,-8(fp)
    4de8:	2805883a 	mov	r2,r5
    4dec:	e0bfff0d 	sth	r2,-4(fp)
    4df0:	e03ffb15 	stw	zero,-20(fp)
    4df4:	e0bffe17 	ldw	r2,-8(fp)
    4df8:	e0bffc15 	stw	r2,-16(fp)
    4dfc:	00001806 	br	4e60 <lwip_standard_chksum+0x88>
    4e00:	e0bffc17 	ldw	r2,-16(fp)
    4e04:	10800003 	ldbu	r2,0(r2)
    4e08:	10803fcc 	andi	r2,r2,255
    4e0c:	1004923a 	slli	r2,r2,8
    4e10:	e0bffd0d 	sth	r2,-12(fp)
    4e14:	e0bffc17 	ldw	r2,-16(fp)
    4e18:	10800044 	addi	r2,r2,1
    4e1c:	e0bffc15 	stw	r2,-16(fp)
    4e20:	e0bffc17 	ldw	r2,-16(fp)
    4e24:	10800003 	ldbu	r2,0(r2)
    4e28:	10c03fcc 	andi	r3,r2,255
    4e2c:	e0bffd0b 	ldhu	r2,-12(fp)
    4e30:	1884b03a 	or	r2,r3,r2
    4e34:	e0bffd0d 	sth	r2,-12(fp)
    4e38:	e0bffc17 	ldw	r2,-16(fp)
    4e3c:	10800044 	addi	r2,r2,1
    4e40:	e0bffc15 	stw	r2,-16(fp)
    4e44:	e0bffd0b 	ldhu	r2,-12(fp)
    4e48:	e0fffb17 	ldw	r3,-20(fp)
    4e4c:	1885883a 	add	r2,r3,r2
    4e50:	e0bffb15 	stw	r2,-20(fp)
    4e54:	e0bfff0b 	ldhu	r2,-4(fp)
    4e58:	10bfff84 	addi	r2,r2,-2
    4e5c:	e0bfff0d 	sth	r2,-4(fp)
    4e60:	e0bfff0b 	ldhu	r2,-4(fp)
    4e64:	108000a8 	cmpgeui	r2,r2,2
    4e68:	103fe51e 	bne	r2,zero,4e00 <lwip_standard_chksum+0x28>
    4e6c:	e0bfff0b 	ldhu	r2,-4(fp)
    4e70:	10000926 	beq	r2,zero,4e98 <lwip_standard_chksum+0xc0>
    4e74:	e0bffc17 	ldw	r2,-16(fp)
    4e78:	10800003 	ldbu	r2,0(r2)
    4e7c:	10803fcc 	andi	r2,r2,255
    4e80:	1004923a 	slli	r2,r2,8
    4e84:	e0bffd0d 	sth	r2,-12(fp)
    4e88:	e0bffd0b 	ldhu	r2,-12(fp)
    4e8c:	e0fffb17 	ldw	r3,-20(fp)
    4e90:	1885883a 	add	r2,r3,r2
    4e94:	e0bffb15 	stw	r2,-20(fp)
    4e98:	e0bffb17 	ldw	r2,-20(fp)
    4e9c:	1006d43a 	srli	r3,r2,16
    4ea0:	e0bffb17 	ldw	r2,-20(fp)
    4ea4:	10bfffcc 	andi	r2,r2,65535
    4ea8:	1885883a 	add	r2,r3,r2
    4eac:	e0bffb15 	stw	r2,-20(fp)
    4eb0:	e0bffb17 	ldw	r2,-20(fp)
    4eb4:	10bfffec 	andhi	r2,r2,65535
    4eb8:	10000626 	beq	r2,zero,4ed4 <lwip_standard_chksum+0xfc>
    4ebc:	e0bffb17 	ldw	r2,-20(fp)
    4ec0:	1006d43a 	srli	r3,r2,16
    4ec4:	e0bffb17 	ldw	r2,-20(fp)
    4ec8:	10bfffcc 	andi	r2,r2,65535
    4ecc:	1885883a 	add	r2,r3,r2
    4ed0:	e0bffb15 	stw	r2,-20(fp)
    4ed4:	e0bffb17 	ldw	r2,-20(fp)
    4ed8:	10bfffcc 	andi	r2,r2,65535
    4edc:	1004d23a 	srli	r2,r2,8
    4ee0:	1007883a 	mov	r3,r2
    4ee4:	e0bffb17 	ldw	r2,-20(fp)
    4ee8:	10bfffcc 	andi	r2,r2,65535
    4eec:	1004923a 	slli	r2,r2,8
    4ef0:	1884b03a 	or	r2,r3,r2
    4ef4:	e037883a 	mov	sp,fp
    4ef8:	df000017 	ldw	fp,0(sp)
    4efc:	dec00104 	addi	sp,sp,4
    4f00:	f800283a 	ret

00004f04 <inet_chksum_pseudo>:
    4f04:	defff604 	addi	sp,sp,-40
    4f08:	dfc00915 	stw	ra,36(sp)
    4f0c:	df000815 	stw	fp,32(sp)
    4f10:	df000804 	addi	fp,sp,32
    4f14:	e13ffb15 	stw	r4,-20(fp)
    4f18:	e17ffc15 	stw	r5,-16(fp)
    4f1c:	e1bffd15 	stw	r6,-12(fp)
    4f20:	3805883a 	mov	r2,r7
    4f24:	e0c00217 	ldw	r3,8(fp)
    4f28:	e0bffe05 	stb	r2,-8(fp)
    4f2c:	e0ffff0d 	sth	r3,-4(fp)
    4f30:	e03ff815 	stw	zero,-32(fp)
    4f34:	e03ffa05 	stb	zero,-24(fp)
    4f38:	e0bffb17 	ldw	r2,-20(fp)
    4f3c:	e0bff915 	stw	r2,-28(fp)
    4f40:	00002606 	br	4fdc <inet_chksum_pseudo+0xd8>
    4f44:	e0bff917 	ldw	r2,-28(fp)
    4f48:	10c00117 	ldw	r3,4(r2)
    4f4c:	e0bff917 	ldw	r2,-28(fp)
    4f50:	1080028b 	ldhu	r2,10(r2)
    4f54:	10bfffcc 	andi	r2,r2,65535
    4f58:	1809883a 	mov	r4,r3
    4f5c:	100b883a 	mov	r5,r2
    4f60:	0004dd80 	call	4dd8 <lwip_standard_chksum>
    4f64:	10bfffcc 	andi	r2,r2,65535
    4f68:	e0fff817 	ldw	r3,-32(fp)
    4f6c:	1885883a 	add	r2,r3,r2
    4f70:	e0bff815 	stw	r2,-32(fp)
    4f74:	e0bff817 	ldw	r2,-32(fp)
    4f78:	1006d43a 	srli	r3,r2,16
    4f7c:	e0bff817 	ldw	r2,-32(fp)
    4f80:	10bfffcc 	andi	r2,r2,65535
    4f84:	1885883a 	add	r2,r3,r2
    4f88:	e0bff815 	stw	r2,-32(fp)
    4f8c:	e0bff917 	ldw	r2,-28(fp)
    4f90:	1080028b 	ldhu	r2,10(r2)
    4f94:	1080004c 	andi	r2,r2,1
    4f98:	10bfffcc 	andi	r2,r2,65535
    4f9c:	10000c26 	beq	r2,zero,4fd0 <inet_chksum_pseudo+0xcc>
    4fa0:	e0bffa03 	ldbu	r2,-24(fp)
    4fa4:	00c00044 	movi	r3,1
    4fa8:	1885c83a 	sub	r2,r3,r2
    4fac:	e0bffa05 	stb	r2,-24(fp)
    4fb0:	e0bff817 	ldw	r2,-32(fp)
    4fb4:	10bfc00c 	andi	r2,r2,65280
    4fb8:	1006d23a 	srli	r3,r2,8
    4fbc:	e0bff817 	ldw	r2,-32(fp)
    4fc0:	1004923a 	slli	r2,r2,8
    4fc4:	10bfffcc 	andi	r2,r2,65535
    4fc8:	1884b03a 	or	r2,r3,r2
    4fcc:	e0bff815 	stw	r2,-32(fp)
    4fd0:	e0bff917 	ldw	r2,-28(fp)
    4fd4:	10800017 	ldw	r2,0(r2)
    4fd8:	e0bff915 	stw	r2,-28(fp)
    4fdc:	e0bff917 	ldw	r2,-28(fp)
    4fe0:	103fd81e 	bne	r2,zero,4f44 <inet_chksum_pseudo+0x40>
    4fe4:	e0bffa03 	ldbu	r2,-24(fp)
    4fe8:	10000826 	beq	r2,zero,500c <inet_chksum_pseudo+0x108>
    4fec:	e0bff817 	ldw	r2,-32(fp)
    4ff0:	10bfc00c 	andi	r2,r2,65280
    4ff4:	1006d23a 	srli	r3,r2,8
    4ff8:	e0bff817 	ldw	r2,-32(fp)
    4ffc:	1004923a 	slli	r2,r2,8
    5000:	10bfffcc 	andi	r2,r2,65535
    5004:	1884b03a 	or	r2,r3,r2
    5008:	e0bff815 	stw	r2,-32(fp)
    500c:	e0bffc17 	ldw	r2,-16(fp)
    5010:	10c0000b 	ldhu	r3,0(r2)
    5014:	1080008b 	ldhu	r2,2(r2)
    5018:	1004943a 	slli	r2,r2,16
    501c:	10c4b03a 	or	r2,r2,r3
    5020:	10bfffcc 	andi	r2,r2,65535
    5024:	e0fff817 	ldw	r3,-32(fp)
    5028:	1885883a 	add	r2,r3,r2
    502c:	e0bff815 	stw	r2,-32(fp)
    5030:	e0bffc17 	ldw	r2,-16(fp)
    5034:	10c0000b 	ldhu	r3,0(r2)
    5038:	1080008b 	ldhu	r2,2(r2)
    503c:	1004943a 	slli	r2,r2,16
    5040:	10c4b03a 	or	r2,r2,r3
    5044:	1004d43a 	srli	r2,r2,16
    5048:	e0fff817 	ldw	r3,-32(fp)
    504c:	1885883a 	add	r2,r3,r2
    5050:	e0bff815 	stw	r2,-32(fp)
    5054:	e0bffd17 	ldw	r2,-12(fp)
    5058:	10c0000b 	ldhu	r3,0(r2)
    505c:	1080008b 	ldhu	r2,2(r2)
    5060:	1004943a 	slli	r2,r2,16
    5064:	10c4b03a 	or	r2,r2,r3
    5068:	10bfffcc 	andi	r2,r2,65535
    506c:	e0fff817 	ldw	r3,-32(fp)
    5070:	1885883a 	add	r2,r3,r2
    5074:	e0bff815 	stw	r2,-32(fp)
    5078:	e0bffd17 	ldw	r2,-12(fp)
    507c:	10c0000b 	ldhu	r3,0(r2)
    5080:	1080008b 	ldhu	r2,2(r2)
    5084:	1004943a 	slli	r2,r2,16
    5088:	10c4b03a 	or	r2,r2,r3
    508c:	1004d43a 	srli	r2,r2,16
    5090:	e0fff817 	ldw	r3,-32(fp)
    5094:	1885883a 	add	r2,r3,r2
    5098:	e0bff815 	stw	r2,-32(fp)
    509c:	e0bffe03 	ldbu	r2,-8(fp)
    50a0:	1004923a 	slli	r2,r2,8
    50a4:	e0fff817 	ldw	r3,-32(fp)
    50a8:	1885883a 	add	r2,r3,r2
    50ac:	e0bff815 	stw	r2,-32(fp)
    50b0:	e0bfff0b 	ldhu	r2,-4(fp)
    50b4:	1004d23a 	srli	r2,r2,8
    50b8:	10ffffcc 	andi	r3,r2,65535
    50bc:	e0bfff0b 	ldhu	r2,-4(fp)
    50c0:	1004923a 	slli	r2,r2,8
    50c4:	10bfffcc 	andi	r2,r2,65535
    50c8:	1884b03a 	or	r2,r3,r2
    50cc:	e0fff817 	ldw	r3,-32(fp)
    50d0:	1885883a 	add	r2,r3,r2
    50d4:	e0bff815 	stw	r2,-32(fp)
    50d8:	e0bff817 	ldw	r2,-32(fp)
    50dc:	1006d43a 	srli	r3,r2,16
    50e0:	e0bff817 	ldw	r2,-32(fp)
    50e4:	10bfffcc 	andi	r2,r2,65535
    50e8:	1885883a 	add	r2,r3,r2
    50ec:	e0bff815 	stw	r2,-32(fp)
    50f0:	e0bff817 	ldw	r2,-32(fp)
    50f4:	1006d43a 	srli	r3,r2,16
    50f8:	e0bff817 	ldw	r2,-32(fp)
    50fc:	10bfffcc 	andi	r2,r2,65535
    5100:	1885883a 	add	r2,r3,r2
    5104:	e0bff815 	stw	r2,-32(fp)
    5108:	e0bff817 	ldw	r2,-32(fp)
    510c:	0084303a 	nor	r2,zero,r2
    5110:	e037883a 	mov	sp,fp
    5114:	dfc00117 	ldw	ra,4(sp)
    5118:	df000017 	ldw	fp,0(sp)
    511c:	dec00204 	addi	sp,sp,8
    5120:	f800283a 	ret

00005124 <inet_chksum>:
    5124:	defffc04 	addi	sp,sp,-16
    5128:	dfc00315 	stw	ra,12(sp)
    512c:	df000215 	stw	fp,8(sp)
    5130:	df000204 	addi	fp,sp,8
    5134:	e13ffe15 	stw	r4,-8(fp)
    5138:	2805883a 	mov	r2,r5
    513c:	e0bfff0d 	sth	r2,-4(fp)
    5140:	e0bfff0b 	ldhu	r2,-4(fp)
    5144:	e13ffe17 	ldw	r4,-8(fp)
    5148:	100b883a 	mov	r5,r2
    514c:	0004dd80 	call	4dd8 <lwip_standard_chksum>
    5150:	0084303a 	nor	r2,zero,r2
    5154:	e037883a 	mov	sp,fp
    5158:	dfc00117 	ldw	ra,4(sp)
    515c:	df000017 	ldw	fp,0(sp)
    5160:	dec00204 	addi	sp,sp,8
    5164:	f800283a 	ret

00005168 <inet_chksum_pbuf>:
    5168:	defffa04 	addi	sp,sp,-24
    516c:	dfc00515 	stw	ra,20(sp)
    5170:	df000415 	stw	fp,16(sp)
    5174:	df000404 	addi	fp,sp,16
    5178:	e13fff15 	stw	r4,-4(fp)
    517c:	e03ffc15 	stw	zero,-16(fp)
    5180:	e03ffe05 	stb	zero,-8(fp)
    5184:	e0bfff17 	ldw	r2,-4(fp)
    5188:	e0bffd15 	stw	r2,-12(fp)
    518c:	00002606 	br	5228 <inet_chksum_pbuf+0xc0>
    5190:	e0bffd17 	ldw	r2,-12(fp)
    5194:	10c00117 	ldw	r3,4(r2)
    5198:	e0bffd17 	ldw	r2,-12(fp)
    519c:	1080028b 	ldhu	r2,10(r2)
    51a0:	10bfffcc 	andi	r2,r2,65535
    51a4:	1809883a 	mov	r4,r3
    51a8:	100b883a 	mov	r5,r2
    51ac:	0004dd80 	call	4dd8 <lwip_standard_chksum>
    51b0:	10bfffcc 	andi	r2,r2,65535
    51b4:	e0fffc17 	ldw	r3,-16(fp)
    51b8:	1885883a 	add	r2,r3,r2
    51bc:	e0bffc15 	stw	r2,-16(fp)
    51c0:	e0bffc17 	ldw	r2,-16(fp)
    51c4:	1006d43a 	srli	r3,r2,16
    51c8:	e0bffc17 	ldw	r2,-16(fp)
    51cc:	10bfffcc 	andi	r2,r2,65535
    51d0:	1885883a 	add	r2,r3,r2
    51d4:	e0bffc15 	stw	r2,-16(fp)
    51d8:	e0bffd17 	ldw	r2,-12(fp)
    51dc:	1080028b 	ldhu	r2,10(r2)
    51e0:	1080004c 	andi	r2,r2,1
    51e4:	10bfffcc 	andi	r2,r2,65535
    51e8:	10000c26 	beq	r2,zero,521c <inet_chksum_pbuf+0xb4>
    51ec:	e0bffe03 	ldbu	r2,-8(fp)
    51f0:	00c00044 	movi	r3,1
    51f4:	1885c83a 	sub	r2,r3,r2
    51f8:	e0bffe05 	stb	r2,-8(fp)
    51fc:	e0bffc17 	ldw	r2,-16(fp)
    5200:	10bfc00c 	andi	r2,r2,65280
    5204:	1006d23a 	srli	r3,r2,8
    5208:	e0bffc17 	ldw	r2,-16(fp)
    520c:	1004923a 	slli	r2,r2,8
    5210:	10bfffcc 	andi	r2,r2,65535
    5214:	1884b03a 	or	r2,r3,r2
    5218:	e0bffc15 	stw	r2,-16(fp)
    521c:	e0bffd17 	ldw	r2,-12(fp)
    5220:	10800017 	ldw	r2,0(r2)
    5224:	e0bffd15 	stw	r2,-12(fp)
    5228:	e0bffd17 	ldw	r2,-12(fp)
    522c:	103fd81e 	bne	r2,zero,5190 <inet_chksum_pbuf+0x28>
    5230:	e0bffe03 	ldbu	r2,-8(fp)
    5234:	10000826 	beq	r2,zero,5258 <inet_chksum_pbuf+0xf0>
    5238:	e0bffc17 	ldw	r2,-16(fp)
    523c:	10bfc00c 	andi	r2,r2,65280
    5240:	1006d23a 	srli	r3,r2,8
    5244:	e0bffc17 	ldw	r2,-16(fp)
    5248:	1004923a 	slli	r2,r2,8
    524c:	10bfffcc 	andi	r2,r2,65535
    5250:	1884b03a 	or	r2,r3,r2
    5254:	e0bffc15 	stw	r2,-16(fp)
    5258:	e0bffc17 	ldw	r2,-16(fp)
    525c:	0084303a 	nor	r2,zero,r2
    5260:	e037883a 	mov	sp,fp
    5264:	dfc00117 	ldw	ra,4(sp)
    5268:	df000017 	ldw	fp,0(sp)
    526c:	dec00204 	addi	sp,sp,8
    5270:	f800283a 	ret

00005274 <ip_route>:
    5274:	defffc04 	addi	sp,sp,-16
    5278:	dfc00315 	stw	ra,12(sp)
    527c:	df000215 	stw	fp,8(sp)
    5280:	df000204 	addi	fp,sp,8
    5284:	e13fff15 	stw	r4,-4(fp)
    5288:	00800834 	movhi	r2,32
    528c:	1099a104 	addi	r2,r2,26244
    5290:	10800017 	ldw	r2,0(r2)
    5294:	e0bffe15 	stw	r2,-8(fp)
    5298:	00001606 	br	52f4 <ip_route+0x80>
    529c:	e13ffe17 	ldw	r4,-8(fp)
    52a0:	00087c40 	call	87c4 <netif_is_up>
    52a4:	10803fcc 	andi	r2,r2,255
    52a8:	10000f26 	beq	r2,zero,52e8 <ip_route+0x74>
    52ac:	e0bfff17 	ldw	r2,-4(fp)
    52b0:	10c0000b 	ldhu	r3,0(r2)
    52b4:	1080008b 	ldhu	r2,2(r2)
    52b8:	1004943a 	slli	r2,r2,16
    52bc:	10c4b03a 	or	r2,r2,r3
    52c0:	1007883a 	mov	r3,r2
    52c4:	e0bffe17 	ldw	r2,-8(fp)
    52c8:	10800117 	ldw	r2,4(r2)
    52cc:	1886f03a 	xor	r3,r3,r2
    52d0:	e0bffe17 	ldw	r2,-8(fp)
    52d4:	10800217 	ldw	r2,8(r2)
    52d8:	1884703a 	and	r2,r3,r2
    52dc:	1000021e 	bne	r2,zero,52e8 <ip_route+0x74>
    52e0:	e0bffe17 	ldw	r2,-8(fp)
    52e4:	00000806 	br	5308 <ip_route+0x94>
    52e8:	e0bffe17 	ldw	r2,-8(fp)
    52ec:	10800017 	ldw	r2,0(r2)
    52f0:	e0bffe15 	stw	r2,-8(fp)
    52f4:	e0bffe17 	ldw	r2,-8(fp)
    52f8:	103fe81e 	bne	r2,zero,529c <ip_route+0x28>
    52fc:	00800834 	movhi	r2,32
    5300:	1099a204 	addi	r2,r2,26248
    5304:	10800017 	ldw	r2,0(r2)
    5308:	e037883a 	mov	sp,fp
    530c:	dfc00117 	ldw	ra,4(sp)
    5310:	df000017 	ldw	fp,0(sp)
    5314:	dec00204 	addi	sp,sp,8
    5318:	f800283a 	ret

0000531c <ip_input>:
    531c:	defff804 	addi	sp,sp,-32
    5320:	dfc00715 	stw	ra,28(sp)
    5324:	df000615 	stw	fp,24(sp)
    5328:	df000604 	addi	fp,sp,24
    532c:	e13ffe15 	stw	r4,-8(fp)
    5330:	e17fff15 	stw	r5,-4(fp)
    5334:	01000834 	movhi	r4,32
    5338:	21077704 	addi	r4,r4,7644
    533c:	00163cc0 	call	163cc <puts>
    5340:	008008b4 	movhi	r2,34
    5344:	10a2f804 	addi	r2,r2,-29728
    5348:	1080128b 	ldhu	r2,74(r2)
    534c:	10800044 	addi	r2,r2,1
    5350:	1007883a 	mov	r3,r2
    5354:	008008b4 	movhi	r2,34
    5358:	10a2f804 	addi	r2,r2,-29728
    535c:	10c0128d 	sth	r3,74(r2)
    5360:	e0bffe17 	ldw	r2,-8(fp)
    5364:	10800117 	ldw	r2,4(r2)
    5368:	e0bffa15 	stw	r2,-24(fp)
    536c:	e0bffa17 	ldw	r2,-24(fp)
    5370:	1080000b 	ldhu	r2,0(r2)
    5374:	10bfffcc 	andi	r2,r2,65535
    5378:	1004d23a 	srli	r2,r2,8
    537c:	10ffffcc 	andi	r3,r2,65535
    5380:	e0bffa17 	ldw	r2,-24(fp)
    5384:	1080000b 	ldhu	r2,0(r2)
    5388:	10bfffcc 	andi	r2,r2,65535
    538c:	1004923a 	slli	r2,r2,8
    5390:	10bfffcc 	andi	r2,r2,65535
    5394:	1884b03a 	or	r2,r3,r2
    5398:	1005d33a 	srai	r2,r2,12
    539c:	10800120 	cmpeqi	r2,r2,4
    53a0:	1000271e 	bne	r2,zero,5440 <ip_input+0x124>
    53a4:	e0bffa17 	ldw	r2,-24(fp)
    53a8:	1080000b 	ldhu	r2,0(r2)
    53ac:	10bfffcc 	andi	r2,r2,65535
    53b0:	1004d23a 	srli	r2,r2,8
    53b4:	10ffffcc 	andi	r3,r2,65535
    53b8:	e0bffa17 	ldw	r2,-24(fp)
    53bc:	1080000b 	ldhu	r2,0(r2)
    53c0:	10bfffcc 	andi	r2,r2,65535
    53c4:	1004923a 	slli	r2,r2,8
    53c8:	10bfffcc 	andi	r2,r2,65535
    53cc:	1884b03a 	or	r2,r3,r2
    53d0:	1005d33a 	srai	r2,r2,12
    53d4:	01000834 	movhi	r4,32
    53d8:	21077e04 	addi	r4,r4,7672
    53dc:	100b883a 	mov	r5,r2
    53e0:	00162e80 	call	162e8 <printf>
    53e4:	01000834 	movhi	r4,32
    53e8:	21078404 	addi	r4,r4,7696
    53ec:	00162e80 	call	162e8 <printf>
    53f0:	e13ffe17 	ldw	r4,-8(fp)
    53f4:	00091200 	call	9120 <pbuf_free>
    53f8:	008008b4 	movhi	r2,34
    53fc:	10a2f804 	addi	r2,r2,-29728
    5400:	1080170b 	ldhu	r2,92(r2)
    5404:	10800044 	addi	r2,r2,1
    5408:	1007883a 	mov	r3,r2
    540c:	008008b4 	movhi	r2,34
    5410:	10a2f804 	addi	r2,r2,-29728
    5414:	10c0170d 	sth	r3,92(r2)
    5418:	008008b4 	movhi	r2,34
    541c:	10a2f804 	addi	r2,r2,-29728
    5420:	1080138b 	ldhu	r2,78(r2)
    5424:	10800044 	addi	r2,r2,1
    5428:	1007883a 	mov	r3,r2
    542c:	008008b4 	movhi	r2,34
    5430:	10a2f804 	addi	r2,r2,-29728
    5434:	10c0138d 	sth	r3,78(r2)
    5438:	0005883a 	mov	r2,zero
    543c:	00011406 	br	5890 <ip_input+0x574>
    5440:	e0bffa17 	ldw	r2,-24(fp)
    5444:	1080000b 	ldhu	r2,0(r2)
    5448:	10bfffcc 	andi	r2,r2,65535
    544c:	1004d23a 	srli	r2,r2,8
    5450:	10ffffcc 	andi	r3,r2,65535
    5454:	e0bffa17 	ldw	r2,-24(fp)
